(lp0
(lp1
S'jar_NN'
p2
aS'open_JJ'
p3
aS'box_NN'
p4
aS'open_JJ'
p5
aa(lp6
S'jar_NN'
p7
aS'open_JJ'
p8
aS'bottle_NN'
p9
aS'pour_VBP'
p10
aa(lp11
S'jar_NN'
p12
aS'open_JJ'
p13
aS'bottle_NN'
p14
aS'squeeze_NN'
p15
aa(lp16
S'jar_NN'
p17
aS'open_JJ'
p18
aS'faucet_NN'
p19
aS'turn_NN'
p20
aa(lp21
S'jar_NN'
p22
aS'open_JJ'
p23
aS'bag_NN'
p24
aS'open_JJ'
p25
aa(lp26
S'jar_NN'
p27
aS'open_JJ'
p28
aS'drawer_NN'
p29
aS'open_JJ'
p30
aa(lp31
S'jar_NN'
p32
aS'open_JJ'
p33
aS'bag_NN'
p34
aS'unzip_JJ'
p35
aa(lp36
S'jar_NN'
p37
aS'open_JJ'
p38
aS'banana_NN'
p39
aS'peel_NN'
p40
aa(lp41
S'jar_NN'
p42
aS'open_JJ'
p43
aS'peanut_NN'
p44
aS'shell_NN'
p45
aa(lp46
S'box_NN'
p47
aS'open_JJ'
p48
aS'jar_NN'
p49
aS'open_JJ'
p50
aa(lp51
S'box_NN'
p52
aS'open_JJ'
p53
aS'bottle_NN'
p54
aS'pour_VBP'
p55
aa(lp56
S'box_NN'
p57
aS'open_JJ'
p58
aS'bottle_NN'
p59
aS'squeeze_NN'
p60
aa(lp61
S'box_NN'
p62
aS'open_JJ'
p63
aS'faucet_NN'
p64
aS'turn_NN'
p65
aa(lp66
S'box_NN'
p67
aS'open_JJ'
p68
aS'bag_NN'
p69
aS'open_JJ'
p70
aa(lp71
S'box_NN'
p72
aS'open_JJ'
p73
aS'drawer_NN'
p74
aS'open_JJ'
p75
aa(lp76
S'box_NN'
p77
aS'open_JJ'
p78
aS'bag_NN'
p79
aS'unzip_JJ'
p80
aa(lp81
S'box_NN'
p82
aS'open_JJ'
p83
aS'banana_NN'
p84
aS'peel_NN'
p85
aa(lp86
S'box_NN'
p87
aS'open_JJ'
p88
aS'peanut_NN'
p89
aS'shell_NN'
p90
aa(lp91
S'bottle_NN'
p92
aS'pour_VBP'
p93
aS'jar_NN'
p94
aS'open_JJ'
p95
aa(lp96
S'bottle_NN'
p97
aS'pour_VBP'
p98
aS'box_NN'
p99
aS'open_JJ'
p100
aa(lp101
S'bottle_NN'
p102
aS'pour_VBP'
p103
aS'bottle_NN'
p104
aS'squeeze_NN'
p105
aa(lp106
S'bottle_NN'
p107
aS'pour_VBP'
p108
aS'faucet_NN'
p109
aS'turn_NN'
p110
aa(lp111
S'bottle_NN'
p112
aS'pour_VBP'
p113
aS'bag_NN'
p114
aS'open_JJ'
p115
aa(lp116
S'bottle_NN'
p117
aS'pour_VBP'
p118
aS'drawer_NN'
p119
aS'open_JJ'
p120
aa(lp121
S'bottle_NN'
p122
aS'pour_VBP'
p123
aS'bag_NN'
p124
aS'unzip_JJ'
p125
aa(lp126
S'bottle_NN'
p127
aS'pour_VBP'
p128
aS'banana_NN'
p129
aS'peel_NN'
p130
aa(lp131
S'bottle_NN'
p132
aS'pour_VBP'
p133
aS'peanut_NN'
p134
aS'shell_NN'
p135
aa(lp136
S'bottle_NN'
p137
aS'squeeze_NN'
p138
aS'jar_NN'
p139
aS'open_JJ'
p140
aa(lp141
S'bottle_NN'
p142
aS'squeeze_NN'
p143
aS'box_NN'
p144
aS'open_JJ'
p145
aa(lp146
S'bottle_NN'
p147
aS'squeeze_NN'
p148
aS'bottle_NN'
p149
aS'pour_VBP'
p150
aa(lp151
S'bottle_NN'
p152
aS'squeeze_NN'
p153
aS'faucet_NN'
p154
aS'turn_NN'
p155
aa(lp156
S'bottle_NN'
p157
aS'squeeze_NN'
p158
aS'bag_NN'
p159
aS'open_JJ'
p160
aa(lp161
S'bottle_NN'
p162
aS'squeeze_NN'
p163
aS'drawer_NN'
p164
aS'open_JJ'
p165
aa(lp166
S'bottle_NN'
p167
aS'squeeze_NN'
p168
aS'bag_NN'
p169
aS'unzip_JJ'
p170
aa(lp171
S'bottle_NN'
p172
aS'squeeze_NN'
p173
aS'banana_NN'
p174
aS'peel_NN'
p175
aa(lp176
S'bottle_NN'
p177
aS'squeeze_NN'
p178
aS'peanut_NN'
p179
aS'shell_NN'
p180
aa(lp181
S'faucet_NN'
p182
aS'turn_NN'
p183
aS'jar_NN'
p184
aS'open_JJ'
p185
aa(lp186
S'faucet_NN'
p187
aS'turn_NN'
p188
aS'box_NN'
p189
aS'open_JJ'
p190
aa(lp191
S'faucet_NN'
p192
aS'turn_NN'
p193
aS'bottle_NN'
p194
aS'pour_VBP'
p195
aa(lp196
S'faucet_NN'
p197
aS'turn_NN'
p198
aS'bottle_NN'
p199
aS'squeeze_NN'
p200
aa(lp201
S'faucet_NN'
p202
aS'turn_NN'
p203
aS'bag_NN'
p204
aS'open_JJ'
p205
aa(lp206
S'faucet_NN'
p207
aS'turn_NN'
p208
aS'drawer_NN'
p209
aS'open_JJ'
p210
aa(lp211
S'faucet_NN'
p212
aS'turn_NN'
p213
aS'bag_NN'
p214
aS'unzip_JJ'
p215
aa(lp216
S'faucet_NN'
p217
aS'turn_NN'
p218
aS'banana_NN'
p219
aS'peel_NN'
p220
aa(lp221
S'faucet_NN'
p222
aS'turn_NN'
p223
aS'peanut_NN'
p224
aS'shell_NN'
p225
aa(lp226
S'bag_NN'
p227
aS'open_JJ'
p228
aS'jar_NN'
p229
aS'open_JJ'
p230
aa(lp231
S'bag_NN'
p232
aS'open_JJ'
p233
aS'box_NN'
p234
aS'open_JJ'
p235
aa(lp236
S'bag_NN'
p237
aS'open_JJ'
p238
aS'bottle_NN'
p239
aS'pour_VBP'
p240
aa(lp241
S'bag_NN'
p242
aS'open_JJ'
p243
aS'bottle_NN'
p244
aS'squeeze_NN'
p245
aa(lp246
S'bag_NN'
p247
aS'open_JJ'
p248
aS'faucet_NN'
p249
aS'turn_NN'
p250
aa(lp251
S'bag_NN'
p252
aS'open_JJ'
p253
aS'drawer_NN'
p254
aS'open_JJ'
p255
aa(lp256
S'bag_NN'
p257
aS'open_JJ'
p258
aS'bag_NN'
p259
aS'unzip_JJ'
p260
aa(lp261
S'bag_NN'
p262
aS'open_JJ'
p263
aS'banana_NN'
p264
aS'peel_NN'
p265
aa(lp266
S'bag_NN'
p267
aS'open_JJ'
p268
aS'peanut_NN'
p269
aS'shell_NN'
p270
aa(lp271
S'drawer_NN'
p272
aS'open_JJ'
p273
aS'jar_NN'
p274
aS'open_JJ'
p275
aa(lp276
S'drawer_NN'
p277
aS'open_JJ'
p278
aS'box_NN'
p279
aS'open_JJ'
p280
aa(lp281
S'drawer_NN'
p282
aS'open_JJ'
p283
aS'bottle_NN'
p284
aS'pour_VBP'
p285
aa(lp286
S'drawer_NN'
p287
aS'open_JJ'
p288
aS'bottle_NN'
p289
aS'squeeze_NN'
p290
aa(lp291
S'drawer_NN'
p292
aS'open_JJ'
p293
aS'faucet_NN'
p294
aS'turn_NN'
p295
aa(lp296
S'drawer_NN'
p297
aS'open_JJ'
p298
aS'bag_NN'
p299
aS'open_JJ'
p300
aa(lp301
S'drawer_NN'
p302
aS'open_JJ'
p303
aS'bag_NN'
p304
aS'unzip_JJ'
p305
aa(lp306
S'drawer_NN'
p307
aS'open_JJ'
p308
aS'banana_NN'
p309
aS'peel_NN'
p310
aa(lp311
S'drawer_NN'
p312
aS'open_JJ'
p313
aS'peanut_NN'
p314
aS'shell_NN'
p315
aa(lp316
S'bag_NN'
p317
aS'unzip_JJ'
p318
aS'jar_NN'
p319
aS'open_JJ'
p320
aa(lp321
S'bag_NN'
p322
aS'unzip_JJ'
p323
aS'box_NN'
p324
aS'open_JJ'
p325
aa(lp326
S'bag_NN'
p327
aS'unzip_JJ'
p328
aS'bottle_NN'
p329
aS'pour_VBP'
p330
aa(lp331
S'bag_NN'
p332
aS'unzip_JJ'
p333
aS'bottle_NN'
p334
aS'squeeze_NN'
p335
aa(lp336
S'bag_NN'
p337
aS'unzip_JJ'
p338
aS'faucet_NN'
p339
aS'turn_NN'
p340
aa(lp341
S'bag_NN'
p342
aS'unzip_JJ'
p343
aS'bag_NN'
p344
aS'open_JJ'
p345
aa(lp346
S'bag_NN'
p347
aS'unzip_JJ'
p348
aS'drawer_NN'
p349
aS'open_JJ'
p350
aa(lp351
S'bag_NN'
p352
aS'unzip_JJ'
p353
aS'banana_NN'
p354
aS'peel_NN'
p355
aa(lp356
S'bag_NN'
p357
aS'unzip_JJ'
p358
aS'peanut_NN'
p359
aS'shell_NN'
p360
aa(lp361
S'banana_NN'
p362
aS'peel_NN'
p363
aS'jar_NN'
p364
aS'open_JJ'
p365
aa(lp366
S'banana_NN'
p367
aS'peel_NN'
p368
aS'box_NN'
p369
aS'open_JJ'
p370
aa(lp371
S'banana_NN'
p372
aS'peel_NN'
p373
aS'bottle_NN'
p374
aS'pour_VBP'
p375
aa(lp376
S'banana_NN'
p377
aS'peel_NN'
p378
aS'bottle_NN'
p379
aS'squeeze_NN'
p380
aa(lp381
S'banana_NN'
p382
aS'peel_NN'
p383
aS'faucet_NN'
p384
aS'turn_NN'
p385
aa(lp386
S'banana_NN'
p387
aS'peel_NN'
p388
aS'bag_NN'
p389
aS'open_JJ'
p390
aa(lp391
S'banana_NN'
p392
aS'peel_NN'
p393
aS'drawer_NN'
p394
aS'open_JJ'
p395
aa(lp396
S'banana_NN'
p397
aS'peel_NN'
p398
aS'bag_NN'
p399
aS'unzip_JJ'
p400
aa(lp401
S'banana_NN'
p402
aS'peel_NN'
p403
aS'peanut_NN'
p404
aS'shell_NN'
p405
aa(lp406
S'peanut_NN'
p407
aS'shell_NN'
p408
aS'jar_NN'
p409
aS'open_JJ'
p410
aa(lp411
S'peanut_NN'
p412
aS'shell_NN'
p413
aS'box_NN'
p414
aS'open_JJ'
p415
aa(lp416
S'peanut_NN'
p417
aS'shell_NN'
p418
aS'bottle_NN'
p419
aS'pour_VBP'
p420
aa(lp421
S'peanut_NN'
p422
aS'shell_NN'
p423
aS'bottle_NN'
p424
aS'squeeze_NN'
p425
aa(lp426
S'peanut_NN'
p427
aS'shell_NN'
p428
aS'faucet_NN'
p429
aS'turn_NN'
p430
aa(lp431
S'peanut_NN'
p432
aS'shell_NN'
p433
aS'bag_NN'
p434
aS'open_JJ'
p435
aa(lp436
S'peanut_NN'
p437
aS'shell_NN'
p438
aS'drawer_NN'
p439
aS'open_JJ'
p440
aa(lp441
S'peanut_NN'
p442
aS'shell_NN'
p443
aS'bag_NN'
p444
aS'unzip_JJ'
p445
aa(lp446
S'peanut_NN'
p447
aS'shell_NN'
p448
aS'banana_NN'
p449
aS'peel_NN'
p450
aa.