(lp0
(lp1
S'open_VB'
p2
aS'jar_NN'
p3
aS'open_VB'
p4
aS'box_NN'
p5
aa(lp6
g2
ag3
aS'pour_VB'
p7
aS'bottle_NN'
p8
aa(lp9
g2
ag3
aS'peel_VB'
p10
aS'banana_NN'
p11
aa(lp12
g2
ag3
aS'shell_VB'
p13
aS'peanut_NN'
p14
aa(lp15
g2
ag3
aS'turn_VB'
p16
aS'faucet_NN'
p17
aa(lp18
g2
ag3
aS'open_VB'
p19
aS'bag_NN'
p20
aa(lp21
g2
ag3
aS'squeeze_VB'
p22
aS'bottle_NN'
p23
aa(lp24
g2
ag3
aS'open_VB'
p25
aS'drawer_NN'
p26
aa(lp27
g2
ag3
aS'unzip_VB'
p28
aS'bag_NN'
p29
aa(lp30
g2
ag3
aS'open_VB'
p31
aS'suitcase_NN'
p32
aa(lp33
g2
ag3
aS'unlock_VB'
p34
aS'safe_NN'
p35
aa(lp36
g2
ag3
aS'open_VB'
p37
aS'letter_NN'
p38
aa(lp39
g2
ag3
aS'pour_VB'
p40
aS'jug_NN'
p41
aa(lp42
g2
ag3
aS'pump_VB'
p43
aS'pump_NN'
p44
aa(lp45
g2
ag3
aS'open_VB'
p46
aS'present_NN'
p47
aa(lp48
g2
ag3
aS'unzip_VB'
p49
aS'backpack_NN'
p50
aa(lp51
g2
ag3
aS'untie_VB'
p52
aS'shoe_NN'
p53
aa(lp54
g2
ag3
aS'unwrap_VB'
p55
aS'candy_NN'
p56
aa(lp57
g2
ag3
aS'shell_VB'
p58
aS'walnut_NN'
p59
aa(lp60
g2
ag3
aS'shell_VB'
p61
aS'peas_NNS'
p62
aa(lp63
g4
ag5
ag2
ag3
aa(lp64
g4
ag5
ag7
ag8
aa(lp65
g4
ag5
ag10
ag11
aa(lp66
g4
ag5
ag13
ag14
aa(lp67
g4
ag5
ag16
ag17
aa(lp68
g4
ag5
ag19
ag20
aa(lp69
g4
ag5
ag22
ag23
aa(lp70
g4
ag5
ag25
ag26
aa(lp71
g4
ag5
ag28
ag29
aa(lp72
g4
ag5
ag31
ag32
aa(lp73
g4
ag5
ag34
ag35
aa(lp74
g4
ag5
ag37
ag38
aa(lp75
g4
ag5
ag40
ag41
aa(lp76
g4
ag5
ag43
ag44
aa(lp77
g4
ag5
ag46
ag47
aa(lp78
g4
ag5
ag49
ag50
aa(lp79
g4
ag5
ag52
ag53
aa(lp80
g4
ag5
ag55
ag56
aa(lp81
g4
ag5
ag58
ag59
aa(lp82
g4
ag5
ag61
ag62
aa(lp83
g7
ag8
ag2
ag3
aa(lp84
g7
ag8
ag4
ag5
aa(lp85
g7
ag8
ag10
ag11
aa(lp86
g7
ag8
ag13
ag14
aa(lp87
g7
ag8
ag16
ag17
aa(lp88
g7
ag8
ag19
ag20
aa(lp89
g7
ag8
ag22
ag23
aa(lp90
g7
ag8
ag25
ag26
aa(lp91
g7
ag8
ag28
ag29
aa(lp92
g7
ag8
ag31
ag32
aa(lp93
g7
ag8
ag34
ag35
aa(lp94
g7
ag8
ag37
ag38
aa(lp95
g7
ag8
ag40
ag41
aa(lp96
g7
ag8
ag43
ag44
aa(lp97
g7
ag8
ag46
ag47
aa(lp98
g7
ag8
ag49
ag50
aa(lp99
g7
ag8
ag52
ag53
aa(lp100
g7
ag8
ag55
ag56
aa(lp101
g7
ag8
ag58
ag59
aa(lp102
g7
ag8
ag61
ag62
aa(lp103
g10
ag11
ag2
ag3
aa(lp104
g10
ag11
ag4
ag5
aa(lp105
g10
ag11
ag7
ag8
aa(lp106
g10
ag11
ag13
ag14
aa(lp107
g10
ag11
ag16
ag17
aa(lp108
g10
ag11
ag19
ag20
aa(lp109
g10
ag11
ag22
ag23
aa(lp110
g10
ag11
ag25
ag26
aa(lp111
g10
ag11
ag28
ag29
aa(lp112
g10
ag11
ag31
ag32
aa(lp113
g10
ag11
ag34
ag35
aa(lp114
g10
ag11
ag37
ag38
aa(lp115
g10
ag11
ag40
ag41
aa(lp116
g10
ag11
ag43
ag44
aa(lp117
g10
ag11
ag46
ag47
aa(lp118
g10
ag11
ag49
ag50
aa(lp119
g10
ag11
ag52
ag53
aa(lp120
g10
ag11
ag55
ag56
aa(lp121
g10
ag11
ag58
ag59
aa(lp122
g10
ag11
ag61
ag62
aa(lp123
g13
ag14
ag2
ag3
aa(lp124
g13
ag14
ag4
ag5
aa(lp125
g13
ag14
ag7
ag8
aa(lp126
g13
ag14
ag10
ag11
aa(lp127
g13
ag14
ag16
ag17
aa(lp128
g13
ag14
ag19
ag20
aa(lp129
g13
ag14
ag22
ag23
aa(lp130
g13
ag14
ag25
ag26
aa(lp131
g13
ag14
ag28
ag29
aa(lp132
g13
ag14
ag31
ag32
aa(lp133
g13
ag14
ag34
ag35
aa(lp134
g13
ag14
ag37
ag38
aa(lp135
g13
ag14
ag40
ag41
aa(lp136
g13
ag14
ag43
ag44
aa(lp137
g13
ag14
ag46
ag47
aa(lp138
g13
ag14
ag49
ag50
aa(lp139
g13
ag14
ag52
ag53
aa(lp140
g13
ag14
ag55
ag56
aa(lp141
g13
ag14
ag58
ag59
aa(lp142
g13
ag14
ag61
ag62
aa(lp143
g16
ag17
ag2
ag3
aa(lp144
g16
ag17
ag4
ag5
aa(lp145
g16
ag17
ag7
ag8
aa(lp146
g16
ag17
ag10
ag11
aa(lp147
g16
ag17
ag13
ag14
aa(lp148
g16
ag17
ag19
ag20
aa(lp149
g16
ag17
ag22
ag23
aa(lp150
g16
ag17
ag25
ag26
aa(lp151
g16
ag17
ag28
ag29
aa(lp152
g16
ag17
ag31
ag32
aa(lp153
g16
ag17
ag34
ag35
aa(lp154
g16
ag17
ag37
ag38
aa(lp155
g16
ag17
ag40
ag41
aa(lp156
g16
ag17
ag43
ag44
aa(lp157
g16
ag17
ag46
ag47
aa(lp158
g16
ag17
ag49
ag50
aa(lp159
g16
ag17
ag52
ag53
aa(lp160
g16
ag17
ag55
ag56
aa(lp161
g16
ag17
ag58
ag59
aa(lp162
g16
ag17
ag61
ag62
aa(lp163
g19
ag20
ag2
ag3
aa(lp164
g19
ag20
ag4
ag5
aa(lp165
g19
ag20
ag7
ag8
aa(lp166
g19
ag20
ag10
ag11
aa(lp167
g19
ag20
ag13
ag14
aa(lp168
g19
ag20
ag16
ag17
aa(lp169
g19
ag20
ag22
ag23
aa(lp170
g19
ag20
ag25
ag26
aa(lp171
g19
ag20
ag28
ag29
aa(lp172
g19
ag20
ag31
ag32
aa(lp173
g19
ag20
ag34
ag35
aa(lp174
g19
ag20
ag37
ag38
aa(lp175
g19
ag20
ag40
ag41
aa(lp176
g19
ag20
ag43
ag44
aa(lp177
g19
ag20
ag46
ag47
aa(lp178
g19
ag20
ag49
ag50
aa(lp179
g19
ag20
ag52
ag53
aa(lp180
g19
ag20
ag55
ag56
aa(lp181
g19
ag20
ag58
ag59
aa(lp182
g19
ag20
ag61
ag62
aa(lp183
g22
ag23
ag2
ag3
aa(lp184
g22
ag23
ag4
ag5
aa(lp185
g22
ag23
ag7
ag8
aa(lp186
g22
ag23
ag10
ag11
aa(lp187
g22
ag23
ag13
ag14
aa(lp188
g22
ag23
ag16
ag17
aa(lp189
g22
ag23
ag19
ag20
aa(lp190
g22
ag23
ag25
ag26
aa(lp191
g22
ag23
ag28
ag29
aa(lp192
g22
ag23
ag31
ag32
aa(lp193
g22
ag23
ag34
ag35
aa(lp194
g22
ag23
ag37
ag38
aa(lp195
g22
ag23
ag40
ag41
aa(lp196
g22
ag23
ag43
ag44
aa(lp197
g22
ag23
ag46
ag47
aa(lp198
g22
ag23
ag49
ag50
aa(lp199
g22
ag23
ag52
ag53
aa(lp200
g22
ag23
ag55
ag56
aa(lp201
g22
ag23
ag58
ag59
aa(lp202
g22
ag23
ag61
ag62
aa(lp203
g25
ag26
ag2
ag3
aa(lp204
g25
ag26
ag4
ag5
aa(lp205
g25
ag26
ag7
ag8
aa(lp206
g25
ag26
ag10
ag11
aa(lp207
g25
ag26
ag13
ag14
aa(lp208
g25
ag26
ag16
ag17
aa(lp209
g25
ag26
ag19
ag20
aa(lp210
g25
ag26
ag22
ag23
aa(lp211
g25
ag26
ag28
ag29
aa(lp212
g25
ag26
ag31
ag32
aa(lp213
g25
ag26
ag34
ag35
aa(lp214
g25
ag26
ag37
ag38
aa(lp215
g25
ag26
ag40
ag41
aa(lp216
g25
ag26
ag43
ag44
aa(lp217
g25
ag26
ag46
ag47
aa(lp218
g25
ag26
ag49
ag50
aa(lp219
g25
ag26
ag52
ag53
aa(lp220
g25
ag26
ag55
ag56
aa(lp221
g25
ag26
ag58
ag59
aa(lp222
g25
ag26
ag61
ag62
aa(lp223
g28
ag29
ag2
ag3
aa(lp224
g28
ag29
ag4
ag5
aa(lp225
g28
ag29
ag7
ag8
aa(lp226
g28
ag29
ag10
ag11
aa(lp227
g28
ag29
ag13
ag14
aa(lp228
g28
ag29
ag16
ag17
aa(lp229
g28
ag29
ag19
ag20
aa(lp230
g28
ag29
ag22
ag23
aa(lp231
g28
ag29
ag25
ag26
aa(lp232
g28
ag29
ag31
ag32
aa(lp233
g28
ag29
ag34
ag35
aa(lp234
g28
ag29
ag37
ag38
aa(lp235
g28
ag29
ag40
ag41
aa(lp236
g28
ag29
ag43
ag44
aa(lp237
g28
ag29
ag46
ag47
aa(lp238
g28
ag29
ag49
ag50
aa(lp239
g28
ag29
ag52
ag53
aa(lp240
g28
ag29
ag55
ag56
aa(lp241
g28
ag29
ag58
ag59
aa(lp242
g28
ag29
ag61
ag62
aa(lp243
g31
ag32
ag2
ag3
aa(lp244
g31
ag32
ag4
ag5
aa(lp245
g31
ag32
ag7
ag8
aa(lp246
g31
ag32
ag10
ag11
aa(lp247
g31
ag32
ag13
ag14
aa(lp248
g31
ag32
ag16
ag17
aa(lp249
g31
ag32
ag19
ag20
aa(lp250
g31
ag32
ag22
ag23
aa(lp251
g31
ag32
ag25
ag26
aa(lp252
g31
ag32
ag28
ag29
aa(lp253
g31
ag32
ag34
ag35
aa(lp254
g31
ag32
ag37
ag38
aa(lp255
g31
ag32
ag40
ag41
aa(lp256
g31
ag32
ag43
ag44
aa(lp257
g31
ag32
ag46
ag47
aa(lp258
g31
ag32
ag49
ag50
aa(lp259
g31
ag32
ag52
ag53
aa(lp260
g31
ag32
ag55
ag56
aa(lp261
g31
ag32
ag58
ag59
aa(lp262
g31
ag32
ag61
ag62
aa(lp263
g34
ag35
ag2
ag3
aa(lp264
g34
ag35
ag4
ag5
aa(lp265
g34
ag35
ag7
ag8
aa(lp266
g34
ag35
ag10
ag11
aa(lp267
g34
ag35
ag13
ag14
aa(lp268
g34
ag35
ag16
ag17
aa(lp269
g34
ag35
ag19
ag20
aa(lp270
g34
ag35
ag22
ag23
aa(lp271
g34
ag35
ag25
ag26
aa(lp272
g34
ag35
ag28
ag29
aa(lp273
g34
ag35
ag31
ag32
aa(lp274
g34
ag35
ag37
ag38
aa(lp275
g34
ag35
ag40
ag41
aa(lp276
g34
ag35
ag43
ag44
aa(lp277
g34
ag35
ag46
ag47
aa(lp278
g34
ag35
ag49
ag50
aa(lp279
g34
ag35
ag52
ag53
aa(lp280
g34
ag35
ag55
ag56
aa(lp281
g34
ag35
ag58
ag59
aa(lp282
g34
ag35
ag61
ag62
aa(lp283
g37
ag38
ag2
ag3
aa(lp284
g37
ag38
ag4
ag5
aa(lp285
g37
ag38
ag7
ag8
aa(lp286
g37
ag38
ag10
ag11
aa(lp287
g37
ag38
ag13
ag14
aa(lp288
g37
ag38
ag16
ag17
aa(lp289
g37
ag38
ag19
ag20
aa(lp290
g37
ag38
ag22
ag23
aa(lp291
g37
ag38
ag25
ag26
aa(lp292
g37
ag38
ag28
ag29
aa(lp293
g37
ag38
ag31
ag32
aa(lp294
g37
ag38
ag34
ag35
aa(lp295
g37
ag38
ag40
ag41
aa(lp296
g37
ag38
ag43
ag44
aa(lp297
g37
ag38
ag46
ag47
aa(lp298
g37
ag38
ag49
ag50
aa(lp299
g37
ag38
ag52
ag53
aa(lp300
g37
ag38
ag55
ag56
aa(lp301
g37
ag38
ag58
ag59
aa(lp302
g37
ag38
ag61
ag62
aa(lp303
g40
ag41
ag2
ag3
aa(lp304
g40
ag41
ag4
ag5
aa(lp305
g40
ag41
ag7
ag8
aa(lp306
g40
ag41
ag10
ag11
aa(lp307
g40
ag41
ag13
ag14
aa(lp308
g40
ag41
ag16
ag17
aa(lp309
g40
ag41
ag19
ag20
aa(lp310
g40
ag41
ag22
ag23
aa(lp311
g40
ag41
ag25
ag26
aa(lp312
g40
ag41
ag28
ag29
aa(lp313
g40
ag41
ag31
ag32
aa(lp314
g40
ag41
ag34
ag35
aa(lp315
g40
ag41
ag37
ag38
aa(lp316
g40
ag41
ag43
ag44
aa(lp317
g40
ag41
ag46
ag47
aa(lp318
g40
ag41
ag49
ag50
aa(lp319
g40
ag41
ag52
ag53
aa(lp320
g40
ag41
ag55
ag56
aa(lp321
g40
ag41
ag58
ag59
aa(lp322
g40
ag41
ag61
ag62
aa(lp323
g43
ag44
ag2
ag3
aa(lp324
g43
ag44
ag4
ag5
aa(lp325
g43
ag44
ag7
ag8
aa(lp326
g43
ag44
ag10
ag11
aa(lp327
g43
ag44
ag13
ag14
aa(lp328
g43
ag44
ag16
ag17
aa(lp329
g43
ag44
ag19
ag20
aa(lp330
g43
ag44
ag22
ag23
aa(lp331
g43
ag44
ag25
ag26
aa(lp332
g43
ag44
ag28
ag29
aa(lp333
g43
ag44
ag31
ag32
aa(lp334
g43
ag44
ag34
ag35
aa(lp335
g43
ag44
ag37
ag38
aa(lp336
g43
ag44
ag40
ag41
aa(lp337
g43
ag44
ag46
ag47
aa(lp338
g43
ag44
ag49
ag50
aa(lp339
g43
ag44
ag52
ag53
aa(lp340
g43
ag44
ag55
ag56
aa(lp341
g43
ag44
ag58
ag59
aa(lp342
g43
ag44
ag61
ag62
aa(lp343
g46
ag47
ag2
ag3
aa(lp344
g46
ag47
ag4
ag5
aa(lp345
g46
ag47
ag7
ag8
aa(lp346
g46
ag47
ag10
ag11
aa(lp347
g46
ag47
ag13
ag14
aa(lp348
g46
ag47
ag16
ag17
aa(lp349
g46
ag47
ag19
ag20
aa(lp350
g46
ag47
ag22
ag23
aa(lp351
g46
ag47
ag25
ag26
aa(lp352
g46
ag47
ag28
ag29
aa(lp353
g46
ag47
ag31
ag32
aa(lp354
g46
ag47
ag34
ag35
aa(lp355
g46
ag47
ag37
ag38
aa(lp356
g46
ag47
ag40
ag41
aa(lp357
g46
ag47
ag43
ag44
aa(lp358
g46
ag47
ag49
ag50
aa(lp359
g46
ag47
ag52
ag53
aa(lp360
g46
ag47
ag55
ag56
aa(lp361
g46
ag47
ag58
ag59
aa(lp362
g46
ag47
ag61
ag62
aa(lp363
g49
ag50
ag2
ag3
aa(lp364
g49
ag50
ag4
ag5
aa(lp365
g49
ag50
ag7
ag8
aa(lp366
g49
ag50
ag10
ag11
aa(lp367
g49
ag50
ag13
ag14
aa(lp368
g49
ag50
ag16
ag17
aa(lp369
g49
ag50
ag19
ag20
aa(lp370
g49
ag50
ag22
ag23
aa(lp371
g49
ag50
ag25
ag26
aa(lp372
g49
ag50
ag28
ag29
aa(lp373
g49
ag50
ag31
ag32
aa(lp374
g49
ag50
ag34
ag35
aa(lp375
g49
ag50
ag37
ag38
aa(lp376
g49
ag50
ag40
ag41
aa(lp377
g49
ag50
ag43
ag44
aa(lp378
g49
ag50
ag46
ag47
aa(lp379
g49
ag50
ag52
ag53
aa(lp380
g49
ag50
ag55
ag56
aa(lp381
g49
ag50
ag58
ag59
aa(lp382
g49
ag50
ag61
ag62
aa(lp383
g52
ag53
ag2
ag3
aa(lp384
g52
ag53
ag4
ag5
aa(lp385
g52
ag53
ag7
ag8
aa(lp386
g52
ag53
ag10
ag11
aa(lp387
g52
ag53
ag13
ag14
aa(lp388
g52
ag53
ag16
ag17
aa(lp389
g52
ag53
ag19
ag20
aa(lp390
g52
ag53
ag22
ag23
aa(lp391
g52
ag53
ag25
ag26
aa(lp392
g52
ag53
ag28
ag29
aa(lp393
g52
ag53
ag31
ag32
aa(lp394
g52
ag53
ag34
ag35
aa(lp395
g52
ag53
ag37
ag38
aa(lp396
g52
ag53
ag40
ag41
aa(lp397
g52
ag53
ag43
ag44
aa(lp398
g52
ag53
ag46
ag47
aa(lp399
g52
ag53
ag49
ag50
aa(lp400
g52
ag53
ag55
ag56
aa(lp401
g52
ag53
ag58
ag59
aa(lp402
g52
ag53
ag61
ag62
aa(lp403
g55
ag56
ag2
ag3
aa(lp404
g55
ag56
ag4
ag5
aa(lp405
g55
ag56
ag7
ag8
aa(lp406
g55
ag56
ag10
ag11
aa(lp407
g55
ag56
ag13
ag14
aa(lp408
g55
ag56
ag16
ag17
aa(lp409
g55
ag56
ag19
ag20
aa(lp410
g55
ag56
ag22
ag23
aa(lp411
g55
ag56
ag25
ag26
aa(lp412
g55
ag56
ag28
ag29
aa(lp413
g55
ag56
ag31
ag32
aa(lp414
g55
ag56
ag34
ag35
aa(lp415
g55
ag56
ag37
ag38
aa(lp416
g55
ag56
ag40
ag41
aa(lp417
g55
ag56
ag43
ag44
aa(lp418
g55
ag56
ag46
ag47
aa(lp419
g55
ag56
ag49
ag50
aa(lp420
g55
ag56
ag52
ag53
aa(lp421
g55
ag56
ag58
ag59
aa(lp422
g55
ag56
ag61
ag62
aa(lp423
g58
ag59
ag2
ag3
aa(lp424
g58
ag59
ag4
ag5
aa(lp425
g58
ag59
ag7
ag8
aa(lp426
g58
ag59
ag10
ag11
aa(lp427
g58
ag59
ag13
ag14
aa(lp428
g58
ag59
ag16
ag17
aa(lp429
g58
ag59
ag19
ag20
aa(lp430
g58
ag59
ag22
ag23
aa(lp431
g58
ag59
ag25
ag26
aa(lp432
g58
ag59
ag28
ag29
aa(lp433
g58
ag59
ag31
ag32
aa(lp434
g58
ag59
ag34
ag35
aa(lp435
g58
ag59
ag37
ag38
aa(lp436
g58
ag59
ag40
ag41
aa(lp437
g58
ag59
ag43
ag44
aa(lp438
g58
ag59
ag46
ag47
aa(lp439
g58
ag59
ag49
ag50
aa(lp440
g58
ag59
ag52
ag53
aa(lp441
g58
ag59
ag55
ag56
aa(lp442
g58
ag59
ag61
ag62
aa(lp443
g61
ag62
ag2
ag3
aa(lp444
g61
ag62
ag4
ag5
aa(lp445
g61
ag62
ag7
ag8
aa(lp446
g61
ag62
ag10
ag11
aa(lp447
g61
ag62
ag13
ag14
aa(lp448
g61
ag62
ag16
ag17
aa(lp449
g61
ag62
ag19
ag20
aa(lp450
g61
ag62
ag22
ag23
aa(lp451
g61
ag62
ag25
ag26
aa(lp452
g61
ag62
ag28
ag29
aa(lp453
g61
ag62
ag31
ag32
aa(lp454
g61
ag62
ag34
ag35
aa(lp455
g61
ag62
ag37
ag38
aa(lp456
g61
ag62
ag40
ag41
aa(lp457
g61
ag62
ag43
ag44
aa(lp458
g61
ag62
ag46
ag47
aa(lp459
g61
ag62
ag49
ag50
aa(lp460
g61
ag62
ag52
ag53
aa(lp461
g61
ag62
ag55
ag56
aa(lp462
g61
ag62
ag58
ag59
aa.