(lp0
(lp1
S'sing_VB'
p2
aS'song_NN'
p3
aS'drink_NN'
p4
aS'water_NN'
p5
aa(lp6
S'sing_VB'
p7
aS'song_NN'
p8
aS'read_VB'
p9
aS'book_NN'
p10
aa(lp11
S'sing_VB'
p12
aS'song_NN'
p13
aS'eat_VB'
p14
aS'food_NN'
p15
aa(lp16
S'sing_VB'
p17
aS'song_NN'
p18
aS'wear_VB'
p19
aS'coat_NN'
p20
aa(lp21
S'sing_VB'
p22
aS'song_NN'
p23
aS'drive_NN'
p24
aS'car_NN'
p25
aa(lp26
S'sing_VB'
p27
aS'song_NN'
p28
aS'ride_NN'
p29
aS'horse_NN'
p30
aa(lp31
S'sing_VB'
p32
aS'song_NN'
p33
aS'give_VB'
p34
aS'gift_NN'
p35
aa(lp36
S'sing_VB'
p37
aS'song_NN'
p38
aS'attack_NN'
p39
aS'enemy_NN'
p40
aa(lp41
S'sing_VB'
p42
aS'song_NN'
p43
aS'say_VB'
p44
aS'word_NN'
p45
aa(lp46
S'sing_VB'
p47
aS'song_NN'
p48
aS'open_JJ'
p49
aS'door_NN'
p50
aa(lp51
S'sing_VB'
p52
aS'song_NN'
p53
aS'climb_VB'
p54
aS'tree_NN'
p55
aa(lp56
S'sing_VB'
p57
aS'song_NN'
p58
aS'heal_VB'
p59
aS'wound_NN'
p60
aa(lp61
S'sing_VB'
p62
aS'song_NN'
p63
aS'cure_NN'
p64
aS'disease_NN'
p65
aa(lp66
S'sing_VB'
p67
aS'song_NN'
p68
aS'paint_NN'
p69
aS'picture_NN'
p70
aa(lp71
S'sing_VB'
p72
aS'song_NN'
p73
aS'operate_VB'
p74
aS'machine_NN'
p75
aa(lp76
S'sing_VB'
p77
aS'song_NN'
p78
aS'climb_VB'
p79
aS'ladder_NN'
p80
aa(lp81
S'sing_VB'
p82
aS'song_NN'
p83
aS'play_VB'
p84
aS'game_NN'
p85
aa(lp86
S'sing_VB'
p87
aS'song_NN'
p88
aS'pursue_VB'
p89
aS'quarry_NN'
p90
aa(lp91
S'sing_VB'
p92
aS'song_NN'
p93
aS'shoot_VB'
p94
aS'gun_NN'
p95
aa(lp96
S'sing_VB'
p97
aS'song_NN'
p98
aS'sail_NN'
p99
aS'boat_NN'
p100
aa(lp101
S'sing_VB'
p102
aS'song_NN'
p103
aS'brush_NN'
p104
aS'hair_NN'
p105
aa(lp106
S'sing_VB'
p107
aS'song_NN'
p108
aS'write_VB'
p109
aS'letter_NN'
p110
aa(lp111
S'sing_VB'
p112
aS'song_NN'
p113
aS'say_VB'
p114
aS'word_NN'
p115
aa(lp116
S'sing_VB'
p117
aS'song_NN'
p118
aS'wield_VB'
p119
aS'sword_NN'
p120
aa(lp121
S'sing_VB'
p122
aS'song_NN'
p123
aS'carry_VB'
p124
aS'burden_NN'
p125
aa(lp126
S'sing_VB'
p127
aS'song_NN'
p128
aS'wash_NN'
p129
aS'dishes_NNS'
p130
aa(lp131
S'sing_VB'
p132
aS'song_NN'
p133
aS'swallow_NN'
p134
aS'pill_NN'
p135
aa(lp136
S'sing_VB'
p137
aS'song_NN'
p138
aS'swear_VB'
p139
aS'oath_NN'
p140
aa(lp141
S'sing_VB'
p142
aS'song_NN'
p143
aS'elect_VB'
p144
aS'president_NN'
p145
aa(lp146
S'sing_VB'
p147
aS'song_NN'
p148
aS'hire_VB'
p149
aS'employee_NN'
p150
aa(lp151
S'sing_VB'
p152
aS'song_NN'
p153
aS'compose_VB'
p154
aS'symphony_NN'
p155
aa(lp156
S'sing_VB'
p157
aS'song_NN'
p158
aS'pet_NN'
p159
aS'cat_NN'
p160
aa(lp161
S'sing_VB'
p162
aS'song_NN'
p163
aS'swat_NN'
p164
aS'fly_VB'
p165
aa(lp166
S'sing_VB'
p167
aS'song_NN'
p168
aS'send_VB'
p169
aS'message_NN'
p170
aa(lp171
S'drink_NN'
p172
aS'water_NN'
p173
aS'sing_VB'
p174
aS'song_NN'
p175
aa(lp176
S'drink_NN'
p177
aS'water_NN'
p178
aS'read_VB'
p179
aS'book_NN'
p180
aa(lp181
S'drink_NN'
p182
aS'water_NN'
p183
aS'eat_VB'
p184
aS'food_NN'
p185
aa(lp186
S'drink_NN'
p187
aS'water_NN'
p188
aS'wear_VB'
p189
aS'coat_NN'
p190
aa(lp191
S'drink_NN'
p192
aS'water_NN'
p193
aS'drive_NN'
p194
aS'car_NN'
p195
aa(lp196
S'drink_NN'
p197
aS'water_NN'
p198
aS'ride_NN'
p199
aS'horse_NN'
p200
aa(lp201
S'drink_NN'
p202
aS'water_NN'
p203
aS'give_VB'
p204
aS'gift_NN'
p205
aa(lp206
S'drink_NN'
p207
aS'water_NN'
p208
aS'attack_NN'
p209
aS'enemy_NN'
p210
aa(lp211
S'drink_NN'
p212
aS'water_NN'
p213
aS'say_VB'
p214
aS'word_NN'
p215
aa(lp216
S'drink_NN'
p217
aS'water_NN'
p218
aS'open_JJ'
p219
aS'door_NN'
p220
aa(lp221
S'drink_NN'
p222
aS'water_NN'
p223
aS'climb_VB'
p224
aS'tree_NN'
p225
aa(lp226
S'drink_NN'
p227
aS'water_NN'
p228
aS'heal_VB'
p229
aS'wound_NN'
p230
aa(lp231
S'drink_NN'
p232
aS'water_NN'
p233
aS'cure_NN'
p234
aS'disease_NN'
p235
aa(lp236
S'drink_NN'
p237
aS'water_NN'
p238
aS'paint_NN'
p239
aS'picture_NN'
p240
aa(lp241
S'drink_NN'
p242
aS'water_NN'
p243
aS'operate_VB'
p244
aS'machine_NN'
p245
aa(lp246
S'drink_NN'
p247
aS'water_NN'
p248
aS'climb_VB'
p249
aS'ladder_NN'
p250
aa(lp251
S'drink_NN'
p252
aS'water_NN'
p253
aS'play_VB'
p254
aS'game_NN'
p255
aa(lp256
S'drink_NN'
p257
aS'water_NN'
p258
aS'pursue_VB'
p259
aS'quarry_NN'
p260
aa(lp261
S'drink_NN'
p262
aS'water_NN'
p263
aS'shoot_VB'
p264
aS'gun_NN'
p265
aa(lp266
S'drink_NN'
p267
aS'water_NN'
p268
aS'sail_NN'
p269
aS'boat_NN'
p270
aa(lp271
S'drink_NN'
p272
aS'water_NN'
p273
aS'brush_NN'
p274
aS'hair_NN'
p275
aa(lp276
S'drink_NN'
p277
aS'water_NN'
p278
aS'write_VB'
p279
aS'letter_NN'
p280
aa(lp281
S'drink_NN'
p282
aS'water_NN'
p283
aS'say_VB'
p284
aS'word_NN'
p285
aa(lp286
S'drink_NN'
p287
aS'water_NN'
p288
aS'wield_VB'
p289
aS'sword_NN'
p290
aa(lp291
S'drink_NN'
p292
aS'water_NN'
p293
aS'carry_VB'
p294
aS'burden_NN'
p295
aa(lp296
S'drink_NN'
p297
aS'water_NN'
p298
aS'wash_NN'
p299
aS'dishes_NNS'
p300
aa(lp301
S'drink_NN'
p302
aS'water_NN'
p303
aS'swallow_NN'
p304
aS'pill_NN'
p305
aa(lp306
S'drink_NN'
p307
aS'water_NN'
p308
aS'swear_VB'
p309
aS'oath_NN'
p310
aa(lp311
S'drink_NN'
p312
aS'water_NN'
p313
aS'elect_VB'
p314
aS'president_NN'
p315
aa(lp316
S'drink_NN'
p317
aS'water_NN'
p318
aS'hire_VB'
p319
aS'employee_NN'
p320
aa(lp321
S'drink_NN'
p322
aS'water_NN'
p323
aS'compose_VB'
p324
aS'symphony_NN'
p325
aa(lp326
S'drink_NN'
p327
aS'water_NN'
p328
aS'pet_NN'
p329
aS'cat_NN'
p330
aa(lp331
S'drink_NN'
p332
aS'water_NN'
p333
aS'swat_NN'
p334
aS'fly_VB'
p335
aa(lp336
S'drink_NN'
p337
aS'water_NN'
p338
aS'send_VB'
p339
aS'message_NN'
p340
aa(lp341
S'read_VB'
p342
aS'book_NN'
p343
aS'sing_VB'
p344
aS'song_NN'
p345
aa(lp346
S'read_VB'
p347
aS'book_NN'
p348
aS'drink_NN'
p349
aS'water_NN'
p350
aa(lp351
S'read_VB'
p352
aS'book_NN'
p353
aS'eat_VB'
p354
aS'food_NN'
p355
aa(lp356
S'read_VB'
p357
aS'book_NN'
p358
aS'wear_VB'
p359
aS'coat_NN'
p360
aa(lp361
S'read_VB'
p362
aS'book_NN'
p363
aS'drive_NN'
p364
aS'car_NN'
p365
aa(lp366
S'read_VB'
p367
aS'book_NN'
p368
aS'ride_NN'
p369
aS'horse_NN'
p370
aa(lp371
S'read_VB'
p372
aS'book_NN'
p373
aS'give_VB'
p374
aS'gift_NN'
p375
aa(lp376
S'read_VB'
p377
aS'book_NN'
p378
aS'attack_NN'
p379
aS'enemy_NN'
p380
aa(lp381
S'read_VB'
p382
aS'book_NN'
p383
aS'say_VB'
p384
aS'word_NN'
p385
aa(lp386
S'read_VB'
p387
aS'book_NN'
p388
aS'open_JJ'
p389
aS'door_NN'
p390
aa(lp391
S'read_VB'
p392
aS'book_NN'
p393
aS'climb_VB'
p394
aS'tree_NN'
p395
aa(lp396
S'read_VB'
p397
aS'book_NN'
p398
aS'heal_VB'
p399
aS'wound_NN'
p400
aa(lp401
S'read_VB'
p402
aS'book_NN'
p403
aS'cure_NN'
p404
aS'disease_NN'
p405
aa(lp406
S'read_VB'
p407
aS'book_NN'
p408
aS'paint_NN'
p409
aS'picture_NN'
p410
aa(lp411
S'read_VB'
p412
aS'book_NN'
p413
aS'operate_VB'
p414
aS'machine_NN'
p415
aa(lp416
S'read_VB'
p417
aS'book_NN'
p418
aS'climb_VB'
p419
aS'ladder_NN'
p420
aa(lp421
S'read_VB'
p422
aS'book_NN'
p423
aS'play_VB'
p424
aS'game_NN'
p425
aa(lp426
S'read_VB'
p427
aS'book_NN'
p428
aS'pursue_VB'
p429
aS'quarry_NN'
p430
aa(lp431
S'read_VB'
p432
aS'book_NN'
p433
aS'shoot_VB'
p434
aS'gun_NN'
p435
aa(lp436
S'read_VB'
p437
aS'book_NN'
p438
aS'sail_NN'
p439
aS'boat_NN'
p440
aa(lp441
S'read_VB'
p442
aS'book_NN'
p443
aS'brush_NN'
p444
aS'hair_NN'
p445
aa(lp446
S'read_VB'
p447
aS'book_NN'
p448
aS'write_VB'
p449
aS'letter_NN'
p450
aa(lp451
S'read_VB'
p452
aS'book_NN'
p453
aS'say_VB'
p454
aS'word_NN'
p455
aa(lp456
S'read_VB'
p457
aS'book_NN'
p458
aS'wield_VB'
p459
aS'sword_NN'
p460
aa(lp461
S'read_VB'
p462
aS'book_NN'
p463
aS'carry_VB'
p464
aS'burden_NN'
p465
aa(lp466
S'read_VB'
p467
aS'book_NN'
p468
aS'wash_NN'
p469
aS'dishes_NNS'
p470
aa(lp471
S'read_VB'
p472
aS'book_NN'
p473
aS'swallow_NN'
p474
aS'pill_NN'
p475
aa(lp476
S'read_VB'
p477
aS'book_NN'
p478
aS'swear_VB'
p479
aS'oath_NN'
p480
aa(lp481
S'read_VB'
p482
aS'book_NN'
p483
aS'elect_VB'
p484
aS'president_NN'
p485
aa(lp486
S'read_VB'
p487
aS'book_NN'
p488
aS'hire_VB'
p489
aS'employee_NN'
p490
aa(lp491
S'read_VB'
p492
aS'book_NN'
p493
aS'compose_VB'
p494
aS'symphony_NN'
p495
aa(lp496
S'read_VB'
p497
aS'book_NN'
p498
aS'pet_NN'
p499
aS'cat_NN'
p500
aa(lp501
S'read_VB'
p502
aS'book_NN'
p503
aS'swat_NN'
p504
aS'fly_VB'
p505
aa(lp506
S'read_VB'
p507
aS'book_NN'
p508
aS'send_VB'
p509
aS'message_NN'
p510
aa(lp511
S'eat_VB'
p512
aS'food_NN'
p513
aS'sing_VB'
p514
aS'song_NN'
p515
aa(lp516
S'eat_VB'
p517
aS'food_NN'
p518
aS'drink_NN'
p519
aS'water_NN'
p520
aa(lp521
S'eat_VB'
p522
aS'food_NN'
p523
aS'read_VB'
p524
aS'book_NN'
p525
aa(lp526
S'eat_VB'
p527
aS'food_NN'
p528
aS'wear_VB'
p529
aS'coat_NN'
p530
aa(lp531
S'eat_VB'
p532
aS'food_NN'
p533
aS'drive_NN'
p534
aS'car_NN'
p535
aa(lp536
S'eat_VB'
p537
aS'food_NN'
p538
aS'ride_NN'
p539
aS'horse_NN'
p540
aa(lp541
S'eat_VB'
p542
aS'food_NN'
p543
aS'give_VB'
p544
aS'gift_NN'
p545
aa(lp546
S'eat_VB'
p547
aS'food_NN'
p548
aS'attack_NN'
p549
aS'enemy_NN'
p550
aa(lp551
S'eat_VB'
p552
aS'food_NN'
p553
aS'say_VB'
p554
aS'word_NN'
p555
aa(lp556
S'eat_VB'
p557
aS'food_NN'
p558
aS'open_JJ'
p559
aS'door_NN'
p560
aa(lp561
S'eat_VB'
p562
aS'food_NN'
p563
aS'climb_VB'
p564
aS'tree_NN'
p565
aa(lp566
S'eat_VB'
p567
aS'food_NN'
p568
aS'heal_VB'
p569
aS'wound_NN'
p570
aa(lp571
S'eat_VB'
p572
aS'food_NN'
p573
aS'cure_NN'
p574
aS'disease_NN'
p575
aa(lp576
S'eat_VB'
p577
aS'food_NN'
p578
aS'paint_NN'
p579
aS'picture_NN'
p580
aa(lp581
S'eat_VB'
p582
aS'food_NN'
p583
aS'operate_VB'
p584
aS'machine_NN'
p585
aa(lp586
S'eat_VB'
p587
aS'food_NN'
p588
aS'climb_VB'
p589
aS'ladder_NN'
p590
aa(lp591
S'eat_VB'
p592
aS'food_NN'
p593
aS'play_VB'
p594
aS'game_NN'
p595
aa(lp596
S'eat_VB'
p597
aS'food_NN'
p598
aS'pursue_VB'
p599
aS'quarry_NN'
p600
aa(lp601
S'eat_VB'
p602
aS'food_NN'
p603
aS'shoot_VB'
p604
aS'gun_NN'
p605
aa(lp606
S'eat_VB'
p607
aS'food_NN'
p608
aS'sail_NN'
p609
aS'boat_NN'
p610
aa(lp611
S'eat_VB'
p612
aS'food_NN'
p613
aS'brush_NN'
p614
aS'hair_NN'
p615
aa(lp616
S'eat_VB'
p617
aS'food_NN'
p618
aS'write_VB'
p619
aS'letter_NN'
p620
aa(lp621
S'eat_VB'
p622
aS'food_NN'
p623
aS'say_VB'
p624
aS'word_NN'
p625
aa(lp626
S'eat_VB'
p627
aS'food_NN'
p628
aS'wield_VB'
p629
aS'sword_NN'
p630
aa(lp631
S'eat_VB'
p632
aS'food_NN'
p633
aS'carry_VB'
p634
aS'burden_NN'
p635
aa(lp636
S'eat_VB'
p637
aS'food_NN'
p638
aS'wash_NN'
p639
aS'dishes_NNS'
p640
aa(lp641
S'eat_VB'
p642
aS'food_NN'
p643
aS'swallow_NN'
p644
aS'pill_NN'
p645
aa(lp646
S'eat_VB'
p647
aS'food_NN'
p648
aS'swear_VB'
p649
aS'oath_NN'
p650
aa(lp651
S'eat_VB'
p652
aS'food_NN'
p653
aS'elect_VB'
p654
aS'president_NN'
p655
aa(lp656
S'eat_VB'
p657
aS'food_NN'
p658
aS'hire_VB'
p659
aS'employee_NN'
p660
aa(lp661
S'eat_VB'
p662
aS'food_NN'
p663
aS'compose_VB'
p664
aS'symphony_NN'
p665
aa(lp666
S'eat_VB'
p667
aS'food_NN'
p668
aS'pet_NN'
p669
aS'cat_NN'
p670
aa(lp671
S'eat_VB'
p672
aS'food_NN'
p673
aS'swat_NN'
p674
aS'fly_VB'
p675
aa(lp676
S'eat_VB'
p677
aS'food_NN'
p678
aS'send_VB'
p679
aS'message_NN'
p680
aa(lp681
S'wear_VB'
p682
aS'coat_NN'
p683
aS'sing_VB'
p684
aS'song_NN'
p685
aa(lp686
S'wear_VB'
p687
aS'coat_NN'
p688
aS'drink_NN'
p689
aS'water_NN'
p690
aa(lp691
S'wear_VB'
p692
aS'coat_NN'
p693
aS'read_VB'
p694
aS'book_NN'
p695
aa(lp696
S'wear_VB'
p697
aS'coat_NN'
p698
aS'eat_VB'
p699
aS'food_NN'
p700
aa(lp701
S'wear_VB'
p702
aS'coat_NN'
p703
aS'drive_NN'
p704
aS'car_NN'
p705
aa(lp706
S'wear_VB'
p707
aS'coat_NN'
p708
aS'ride_NN'
p709
aS'horse_NN'
p710
aa(lp711
S'wear_VB'
p712
aS'coat_NN'
p713
aS'give_VB'
p714
aS'gift_NN'
p715
aa(lp716
S'wear_VB'
p717
aS'coat_NN'
p718
aS'attack_NN'
p719
aS'enemy_NN'
p720
aa(lp721
S'wear_VB'
p722
aS'coat_NN'
p723
aS'say_VB'
p724
aS'word_NN'
p725
aa(lp726
S'wear_VB'
p727
aS'coat_NN'
p728
aS'open_JJ'
p729
aS'door_NN'
p730
aa(lp731
S'wear_VB'
p732
aS'coat_NN'
p733
aS'climb_VB'
p734
aS'tree_NN'
p735
aa(lp736
S'wear_VB'
p737
aS'coat_NN'
p738
aS'heal_VB'
p739
aS'wound_NN'
p740
aa(lp741
S'wear_VB'
p742
aS'coat_NN'
p743
aS'cure_NN'
p744
aS'disease_NN'
p745
aa(lp746
S'wear_VB'
p747
aS'coat_NN'
p748
aS'paint_NN'
p749
aS'picture_NN'
p750
aa(lp751
S'wear_VB'
p752
aS'coat_NN'
p753
aS'operate_VB'
p754
aS'machine_NN'
p755
aa(lp756
S'wear_VB'
p757
aS'coat_NN'
p758
aS'climb_VB'
p759
aS'ladder_NN'
p760
aa(lp761
S'wear_VB'
p762
aS'coat_NN'
p763
aS'play_VB'
p764
aS'game_NN'
p765
aa(lp766
S'wear_VB'
p767
aS'coat_NN'
p768
aS'pursue_VB'
p769
aS'quarry_NN'
p770
aa(lp771
S'wear_VB'
p772
aS'coat_NN'
p773
aS'shoot_VB'
p774
aS'gun_NN'
p775
aa(lp776
S'wear_VB'
p777
aS'coat_NN'
p778
aS'sail_NN'
p779
aS'boat_NN'
p780
aa(lp781
S'wear_VB'
p782
aS'coat_NN'
p783
aS'brush_NN'
p784
aS'hair_NN'
p785
aa(lp786
S'wear_VB'
p787
aS'coat_NN'
p788
aS'write_VB'
p789
aS'letter_NN'
p790
aa(lp791
S'wear_VB'
p792
aS'coat_NN'
p793
aS'say_VB'
p794
aS'word_NN'
p795
aa(lp796
S'wear_VB'
p797
aS'coat_NN'
p798
aS'wield_VB'
p799
aS'sword_NN'
p800
aa(lp801
S'wear_VB'
p802
aS'coat_NN'
p803
aS'carry_VB'
p804
aS'burden_NN'
p805
aa(lp806
S'wear_VB'
p807
aS'coat_NN'
p808
aS'wash_NN'
p809
aS'dishes_NNS'
p810
aa(lp811
S'wear_VB'
p812
aS'coat_NN'
p813
aS'swallow_NN'
p814
aS'pill_NN'
p815
aa(lp816
S'wear_VB'
p817
aS'coat_NN'
p818
aS'swear_VB'
p819
aS'oath_NN'
p820
aa(lp821
S'wear_VB'
p822
aS'coat_NN'
p823
aS'elect_VB'
p824
aS'president_NN'
p825
aa(lp826
S'wear_VB'
p827
aS'coat_NN'
p828
aS'hire_VB'
p829
aS'employee_NN'
p830
aa(lp831
S'wear_VB'
p832
aS'coat_NN'
p833
aS'compose_VB'
p834
aS'symphony_NN'
p835
aa(lp836
S'wear_VB'
p837
aS'coat_NN'
p838
aS'pet_NN'
p839
aS'cat_NN'
p840
aa(lp841
S'wear_VB'
p842
aS'coat_NN'
p843
aS'swat_NN'
p844
aS'fly_VB'
p845
aa(lp846
S'wear_VB'
p847
aS'coat_NN'
p848
aS'send_VB'
p849
aS'message_NN'
p850
aa(lp851
S'drive_NN'
p852
aS'car_NN'
p853
aS'sing_VB'
p854
aS'song_NN'
p855
aa(lp856
S'drive_NN'
p857
aS'car_NN'
p858
aS'drink_NN'
p859
aS'water_NN'
p860
aa(lp861
S'drive_NN'
p862
aS'car_NN'
p863
aS'read_VB'
p864
aS'book_NN'
p865
aa(lp866
S'drive_NN'
p867
aS'car_NN'
p868
aS'eat_VB'
p869
aS'food_NN'
p870
aa(lp871
S'drive_NN'
p872
aS'car_NN'
p873
aS'wear_VB'
p874
aS'coat_NN'
p875
aa(lp876
S'drive_NN'
p877
aS'car_NN'
p878
aS'ride_NN'
p879
aS'horse_NN'
p880
aa(lp881
S'drive_NN'
p882
aS'car_NN'
p883
aS'give_VB'
p884
aS'gift_NN'
p885
aa(lp886
S'drive_NN'
p887
aS'car_NN'
p888
aS'attack_NN'
p889
aS'enemy_NN'
p890
aa(lp891
S'drive_NN'
p892
aS'car_NN'
p893
aS'say_VB'
p894
aS'word_NN'
p895
aa(lp896
S'drive_NN'
p897
aS'car_NN'
p898
aS'open_JJ'
p899
aS'door_NN'
p900
aa(lp901
S'drive_NN'
p902
aS'car_NN'
p903
aS'climb_VB'
p904
aS'tree_NN'
p905
aa(lp906
S'drive_NN'
p907
aS'car_NN'
p908
aS'heal_VB'
p909
aS'wound_NN'
p910
aa(lp911
S'drive_NN'
p912
aS'car_NN'
p913
aS'cure_NN'
p914
aS'disease_NN'
p915
aa(lp916
S'drive_NN'
p917
aS'car_NN'
p918
aS'paint_NN'
p919
aS'picture_NN'
p920
aa(lp921
S'drive_NN'
p922
aS'car_NN'
p923
aS'operate_VB'
p924
aS'machine_NN'
p925
aa(lp926
S'drive_NN'
p927
aS'car_NN'
p928
aS'climb_VB'
p929
aS'ladder_NN'
p930
aa(lp931
S'drive_NN'
p932
aS'car_NN'
p933
aS'play_VB'
p934
aS'game_NN'
p935
aa(lp936
S'drive_NN'
p937
aS'car_NN'
p938
aS'pursue_VB'
p939
aS'quarry_NN'
p940
aa(lp941
S'drive_NN'
p942
aS'car_NN'
p943
aS'shoot_VB'
p944
aS'gun_NN'
p945
aa(lp946
S'drive_NN'
p947
aS'car_NN'
p948
aS'sail_NN'
p949
aS'boat_NN'
p950
aa(lp951
S'drive_NN'
p952
aS'car_NN'
p953
aS'brush_NN'
p954
aS'hair_NN'
p955
aa(lp956
S'drive_NN'
p957
aS'car_NN'
p958
aS'write_VB'
p959
aS'letter_NN'
p960
aa(lp961
S'drive_NN'
p962
aS'car_NN'
p963
aS'say_VB'
p964
aS'word_NN'
p965
aa(lp966
S'drive_NN'
p967
aS'car_NN'
p968
aS'wield_VB'
p969
aS'sword_NN'
p970
aa(lp971
S'drive_NN'
p972
aS'car_NN'
p973
aS'carry_VB'
p974
aS'burden_NN'
p975
aa(lp976
S'drive_NN'
p977
aS'car_NN'
p978
aS'wash_NN'
p979
aS'dishes_NNS'
p980
aa(lp981
S'drive_NN'
p982
aS'car_NN'
p983
aS'swallow_NN'
p984
aS'pill_NN'
p985
aa(lp986
S'drive_NN'
p987
aS'car_NN'
p988
aS'swear_VB'
p989
aS'oath_NN'
p990
aa(lp991
S'drive_NN'
p992
aS'car_NN'
p993
aS'elect_VB'
p994
aS'president_NN'
p995
aa(lp996
S'drive_NN'
p997
aS'car_NN'
p998
aS'hire_VB'
p999
aS'employee_NN'
p1000
aa(lp1001
S'drive_NN'
p1002
aS'car_NN'
p1003
aS'compose_VB'
p1004
aS'symphony_NN'
p1005
aa(lp1006
S'drive_NN'
p1007
aS'car_NN'
p1008
aS'pet_NN'
p1009
aS'cat_NN'
p1010
aa(lp1011
S'drive_NN'
p1012
aS'car_NN'
p1013
aS'swat_NN'
p1014
aS'fly_VB'
p1015
aa(lp1016
S'drive_NN'
p1017
aS'car_NN'
p1018
aS'send_VB'
p1019
aS'message_NN'
p1020
aa(lp1021
S'ride_NN'
p1022
aS'horse_NN'
p1023
aS'sing_VB'
p1024
aS'song_NN'
p1025
aa(lp1026
S'ride_NN'
p1027
aS'horse_NN'
p1028
aS'drink_NN'
p1029
aS'water_NN'
p1030
aa(lp1031
S'ride_NN'
p1032
aS'horse_NN'
p1033
aS'read_VB'
p1034
aS'book_NN'
p1035
aa(lp1036
S'ride_NN'
p1037
aS'horse_NN'
p1038
aS'eat_VB'
p1039
aS'food_NN'
p1040
aa(lp1041
S'ride_NN'
p1042
aS'horse_NN'
p1043
aS'wear_VB'
p1044
aS'coat_NN'
p1045
aa(lp1046
S'ride_NN'
p1047
aS'horse_NN'
p1048
aS'drive_NN'
p1049
aS'car_NN'
p1050
aa(lp1051
S'ride_NN'
p1052
aS'horse_NN'
p1053
aS'give_VB'
p1054
aS'gift_NN'
p1055
aa(lp1056
S'ride_NN'
p1057
aS'horse_NN'
p1058
aS'attack_NN'
p1059
aS'enemy_NN'
p1060
aa(lp1061
S'ride_NN'
p1062
aS'horse_NN'
p1063
aS'say_VB'
p1064
aS'word_NN'
p1065
aa(lp1066
S'ride_NN'
p1067
aS'horse_NN'
p1068
aS'open_JJ'
p1069
aS'door_NN'
p1070
aa(lp1071
S'ride_NN'
p1072
aS'horse_NN'
p1073
aS'climb_VB'
p1074
aS'tree_NN'
p1075
aa(lp1076
S'ride_NN'
p1077
aS'horse_NN'
p1078
aS'heal_VB'
p1079
aS'wound_NN'
p1080
aa(lp1081
S'ride_NN'
p1082
aS'horse_NN'
p1083
aS'cure_NN'
p1084
aS'disease_NN'
p1085
aa(lp1086
S'ride_NN'
p1087
aS'horse_NN'
p1088
aS'paint_NN'
p1089
aS'picture_NN'
p1090
aa(lp1091
S'ride_NN'
p1092
aS'horse_NN'
p1093
aS'operate_VB'
p1094
aS'machine_NN'
p1095
aa(lp1096
S'ride_NN'
p1097
aS'horse_NN'
p1098
aS'climb_VB'
p1099
aS'ladder_NN'
p1100
aa(lp1101
S'ride_NN'
p1102
aS'horse_NN'
p1103
aS'play_VB'
p1104
aS'game_NN'
p1105
aa(lp1106
S'ride_NN'
p1107
aS'horse_NN'
p1108
aS'pursue_VB'
p1109
aS'quarry_NN'
p1110
aa(lp1111
S'ride_NN'
p1112
aS'horse_NN'
p1113
aS'shoot_VB'
p1114
aS'gun_NN'
p1115
aa(lp1116
S'ride_NN'
p1117
aS'horse_NN'
p1118
aS'sail_NN'
p1119
aS'boat_NN'
p1120
aa(lp1121
S'ride_NN'
p1122
aS'horse_NN'
p1123
aS'brush_NN'
p1124
aS'hair_NN'
p1125
aa(lp1126
S'ride_NN'
p1127
aS'horse_NN'
p1128
aS'write_VB'
p1129
aS'letter_NN'
p1130
aa(lp1131
S'ride_NN'
p1132
aS'horse_NN'
p1133
aS'say_VB'
p1134
aS'word_NN'
p1135
aa(lp1136
S'ride_NN'
p1137
aS'horse_NN'
p1138
aS'wield_VB'
p1139
aS'sword_NN'
p1140
aa(lp1141
S'ride_NN'
p1142
aS'horse_NN'
p1143
aS'carry_VB'
p1144
aS'burden_NN'
p1145
aa(lp1146
S'ride_NN'
p1147
aS'horse_NN'
p1148
aS'wash_NN'
p1149
aS'dishes_NNS'
p1150
aa(lp1151
S'ride_NN'
p1152
aS'horse_NN'
p1153
aS'swallow_NN'
p1154
aS'pill_NN'
p1155
aa(lp1156
S'ride_NN'
p1157
aS'horse_NN'
p1158
aS'swear_VB'
p1159
aS'oath_NN'
p1160
aa(lp1161
S'ride_NN'
p1162
aS'horse_NN'
p1163
aS'elect_VB'
p1164
aS'president_NN'
p1165
aa(lp1166
S'ride_NN'
p1167
aS'horse_NN'
p1168
aS'hire_VB'
p1169
aS'employee_NN'
p1170
aa(lp1171
S'ride_NN'
p1172
aS'horse_NN'
p1173
aS'compose_VB'
p1174
aS'symphony_NN'
p1175
aa(lp1176
S'ride_NN'
p1177
aS'horse_NN'
p1178
aS'pet_NN'
p1179
aS'cat_NN'
p1180
aa(lp1181
S'ride_NN'
p1182
aS'horse_NN'
p1183
aS'swat_NN'
p1184
aS'fly_VB'
p1185
aa(lp1186
S'ride_NN'
p1187
aS'horse_NN'
p1188
aS'send_VB'
p1189
aS'message_NN'
p1190
aa(lp1191
S'give_VB'
p1192
aS'gift_NN'
p1193
aS'sing_VB'
p1194
aS'song_NN'
p1195
aa(lp1196
S'give_VB'
p1197
aS'gift_NN'
p1198
aS'drink_NN'
p1199
aS'water_NN'
p1200
aa(lp1201
S'give_VB'
p1202
aS'gift_NN'
p1203
aS'read_VB'
p1204
aS'book_NN'
p1205
aa(lp1206
S'give_VB'
p1207
aS'gift_NN'
p1208
aS'eat_VB'
p1209
aS'food_NN'
p1210
aa(lp1211
S'give_VB'
p1212
aS'gift_NN'
p1213
aS'wear_VB'
p1214
aS'coat_NN'
p1215
aa(lp1216
S'give_VB'
p1217
aS'gift_NN'
p1218
aS'drive_NN'
p1219
aS'car_NN'
p1220
aa(lp1221
S'give_VB'
p1222
aS'gift_NN'
p1223
aS'ride_NN'
p1224
aS'horse_NN'
p1225
aa(lp1226
S'give_VB'
p1227
aS'gift_NN'
p1228
aS'attack_NN'
p1229
aS'enemy_NN'
p1230
aa(lp1231
S'give_VB'
p1232
aS'gift_NN'
p1233
aS'say_VB'
p1234
aS'word_NN'
p1235
aa(lp1236
S'give_VB'
p1237
aS'gift_NN'
p1238
aS'open_JJ'
p1239
aS'door_NN'
p1240
aa(lp1241
S'give_VB'
p1242
aS'gift_NN'
p1243
aS'climb_VB'
p1244
aS'tree_NN'
p1245
aa(lp1246
S'give_VB'
p1247
aS'gift_NN'
p1248
aS'heal_VB'
p1249
aS'wound_NN'
p1250
aa(lp1251
S'give_VB'
p1252
aS'gift_NN'
p1253
aS'cure_NN'
p1254
aS'disease_NN'
p1255
aa(lp1256
S'give_VB'
p1257
aS'gift_NN'
p1258
aS'paint_NN'
p1259
aS'picture_NN'
p1260
aa(lp1261
S'give_VB'
p1262
aS'gift_NN'
p1263
aS'operate_VB'
p1264
aS'machine_NN'
p1265
aa(lp1266
S'give_VB'
p1267
aS'gift_NN'
p1268
aS'climb_VB'
p1269
aS'ladder_NN'
p1270
aa(lp1271
S'give_VB'
p1272
aS'gift_NN'
p1273
aS'play_VB'
p1274
aS'game_NN'
p1275
aa(lp1276
S'give_VB'
p1277
aS'gift_NN'
p1278
aS'pursue_VB'
p1279
aS'quarry_NN'
p1280
aa(lp1281
S'give_VB'
p1282
aS'gift_NN'
p1283
aS'shoot_VB'
p1284
aS'gun_NN'
p1285
aa(lp1286
S'give_VB'
p1287
aS'gift_NN'
p1288
aS'sail_NN'
p1289
aS'boat_NN'
p1290
aa(lp1291
S'give_VB'
p1292
aS'gift_NN'
p1293
aS'brush_NN'
p1294
aS'hair_NN'
p1295
aa(lp1296
S'give_VB'
p1297
aS'gift_NN'
p1298
aS'write_VB'
p1299
aS'letter_NN'
p1300
aa(lp1301
S'give_VB'
p1302
aS'gift_NN'
p1303
aS'say_VB'
p1304
aS'word_NN'
p1305
aa(lp1306
S'give_VB'
p1307
aS'gift_NN'
p1308
aS'wield_VB'
p1309
aS'sword_NN'
p1310
aa(lp1311
S'give_VB'
p1312
aS'gift_NN'
p1313
aS'carry_VB'
p1314
aS'burden_NN'
p1315
aa(lp1316
S'give_VB'
p1317
aS'gift_NN'
p1318
aS'wash_NN'
p1319
aS'dishes_NNS'
p1320
aa(lp1321
S'give_VB'
p1322
aS'gift_NN'
p1323
aS'swallow_NN'
p1324
aS'pill_NN'
p1325
aa(lp1326
S'give_VB'
p1327
aS'gift_NN'
p1328
aS'swear_VB'
p1329
aS'oath_NN'
p1330
aa(lp1331
S'give_VB'
p1332
aS'gift_NN'
p1333
aS'elect_VB'
p1334
aS'president_NN'
p1335
aa(lp1336
S'give_VB'
p1337
aS'gift_NN'
p1338
aS'hire_VB'
p1339
aS'employee_NN'
p1340
aa(lp1341
S'give_VB'
p1342
aS'gift_NN'
p1343
aS'compose_VB'
p1344
aS'symphony_NN'
p1345
aa(lp1346
S'give_VB'
p1347
aS'gift_NN'
p1348
aS'pet_NN'
p1349
aS'cat_NN'
p1350
aa(lp1351
S'give_VB'
p1352
aS'gift_NN'
p1353
aS'swat_NN'
p1354
aS'fly_VB'
p1355
aa(lp1356
S'give_VB'
p1357
aS'gift_NN'
p1358
aS'send_VB'
p1359
aS'message_NN'
p1360
aa(lp1361
S'attack_NN'
p1362
aS'enemy_NN'
p1363
aS'sing_VB'
p1364
aS'song_NN'
p1365
aa(lp1366
S'attack_NN'
p1367
aS'enemy_NN'
p1368
aS'drink_NN'
p1369
aS'water_NN'
p1370
aa(lp1371
S'attack_NN'
p1372
aS'enemy_NN'
p1373
aS'read_VB'
p1374
aS'book_NN'
p1375
aa(lp1376
S'attack_NN'
p1377
aS'enemy_NN'
p1378
aS'eat_VB'
p1379
aS'food_NN'
p1380
aa(lp1381
S'attack_NN'
p1382
aS'enemy_NN'
p1383
aS'wear_VB'
p1384
aS'coat_NN'
p1385
aa(lp1386
S'attack_NN'
p1387
aS'enemy_NN'
p1388
aS'drive_NN'
p1389
aS'car_NN'
p1390
aa(lp1391
S'attack_NN'
p1392
aS'enemy_NN'
p1393
aS'ride_NN'
p1394
aS'horse_NN'
p1395
aa(lp1396
S'attack_NN'
p1397
aS'enemy_NN'
p1398
aS'give_VB'
p1399
aS'gift_NN'
p1400
aa(lp1401
S'attack_NN'
p1402
aS'enemy_NN'
p1403
aS'say_VB'
p1404
aS'word_NN'
p1405
aa(lp1406
S'attack_NN'
p1407
aS'enemy_NN'
p1408
aS'open_JJ'
p1409
aS'door_NN'
p1410
aa(lp1411
S'attack_NN'
p1412
aS'enemy_NN'
p1413
aS'climb_VB'
p1414
aS'tree_NN'
p1415
aa(lp1416
S'attack_NN'
p1417
aS'enemy_NN'
p1418
aS'heal_VB'
p1419
aS'wound_NN'
p1420
aa(lp1421
S'attack_NN'
p1422
aS'enemy_NN'
p1423
aS'cure_NN'
p1424
aS'disease_NN'
p1425
aa(lp1426
S'attack_NN'
p1427
aS'enemy_NN'
p1428
aS'paint_NN'
p1429
aS'picture_NN'
p1430
aa(lp1431
S'attack_NN'
p1432
aS'enemy_NN'
p1433
aS'operate_VB'
p1434
aS'machine_NN'
p1435
aa(lp1436
S'attack_NN'
p1437
aS'enemy_NN'
p1438
aS'climb_VB'
p1439
aS'ladder_NN'
p1440
aa(lp1441
S'attack_NN'
p1442
aS'enemy_NN'
p1443
aS'play_VB'
p1444
aS'game_NN'
p1445
aa(lp1446
S'attack_NN'
p1447
aS'enemy_NN'
p1448
aS'pursue_VB'
p1449
aS'quarry_NN'
p1450
aa(lp1451
S'attack_NN'
p1452
aS'enemy_NN'
p1453
aS'shoot_VB'
p1454
aS'gun_NN'
p1455
aa(lp1456
S'attack_NN'
p1457
aS'enemy_NN'
p1458
aS'sail_NN'
p1459
aS'boat_NN'
p1460
aa(lp1461
S'attack_NN'
p1462
aS'enemy_NN'
p1463
aS'brush_NN'
p1464
aS'hair_NN'
p1465
aa(lp1466
S'attack_NN'
p1467
aS'enemy_NN'
p1468
aS'write_VB'
p1469
aS'letter_NN'
p1470
aa(lp1471
S'attack_NN'
p1472
aS'enemy_NN'
p1473
aS'say_VB'
p1474
aS'word_NN'
p1475
aa(lp1476
S'attack_NN'
p1477
aS'enemy_NN'
p1478
aS'wield_VB'
p1479
aS'sword_NN'
p1480
aa(lp1481
S'attack_NN'
p1482
aS'enemy_NN'
p1483
aS'carry_VB'
p1484
aS'burden_NN'
p1485
aa(lp1486
S'attack_NN'
p1487
aS'enemy_NN'
p1488
aS'wash_NN'
p1489
aS'dishes_NNS'
p1490
aa(lp1491
S'attack_NN'
p1492
aS'enemy_NN'
p1493
aS'swallow_NN'
p1494
aS'pill_NN'
p1495
aa(lp1496
S'attack_NN'
p1497
aS'enemy_NN'
p1498
aS'swear_VB'
p1499
aS'oath_NN'
p1500
aa(lp1501
S'attack_NN'
p1502
aS'enemy_NN'
p1503
aS'elect_VB'
p1504
aS'president_NN'
p1505
aa(lp1506
S'attack_NN'
p1507
aS'enemy_NN'
p1508
aS'hire_VB'
p1509
aS'employee_NN'
p1510
aa(lp1511
S'attack_NN'
p1512
aS'enemy_NN'
p1513
aS'compose_VB'
p1514
aS'symphony_NN'
p1515
aa(lp1516
S'attack_NN'
p1517
aS'enemy_NN'
p1518
aS'pet_NN'
p1519
aS'cat_NN'
p1520
aa(lp1521
S'attack_NN'
p1522
aS'enemy_NN'
p1523
aS'swat_NN'
p1524
aS'fly_VB'
p1525
aa(lp1526
S'attack_NN'
p1527
aS'enemy_NN'
p1528
aS'send_VB'
p1529
aS'message_NN'
p1530
aa(lp1531
S'say_VB'
p1532
aS'word_NN'
p1533
aS'sing_VB'
p1534
aS'song_NN'
p1535
aa(lp1536
S'say_VB'
p1537
aS'word_NN'
p1538
aS'drink_NN'
p1539
aS'water_NN'
p1540
aa(lp1541
S'say_VB'
p1542
aS'word_NN'
p1543
aS'read_VB'
p1544
aS'book_NN'
p1545
aa(lp1546
S'say_VB'
p1547
aS'word_NN'
p1548
aS'eat_VB'
p1549
aS'food_NN'
p1550
aa(lp1551
S'say_VB'
p1552
aS'word_NN'
p1553
aS'wear_VB'
p1554
aS'coat_NN'
p1555
aa(lp1556
S'say_VB'
p1557
aS'word_NN'
p1558
aS'drive_NN'
p1559
aS'car_NN'
p1560
aa(lp1561
S'say_VB'
p1562
aS'word_NN'
p1563
aS'ride_NN'
p1564
aS'horse_NN'
p1565
aa(lp1566
S'say_VB'
p1567
aS'word_NN'
p1568
aS'give_VB'
p1569
aS'gift_NN'
p1570
aa(lp1571
S'say_VB'
p1572
aS'word_NN'
p1573
aS'attack_NN'
p1574
aS'enemy_NN'
p1575
aa(lp1576
S'say_VB'
p1577
aS'word_NN'
p1578
aS'open_JJ'
p1579
aS'door_NN'
p1580
aa(lp1581
S'say_VB'
p1582
aS'word_NN'
p1583
aS'climb_VB'
p1584
aS'tree_NN'
p1585
aa(lp1586
S'say_VB'
p1587
aS'word_NN'
p1588
aS'heal_VB'
p1589
aS'wound_NN'
p1590
aa(lp1591
S'say_VB'
p1592
aS'word_NN'
p1593
aS'cure_NN'
p1594
aS'disease_NN'
p1595
aa(lp1596
S'say_VB'
p1597
aS'word_NN'
p1598
aS'paint_NN'
p1599
aS'picture_NN'
p1600
aa(lp1601
S'say_VB'
p1602
aS'word_NN'
p1603
aS'operate_VB'
p1604
aS'machine_NN'
p1605
aa(lp1606
S'say_VB'
p1607
aS'word_NN'
p1608
aS'climb_VB'
p1609
aS'ladder_NN'
p1610
aa(lp1611
S'say_VB'
p1612
aS'word_NN'
p1613
aS'play_VB'
p1614
aS'game_NN'
p1615
aa(lp1616
S'say_VB'
p1617
aS'word_NN'
p1618
aS'pursue_VB'
p1619
aS'quarry_NN'
p1620
aa(lp1621
S'say_VB'
p1622
aS'word_NN'
p1623
aS'shoot_VB'
p1624
aS'gun_NN'
p1625
aa(lp1626
S'say_VB'
p1627
aS'word_NN'
p1628
aS'sail_NN'
p1629
aS'boat_NN'
p1630
aa(lp1631
S'say_VB'
p1632
aS'word_NN'
p1633
aS'brush_NN'
p1634
aS'hair_NN'
p1635
aa(lp1636
S'say_VB'
p1637
aS'word_NN'
p1638
aS'write_VB'
p1639
aS'letter_NN'
p1640
aa(lp1641
S'say_VB'
p1642
aS'word_NN'
p1643
aS'wield_VB'
p1644
aS'sword_NN'
p1645
aa(lp1646
S'say_VB'
p1647
aS'word_NN'
p1648
aS'carry_VB'
p1649
aS'burden_NN'
p1650
aa(lp1651
S'say_VB'
p1652
aS'word_NN'
p1653
aS'wash_NN'
p1654
aS'dishes_NNS'
p1655
aa(lp1656
S'say_VB'
p1657
aS'word_NN'
p1658
aS'swallow_NN'
p1659
aS'pill_NN'
p1660
aa(lp1661
S'say_VB'
p1662
aS'word_NN'
p1663
aS'swear_VB'
p1664
aS'oath_NN'
p1665
aa(lp1666
S'say_VB'
p1667
aS'word_NN'
p1668
aS'elect_VB'
p1669
aS'president_NN'
p1670
aa(lp1671
S'say_VB'
p1672
aS'word_NN'
p1673
aS'hire_VB'
p1674
aS'employee_NN'
p1675
aa(lp1676
S'say_VB'
p1677
aS'word_NN'
p1678
aS'compose_VB'
p1679
aS'symphony_NN'
p1680
aa(lp1681
S'say_VB'
p1682
aS'word_NN'
p1683
aS'pet_NN'
p1684
aS'cat_NN'
p1685
aa(lp1686
S'say_VB'
p1687
aS'word_NN'
p1688
aS'swat_NN'
p1689
aS'fly_VB'
p1690
aa(lp1691
S'say_VB'
p1692
aS'word_NN'
p1693
aS'send_VB'
p1694
aS'message_NN'
p1695
aa(lp1696
S'open_JJ'
p1697
aS'door_NN'
p1698
aS'sing_VB'
p1699
aS'song_NN'
p1700
aa(lp1701
S'open_JJ'
p1702
aS'door_NN'
p1703
aS'drink_NN'
p1704
aS'water_NN'
p1705
aa(lp1706
S'open_JJ'
p1707
aS'door_NN'
p1708
aS'read_VB'
p1709
aS'book_NN'
p1710
aa(lp1711
S'open_JJ'
p1712
aS'door_NN'
p1713
aS'eat_VB'
p1714
aS'food_NN'
p1715
aa(lp1716
S'open_JJ'
p1717
aS'door_NN'
p1718
aS'wear_VB'
p1719
aS'coat_NN'
p1720
aa(lp1721
S'open_JJ'
p1722
aS'door_NN'
p1723
aS'drive_NN'
p1724
aS'car_NN'
p1725
aa(lp1726
S'open_JJ'
p1727
aS'door_NN'
p1728
aS'ride_NN'
p1729
aS'horse_NN'
p1730
aa(lp1731
S'open_JJ'
p1732
aS'door_NN'
p1733
aS'give_VB'
p1734
aS'gift_NN'
p1735
aa(lp1736
S'open_JJ'
p1737
aS'door_NN'
p1738
aS'attack_NN'
p1739
aS'enemy_NN'
p1740
aa(lp1741
S'open_JJ'
p1742
aS'door_NN'
p1743
aS'say_VB'
p1744
aS'word_NN'
p1745
aa(lp1746
S'open_JJ'
p1747
aS'door_NN'
p1748
aS'climb_VB'
p1749
aS'tree_NN'
p1750
aa(lp1751
S'open_JJ'
p1752
aS'door_NN'
p1753
aS'heal_VB'
p1754
aS'wound_NN'
p1755
aa(lp1756
S'open_JJ'
p1757
aS'door_NN'
p1758
aS'cure_NN'
p1759
aS'disease_NN'
p1760
aa(lp1761
S'open_JJ'
p1762
aS'door_NN'
p1763
aS'paint_NN'
p1764
aS'picture_NN'
p1765
aa(lp1766
S'open_JJ'
p1767
aS'door_NN'
p1768
aS'operate_VB'
p1769
aS'machine_NN'
p1770
aa(lp1771
S'open_JJ'
p1772
aS'door_NN'
p1773
aS'climb_VB'
p1774
aS'ladder_NN'
p1775
aa(lp1776
S'open_JJ'
p1777
aS'door_NN'
p1778
aS'play_VB'
p1779
aS'game_NN'
p1780
aa(lp1781
S'open_JJ'
p1782
aS'door_NN'
p1783
aS'pursue_VB'
p1784
aS'quarry_NN'
p1785
aa(lp1786
S'open_JJ'
p1787
aS'door_NN'
p1788
aS'shoot_VB'
p1789
aS'gun_NN'
p1790
aa(lp1791
S'open_JJ'
p1792
aS'door_NN'
p1793
aS'sail_NN'
p1794
aS'boat_NN'
p1795
aa(lp1796
S'open_JJ'
p1797
aS'door_NN'
p1798
aS'brush_NN'
p1799
aS'hair_NN'
p1800
aa(lp1801
S'open_JJ'
p1802
aS'door_NN'
p1803
aS'write_VB'
p1804
aS'letter_NN'
p1805
aa(lp1806
S'open_JJ'
p1807
aS'door_NN'
p1808
aS'say_VB'
p1809
aS'word_NN'
p1810
aa(lp1811
S'open_JJ'
p1812
aS'door_NN'
p1813
aS'wield_VB'
p1814
aS'sword_NN'
p1815
aa(lp1816
S'open_JJ'
p1817
aS'door_NN'
p1818
aS'carry_VB'
p1819
aS'burden_NN'
p1820
aa(lp1821
S'open_JJ'
p1822
aS'door_NN'
p1823
aS'wash_NN'
p1824
aS'dishes_NNS'
p1825
aa(lp1826
S'open_JJ'
p1827
aS'door_NN'
p1828
aS'swallow_NN'
p1829
aS'pill_NN'
p1830
aa(lp1831
S'open_JJ'
p1832
aS'door_NN'
p1833
aS'swear_VB'
p1834
aS'oath_NN'
p1835
aa(lp1836
S'open_JJ'
p1837
aS'door_NN'
p1838
aS'elect_VB'
p1839
aS'president_NN'
p1840
aa(lp1841
S'open_JJ'
p1842
aS'door_NN'
p1843
aS'hire_VB'
p1844
aS'employee_NN'
p1845
aa(lp1846
S'open_JJ'
p1847
aS'door_NN'
p1848
aS'compose_VB'
p1849
aS'symphony_NN'
p1850
aa(lp1851
S'open_JJ'
p1852
aS'door_NN'
p1853
aS'pet_NN'
p1854
aS'cat_NN'
p1855
aa(lp1856
S'open_JJ'
p1857
aS'door_NN'
p1858
aS'swat_NN'
p1859
aS'fly_VB'
p1860
aa(lp1861
S'open_JJ'
p1862
aS'door_NN'
p1863
aS'send_VB'
p1864
aS'message_NN'
p1865
aa(lp1866
S'climb_VB'
p1867
aS'tree_NN'
p1868
aS'sing_VB'
p1869
aS'song_NN'
p1870
aa(lp1871
S'climb_VB'
p1872
aS'tree_NN'
p1873
aS'drink_NN'
p1874
aS'water_NN'
p1875
aa(lp1876
S'climb_VB'
p1877
aS'tree_NN'
p1878
aS'read_VB'
p1879
aS'book_NN'
p1880
aa(lp1881
S'climb_VB'
p1882
aS'tree_NN'
p1883
aS'eat_VB'
p1884
aS'food_NN'
p1885
aa(lp1886
S'climb_VB'
p1887
aS'tree_NN'
p1888
aS'wear_VB'
p1889
aS'coat_NN'
p1890
aa(lp1891
S'climb_VB'
p1892
aS'tree_NN'
p1893
aS'drive_NN'
p1894
aS'car_NN'
p1895
aa(lp1896
S'climb_VB'
p1897
aS'tree_NN'
p1898
aS'ride_NN'
p1899
aS'horse_NN'
p1900
aa(lp1901
S'climb_VB'
p1902
aS'tree_NN'
p1903
aS'give_VB'
p1904
aS'gift_NN'
p1905
aa(lp1906
S'climb_VB'
p1907
aS'tree_NN'
p1908
aS'attack_NN'
p1909
aS'enemy_NN'
p1910
aa(lp1911
S'climb_VB'
p1912
aS'tree_NN'
p1913
aS'say_VB'
p1914
aS'word_NN'
p1915
aa(lp1916
S'climb_VB'
p1917
aS'tree_NN'
p1918
aS'open_JJ'
p1919
aS'door_NN'
p1920
aa(lp1921
S'climb_VB'
p1922
aS'tree_NN'
p1923
aS'heal_VB'
p1924
aS'wound_NN'
p1925
aa(lp1926
S'climb_VB'
p1927
aS'tree_NN'
p1928
aS'cure_NN'
p1929
aS'disease_NN'
p1930
aa(lp1931
S'climb_VB'
p1932
aS'tree_NN'
p1933
aS'paint_NN'
p1934
aS'picture_NN'
p1935
aa(lp1936
S'climb_VB'
p1937
aS'tree_NN'
p1938
aS'operate_VB'
p1939
aS'machine_NN'
p1940
aa(lp1941
S'climb_VB'
p1942
aS'tree_NN'
p1943
aS'climb_VB'
p1944
aS'ladder_NN'
p1945
aa(lp1946
S'climb_VB'
p1947
aS'tree_NN'
p1948
aS'play_VB'
p1949
aS'game_NN'
p1950
aa(lp1951
S'climb_VB'
p1952
aS'tree_NN'
p1953
aS'pursue_VB'
p1954
aS'quarry_NN'
p1955
aa(lp1956
S'climb_VB'
p1957
aS'tree_NN'
p1958
aS'shoot_VB'
p1959
aS'gun_NN'
p1960
aa(lp1961
S'climb_VB'
p1962
aS'tree_NN'
p1963
aS'sail_NN'
p1964
aS'boat_NN'
p1965
aa(lp1966
S'climb_VB'
p1967
aS'tree_NN'
p1968
aS'brush_NN'
p1969
aS'hair_NN'
p1970
aa(lp1971
S'climb_VB'
p1972
aS'tree_NN'
p1973
aS'write_VB'
p1974
aS'letter_NN'
p1975
aa(lp1976
S'climb_VB'
p1977
aS'tree_NN'
p1978
aS'say_VB'
p1979
aS'word_NN'
p1980
aa(lp1981
S'climb_VB'
p1982
aS'tree_NN'
p1983
aS'wield_VB'
p1984
aS'sword_NN'
p1985
aa(lp1986
S'climb_VB'
p1987
aS'tree_NN'
p1988
aS'carry_VB'
p1989
aS'burden_NN'
p1990
aa(lp1991
S'climb_VB'
p1992
aS'tree_NN'
p1993
aS'wash_NN'
p1994
aS'dishes_NNS'
p1995
aa(lp1996
S'climb_VB'
p1997
aS'tree_NN'
p1998
aS'swallow_NN'
p1999
aS'pill_NN'
p2000
aa(lp2001
S'climb_VB'
p2002
aS'tree_NN'
p2003
aS'swear_VB'
p2004
aS'oath_NN'
p2005
aa(lp2006
S'climb_VB'
p2007
aS'tree_NN'
p2008
aS'elect_VB'
p2009
aS'president_NN'
p2010
aa(lp2011
S'climb_VB'
p2012
aS'tree_NN'
p2013
aS'hire_VB'
p2014
aS'employee_NN'
p2015
aa(lp2016
S'climb_VB'
p2017
aS'tree_NN'
p2018
aS'compose_VB'
p2019
aS'symphony_NN'
p2020
aa(lp2021
S'climb_VB'
p2022
aS'tree_NN'
p2023
aS'pet_NN'
p2024
aS'cat_NN'
p2025
aa(lp2026
S'climb_VB'
p2027
aS'tree_NN'
p2028
aS'swat_NN'
p2029
aS'fly_VB'
p2030
aa(lp2031
S'climb_VB'
p2032
aS'tree_NN'
p2033
aS'send_VB'
p2034
aS'message_NN'
p2035
aa(lp2036
S'heal_VB'
p2037
aS'wound_NN'
p2038
aS'sing_VB'
p2039
aS'song_NN'
p2040
aa(lp2041
S'heal_VB'
p2042
aS'wound_NN'
p2043
aS'drink_NN'
p2044
aS'water_NN'
p2045
aa(lp2046
S'heal_VB'
p2047
aS'wound_NN'
p2048
aS'read_VB'
p2049
aS'book_NN'
p2050
aa(lp2051
S'heal_VB'
p2052
aS'wound_NN'
p2053
aS'eat_VB'
p2054
aS'food_NN'
p2055
aa(lp2056
S'heal_VB'
p2057
aS'wound_NN'
p2058
aS'wear_VB'
p2059
aS'coat_NN'
p2060
aa(lp2061
S'heal_VB'
p2062
aS'wound_NN'
p2063
aS'drive_NN'
p2064
aS'car_NN'
p2065
aa(lp2066
S'heal_VB'
p2067
aS'wound_NN'
p2068
aS'ride_NN'
p2069
aS'horse_NN'
p2070
aa(lp2071
S'heal_VB'
p2072
aS'wound_NN'
p2073
aS'give_VB'
p2074
aS'gift_NN'
p2075
aa(lp2076
S'heal_VB'
p2077
aS'wound_NN'
p2078
aS'attack_NN'
p2079
aS'enemy_NN'
p2080
aa(lp2081
S'heal_VB'
p2082
aS'wound_NN'
p2083
aS'say_VB'
p2084
aS'word_NN'
p2085
aa(lp2086
S'heal_VB'
p2087
aS'wound_NN'
p2088
aS'open_JJ'
p2089
aS'door_NN'
p2090
aa(lp2091
S'heal_VB'
p2092
aS'wound_NN'
p2093
aS'climb_VB'
p2094
aS'tree_NN'
p2095
aa(lp2096
S'heal_VB'
p2097
aS'wound_NN'
p2098
aS'cure_NN'
p2099
aS'disease_NN'
p2100
aa(lp2101
S'heal_VB'
p2102
aS'wound_NN'
p2103
aS'paint_NN'
p2104
aS'picture_NN'
p2105
aa(lp2106
S'heal_VB'
p2107
aS'wound_NN'
p2108
aS'operate_VB'
p2109
aS'machine_NN'
p2110
aa(lp2111
S'heal_VB'
p2112
aS'wound_NN'
p2113
aS'climb_VB'
p2114
aS'ladder_NN'
p2115
aa(lp2116
S'heal_VB'
p2117
aS'wound_NN'
p2118
aS'play_VB'
p2119
aS'game_NN'
p2120
aa(lp2121
S'heal_VB'
p2122
aS'wound_NN'
p2123
aS'pursue_VB'
p2124
aS'quarry_NN'
p2125
aa(lp2126
S'heal_VB'
p2127
aS'wound_NN'
p2128
aS'shoot_VB'
p2129
aS'gun_NN'
p2130
aa(lp2131
S'heal_VB'
p2132
aS'wound_NN'
p2133
aS'sail_NN'
p2134
aS'boat_NN'
p2135
aa(lp2136
S'heal_VB'
p2137
aS'wound_NN'
p2138
aS'brush_NN'
p2139
aS'hair_NN'
p2140
aa(lp2141
S'heal_VB'
p2142
aS'wound_NN'
p2143
aS'write_VB'
p2144
aS'letter_NN'
p2145
aa(lp2146
S'heal_VB'
p2147
aS'wound_NN'
p2148
aS'say_VB'
p2149
aS'word_NN'
p2150
aa(lp2151
S'heal_VB'
p2152
aS'wound_NN'
p2153
aS'wield_VB'
p2154
aS'sword_NN'
p2155
aa(lp2156
S'heal_VB'
p2157
aS'wound_NN'
p2158
aS'carry_VB'
p2159
aS'burden_NN'
p2160
aa(lp2161
S'heal_VB'
p2162
aS'wound_NN'
p2163
aS'wash_NN'
p2164
aS'dishes_NNS'
p2165
aa(lp2166
S'heal_VB'
p2167
aS'wound_NN'
p2168
aS'swallow_NN'
p2169
aS'pill_NN'
p2170
aa(lp2171
S'heal_VB'
p2172
aS'wound_NN'
p2173
aS'swear_VB'
p2174
aS'oath_NN'
p2175
aa(lp2176
S'heal_VB'
p2177
aS'wound_NN'
p2178
aS'elect_VB'
p2179
aS'president_NN'
p2180
aa(lp2181
S'heal_VB'
p2182
aS'wound_NN'
p2183
aS'hire_VB'
p2184
aS'employee_NN'
p2185
aa(lp2186
S'heal_VB'
p2187
aS'wound_NN'
p2188
aS'compose_VB'
p2189
aS'symphony_NN'
p2190
aa(lp2191
S'heal_VB'
p2192
aS'wound_NN'
p2193
aS'pet_NN'
p2194
aS'cat_NN'
p2195
aa(lp2196
S'heal_VB'
p2197
aS'wound_NN'
p2198
aS'swat_NN'
p2199
aS'fly_VB'
p2200
aa(lp2201
S'heal_VB'
p2202
aS'wound_NN'
p2203
aS'send_VB'
p2204
aS'message_NN'
p2205
aa(lp2206
S'cure_NN'
p2207
aS'disease_NN'
p2208
aS'sing_VB'
p2209
aS'song_NN'
p2210
aa(lp2211
S'cure_NN'
p2212
aS'disease_NN'
p2213
aS'drink_NN'
p2214
aS'water_NN'
p2215
aa(lp2216
S'cure_NN'
p2217
aS'disease_NN'
p2218
aS'read_VB'
p2219
aS'book_NN'
p2220
aa(lp2221
S'cure_NN'
p2222
aS'disease_NN'
p2223
aS'eat_VB'
p2224
aS'food_NN'
p2225
aa(lp2226
S'cure_NN'
p2227
aS'disease_NN'
p2228
aS'wear_VB'
p2229
aS'coat_NN'
p2230
aa(lp2231
S'cure_NN'
p2232
aS'disease_NN'
p2233
aS'drive_NN'
p2234
aS'car_NN'
p2235
aa(lp2236
S'cure_NN'
p2237
aS'disease_NN'
p2238
aS'ride_NN'
p2239
aS'horse_NN'
p2240
aa(lp2241
S'cure_NN'
p2242
aS'disease_NN'
p2243
aS'give_VB'
p2244
aS'gift_NN'
p2245
aa(lp2246
S'cure_NN'
p2247
aS'disease_NN'
p2248
aS'attack_NN'
p2249
aS'enemy_NN'
p2250
aa(lp2251
S'cure_NN'
p2252
aS'disease_NN'
p2253
aS'say_VB'
p2254
aS'word_NN'
p2255
aa(lp2256
S'cure_NN'
p2257
aS'disease_NN'
p2258
aS'open_JJ'
p2259
aS'door_NN'
p2260
aa(lp2261
S'cure_NN'
p2262
aS'disease_NN'
p2263
aS'climb_VB'
p2264
aS'tree_NN'
p2265
aa(lp2266
S'cure_NN'
p2267
aS'disease_NN'
p2268
aS'heal_VB'
p2269
aS'wound_NN'
p2270
aa(lp2271
S'cure_NN'
p2272
aS'disease_NN'
p2273
aS'paint_NN'
p2274
aS'picture_NN'
p2275
aa(lp2276
S'cure_NN'
p2277
aS'disease_NN'
p2278
aS'operate_VB'
p2279
aS'machine_NN'
p2280
aa(lp2281
S'cure_NN'
p2282
aS'disease_NN'
p2283
aS'climb_VB'
p2284
aS'ladder_NN'
p2285
aa(lp2286
S'cure_NN'
p2287
aS'disease_NN'
p2288
aS'play_VB'
p2289
aS'game_NN'
p2290
aa(lp2291
S'cure_NN'
p2292
aS'disease_NN'
p2293
aS'pursue_VB'
p2294
aS'quarry_NN'
p2295
aa(lp2296
S'cure_NN'
p2297
aS'disease_NN'
p2298
aS'shoot_VB'
p2299
aS'gun_NN'
p2300
aa(lp2301
S'cure_NN'
p2302
aS'disease_NN'
p2303
aS'sail_NN'
p2304
aS'boat_NN'
p2305
aa(lp2306
S'cure_NN'
p2307
aS'disease_NN'
p2308
aS'brush_NN'
p2309
aS'hair_NN'
p2310
aa(lp2311
S'cure_NN'
p2312
aS'disease_NN'
p2313
aS'write_VB'
p2314
aS'letter_NN'
p2315
aa(lp2316
S'cure_NN'
p2317
aS'disease_NN'
p2318
aS'say_VB'
p2319
aS'word_NN'
p2320
aa(lp2321
S'cure_NN'
p2322
aS'disease_NN'
p2323
aS'wield_VB'
p2324
aS'sword_NN'
p2325
aa(lp2326
S'cure_NN'
p2327
aS'disease_NN'
p2328
aS'carry_VB'
p2329
aS'burden_NN'
p2330
aa(lp2331
S'cure_NN'
p2332
aS'disease_NN'
p2333
aS'wash_NN'
p2334
aS'dishes_NNS'
p2335
aa(lp2336
S'cure_NN'
p2337
aS'disease_NN'
p2338
aS'swallow_NN'
p2339
aS'pill_NN'
p2340
aa(lp2341
S'cure_NN'
p2342
aS'disease_NN'
p2343
aS'swear_VB'
p2344
aS'oath_NN'
p2345
aa(lp2346
S'cure_NN'
p2347
aS'disease_NN'
p2348
aS'elect_VB'
p2349
aS'president_NN'
p2350
aa(lp2351
S'cure_NN'
p2352
aS'disease_NN'
p2353
aS'hire_VB'
p2354
aS'employee_NN'
p2355
aa(lp2356
S'cure_NN'
p2357
aS'disease_NN'
p2358
aS'compose_VB'
p2359
aS'symphony_NN'
p2360
aa(lp2361
S'cure_NN'
p2362
aS'disease_NN'
p2363
aS'pet_NN'
p2364
aS'cat_NN'
p2365
aa(lp2366
S'cure_NN'
p2367
aS'disease_NN'
p2368
aS'swat_NN'
p2369
aS'fly_VB'
p2370
aa(lp2371
S'cure_NN'
p2372
aS'disease_NN'
p2373
aS'send_VB'
p2374
aS'message_NN'
p2375
aa(lp2376
S'paint_NN'
p2377
aS'picture_NN'
p2378
aS'sing_VB'
p2379
aS'song_NN'
p2380
aa(lp2381
S'paint_NN'
p2382
aS'picture_NN'
p2383
aS'drink_NN'
p2384
aS'water_NN'
p2385
aa(lp2386
S'paint_NN'
p2387
aS'picture_NN'
p2388
aS'read_VB'
p2389
aS'book_NN'
p2390
aa(lp2391
S'paint_NN'
p2392
aS'picture_NN'
p2393
aS'eat_VB'
p2394
aS'food_NN'
p2395
aa(lp2396
S'paint_NN'
p2397
aS'picture_NN'
p2398
aS'wear_VB'
p2399
aS'coat_NN'
p2400
aa(lp2401
S'paint_NN'
p2402
aS'picture_NN'
p2403
aS'drive_NN'
p2404
aS'car_NN'
p2405
aa(lp2406
S'paint_NN'
p2407
aS'picture_NN'
p2408
aS'ride_NN'
p2409
aS'horse_NN'
p2410
aa(lp2411
S'paint_NN'
p2412
aS'picture_NN'
p2413
aS'give_VB'
p2414
aS'gift_NN'
p2415
aa(lp2416
S'paint_NN'
p2417
aS'picture_NN'
p2418
aS'attack_NN'
p2419
aS'enemy_NN'
p2420
aa(lp2421
S'paint_NN'
p2422
aS'picture_NN'
p2423
aS'say_VB'
p2424
aS'word_NN'
p2425
aa(lp2426
S'paint_NN'
p2427
aS'picture_NN'
p2428
aS'open_JJ'
p2429
aS'door_NN'
p2430
aa(lp2431
S'paint_NN'
p2432
aS'picture_NN'
p2433
aS'climb_VB'
p2434
aS'tree_NN'
p2435
aa(lp2436
S'paint_NN'
p2437
aS'picture_NN'
p2438
aS'heal_VB'
p2439
aS'wound_NN'
p2440
aa(lp2441
S'paint_NN'
p2442
aS'picture_NN'
p2443
aS'cure_NN'
p2444
aS'disease_NN'
p2445
aa(lp2446
S'paint_NN'
p2447
aS'picture_NN'
p2448
aS'operate_VB'
p2449
aS'machine_NN'
p2450
aa(lp2451
S'paint_NN'
p2452
aS'picture_NN'
p2453
aS'climb_VB'
p2454
aS'ladder_NN'
p2455
aa(lp2456
S'paint_NN'
p2457
aS'picture_NN'
p2458
aS'play_VB'
p2459
aS'game_NN'
p2460
aa(lp2461
S'paint_NN'
p2462
aS'picture_NN'
p2463
aS'pursue_VB'
p2464
aS'quarry_NN'
p2465
aa(lp2466
S'paint_NN'
p2467
aS'picture_NN'
p2468
aS'shoot_VB'
p2469
aS'gun_NN'
p2470
aa(lp2471
S'paint_NN'
p2472
aS'picture_NN'
p2473
aS'sail_NN'
p2474
aS'boat_NN'
p2475
aa(lp2476
S'paint_NN'
p2477
aS'picture_NN'
p2478
aS'brush_NN'
p2479
aS'hair_NN'
p2480
aa(lp2481
S'paint_NN'
p2482
aS'picture_NN'
p2483
aS'write_VB'
p2484
aS'letter_NN'
p2485
aa(lp2486
S'paint_NN'
p2487
aS'picture_NN'
p2488
aS'say_VB'
p2489
aS'word_NN'
p2490
aa(lp2491
S'paint_NN'
p2492
aS'picture_NN'
p2493
aS'wield_VB'
p2494
aS'sword_NN'
p2495
aa(lp2496
S'paint_NN'
p2497
aS'picture_NN'
p2498
aS'carry_VB'
p2499
aS'burden_NN'
p2500
aa(lp2501
S'paint_NN'
p2502
aS'picture_NN'
p2503
aS'wash_NN'
p2504
aS'dishes_NNS'
p2505
aa(lp2506
S'paint_NN'
p2507
aS'picture_NN'
p2508
aS'swallow_NN'
p2509
aS'pill_NN'
p2510
aa(lp2511
S'paint_NN'
p2512
aS'picture_NN'
p2513
aS'swear_VB'
p2514
aS'oath_NN'
p2515
aa(lp2516
S'paint_NN'
p2517
aS'picture_NN'
p2518
aS'elect_VB'
p2519
aS'president_NN'
p2520
aa(lp2521
S'paint_NN'
p2522
aS'picture_NN'
p2523
aS'hire_VB'
p2524
aS'employee_NN'
p2525
aa(lp2526
S'paint_NN'
p2527
aS'picture_NN'
p2528
aS'compose_VB'
p2529
aS'symphony_NN'
p2530
aa(lp2531
S'paint_NN'
p2532
aS'picture_NN'
p2533
aS'pet_NN'
p2534
aS'cat_NN'
p2535
aa(lp2536
S'paint_NN'
p2537
aS'picture_NN'
p2538
aS'swat_NN'
p2539
aS'fly_VB'
p2540
aa(lp2541
S'paint_NN'
p2542
aS'picture_NN'
p2543
aS'send_VB'
p2544
aS'message_NN'
p2545
aa(lp2546
S'operate_VB'
p2547
aS'machine_NN'
p2548
aS'sing_VB'
p2549
aS'song_NN'
p2550
aa(lp2551
S'operate_VB'
p2552
aS'machine_NN'
p2553
aS'drink_NN'
p2554
aS'water_NN'
p2555
aa(lp2556
S'operate_VB'
p2557
aS'machine_NN'
p2558
aS'read_VB'
p2559
aS'book_NN'
p2560
aa(lp2561
S'operate_VB'
p2562
aS'machine_NN'
p2563
aS'eat_VB'
p2564
aS'food_NN'
p2565
aa(lp2566
S'operate_VB'
p2567
aS'machine_NN'
p2568
aS'wear_VB'
p2569
aS'coat_NN'
p2570
aa(lp2571
S'operate_VB'
p2572
aS'machine_NN'
p2573
aS'drive_NN'
p2574
aS'car_NN'
p2575
aa(lp2576
S'operate_VB'
p2577
aS'machine_NN'
p2578
aS'ride_NN'
p2579
aS'horse_NN'
p2580
aa(lp2581
S'operate_VB'
p2582
aS'machine_NN'
p2583
aS'give_VB'
p2584
aS'gift_NN'
p2585
aa(lp2586
S'operate_VB'
p2587
aS'machine_NN'
p2588
aS'attack_NN'
p2589
aS'enemy_NN'
p2590
aa(lp2591
S'operate_VB'
p2592
aS'machine_NN'
p2593
aS'say_VB'
p2594
aS'word_NN'
p2595
aa(lp2596
S'operate_VB'
p2597
aS'machine_NN'
p2598
aS'open_JJ'
p2599
aS'door_NN'
p2600
aa(lp2601
S'operate_VB'
p2602
aS'machine_NN'
p2603
aS'climb_VB'
p2604
aS'tree_NN'
p2605
aa(lp2606
S'operate_VB'
p2607
aS'machine_NN'
p2608
aS'heal_VB'
p2609
aS'wound_NN'
p2610
aa(lp2611
S'operate_VB'
p2612
aS'machine_NN'
p2613
aS'cure_NN'
p2614
aS'disease_NN'
p2615
aa(lp2616
S'operate_VB'
p2617
aS'machine_NN'
p2618
aS'paint_NN'
p2619
aS'picture_NN'
p2620
aa(lp2621
S'operate_VB'
p2622
aS'machine_NN'
p2623
aS'climb_VB'
p2624
aS'ladder_NN'
p2625
aa(lp2626
S'operate_VB'
p2627
aS'machine_NN'
p2628
aS'play_VB'
p2629
aS'game_NN'
p2630
aa(lp2631
S'operate_VB'
p2632
aS'machine_NN'
p2633
aS'pursue_VB'
p2634
aS'quarry_NN'
p2635
aa(lp2636
S'operate_VB'
p2637
aS'machine_NN'
p2638
aS'shoot_VB'
p2639
aS'gun_NN'
p2640
aa(lp2641
S'operate_VB'
p2642
aS'machine_NN'
p2643
aS'sail_NN'
p2644
aS'boat_NN'
p2645
aa(lp2646
S'operate_VB'
p2647
aS'machine_NN'
p2648
aS'brush_NN'
p2649
aS'hair_NN'
p2650
aa(lp2651
S'operate_VB'
p2652
aS'machine_NN'
p2653
aS'write_VB'
p2654
aS'letter_NN'
p2655
aa(lp2656
S'operate_VB'
p2657
aS'machine_NN'
p2658
aS'say_VB'
p2659
aS'word_NN'
p2660
aa(lp2661
S'operate_VB'
p2662
aS'machine_NN'
p2663
aS'wield_VB'
p2664
aS'sword_NN'
p2665
aa(lp2666
S'operate_VB'
p2667
aS'machine_NN'
p2668
aS'carry_VB'
p2669
aS'burden_NN'
p2670
aa(lp2671
S'operate_VB'
p2672
aS'machine_NN'
p2673
aS'wash_NN'
p2674
aS'dishes_NNS'
p2675
aa(lp2676
S'operate_VB'
p2677
aS'machine_NN'
p2678
aS'swallow_NN'
p2679
aS'pill_NN'
p2680
aa(lp2681
S'operate_VB'
p2682
aS'machine_NN'
p2683
aS'swear_VB'
p2684
aS'oath_NN'
p2685
aa(lp2686
S'operate_VB'
p2687
aS'machine_NN'
p2688
aS'elect_VB'
p2689
aS'president_NN'
p2690
aa(lp2691
S'operate_VB'
p2692
aS'machine_NN'
p2693
aS'hire_VB'
p2694
aS'employee_NN'
p2695
aa(lp2696
S'operate_VB'
p2697
aS'machine_NN'
p2698
aS'compose_VB'
p2699
aS'symphony_NN'
p2700
aa(lp2701
S'operate_VB'
p2702
aS'machine_NN'
p2703
aS'pet_NN'
p2704
aS'cat_NN'
p2705
aa(lp2706
S'operate_VB'
p2707
aS'machine_NN'
p2708
aS'swat_NN'
p2709
aS'fly_VB'
p2710
aa(lp2711
S'operate_VB'
p2712
aS'machine_NN'
p2713
aS'send_VB'
p2714
aS'message_NN'
p2715
aa(lp2716
S'climb_VB'
p2717
aS'ladder_NN'
p2718
aS'sing_VB'
p2719
aS'song_NN'
p2720
aa(lp2721
S'climb_VB'
p2722
aS'ladder_NN'
p2723
aS'drink_NN'
p2724
aS'water_NN'
p2725
aa(lp2726
S'climb_VB'
p2727
aS'ladder_NN'
p2728
aS'read_VB'
p2729
aS'book_NN'
p2730
aa(lp2731
S'climb_VB'
p2732
aS'ladder_NN'
p2733
aS'eat_VB'
p2734
aS'food_NN'
p2735
aa(lp2736
S'climb_VB'
p2737
aS'ladder_NN'
p2738
aS'wear_VB'
p2739
aS'coat_NN'
p2740
aa(lp2741
S'climb_VB'
p2742
aS'ladder_NN'
p2743
aS'drive_NN'
p2744
aS'car_NN'
p2745
aa(lp2746
S'climb_VB'
p2747
aS'ladder_NN'
p2748
aS'ride_NN'
p2749
aS'horse_NN'
p2750
aa(lp2751
S'climb_VB'
p2752
aS'ladder_NN'
p2753
aS'give_VB'
p2754
aS'gift_NN'
p2755
aa(lp2756
S'climb_VB'
p2757
aS'ladder_NN'
p2758
aS'attack_NN'
p2759
aS'enemy_NN'
p2760
aa(lp2761
S'climb_VB'
p2762
aS'ladder_NN'
p2763
aS'say_VB'
p2764
aS'word_NN'
p2765
aa(lp2766
S'climb_VB'
p2767
aS'ladder_NN'
p2768
aS'open_JJ'
p2769
aS'door_NN'
p2770
aa(lp2771
S'climb_VB'
p2772
aS'ladder_NN'
p2773
aS'climb_VB'
p2774
aS'tree_NN'
p2775
aa(lp2776
S'climb_VB'
p2777
aS'ladder_NN'
p2778
aS'heal_VB'
p2779
aS'wound_NN'
p2780
aa(lp2781
S'climb_VB'
p2782
aS'ladder_NN'
p2783
aS'cure_NN'
p2784
aS'disease_NN'
p2785
aa(lp2786
S'climb_VB'
p2787
aS'ladder_NN'
p2788
aS'paint_NN'
p2789
aS'picture_NN'
p2790
aa(lp2791
S'climb_VB'
p2792
aS'ladder_NN'
p2793
aS'operate_VB'
p2794
aS'machine_NN'
p2795
aa(lp2796
S'climb_VB'
p2797
aS'ladder_NN'
p2798
aS'play_VB'
p2799
aS'game_NN'
p2800
aa(lp2801
S'climb_VB'
p2802
aS'ladder_NN'
p2803
aS'pursue_VB'
p2804
aS'quarry_NN'
p2805
aa(lp2806
S'climb_VB'
p2807
aS'ladder_NN'
p2808
aS'shoot_VB'
p2809
aS'gun_NN'
p2810
aa(lp2811
S'climb_VB'
p2812
aS'ladder_NN'
p2813
aS'sail_NN'
p2814
aS'boat_NN'
p2815
aa(lp2816
S'climb_VB'
p2817
aS'ladder_NN'
p2818
aS'brush_NN'
p2819
aS'hair_NN'
p2820
aa(lp2821
S'climb_VB'
p2822
aS'ladder_NN'
p2823
aS'write_VB'
p2824
aS'letter_NN'
p2825
aa(lp2826
S'climb_VB'
p2827
aS'ladder_NN'
p2828
aS'say_VB'
p2829
aS'word_NN'
p2830
aa(lp2831
S'climb_VB'
p2832
aS'ladder_NN'
p2833
aS'wield_VB'
p2834
aS'sword_NN'
p2835
aa(lp2836
S'climb_VB'
p2837
aS'ladder_NN'
p2838
aS'carry_VB'
p2839
aS'burden_NN'
p2840
aa(lp2841
S'climb_VB'
p2842
aS'ladder_NN'
p2843
aS'wash_NN'
p2844
aS'dishes_NNS'
p2845
aa(lp2846
S'climb_VB'
p2847
aS'ladder_NN'
p2848
aS'swallow_NN'
p2849
aS'pill_NN'
p2850
aa(lp2851
S'climb_VB'
p2852
aS'ladder_NN'
p2853
aS'swear_VB'
p2854
aS'oath_NN'
p2855
aa(lp2856
S'climb_VB'
p2857
aS'ladder_NN'
p2858
aS'elect_VB'
p2859
aS'president_NN'
p2860
aa(lp2861
S'climb_VB'
p2862
aS'ladder_NN'
p2863
aS'hire_VB'
p2864
aS'employee_NN'
p2865
aa(lp2866
S'climb_VB'
p2867
aS'ladder_NN'
p2868
aS'compose_VB'
p2869
aS'symphony_NN'
p2870
aa(lp2871
S'climb_VB'
p2872
aS'ladder_NN'
p2873
aS'pet_NN'
p2874
aS'cat_NN'
p2875
aa(lp2876
S'climb_VB'
p2877
aS'ladder_NN'
p2878
aS'swat_NN'
p2879
aS'fly_VB'
p2880
aa(lp2881
S'climb_VB'
p2882
aS'ladder_NN'
p2883
aS'send_VB'
p2884
aS'message_NN'
p2885
aa(lp2886
S'play_VB'
p2887
aS'game_NN'
p2888
aS'sing_VB'
p2889
aS'song_NN'
p2890
aa(lp2891
S'play_VB'
p2892
aS'game_NN'
p2893
aS'drink_NN'
p2894
aS'water_NN'
p2895
aa(lp2896
S'play_VB'
p2897
aS'game_NN'
p2898
aS'read_VB'
p2899
aS'book_NN'
p2900
aa(lp2901
S'play_VB'
p2902
aS'game_NN'
p2903
aS'eat_VB'
p2904
aS'food_NN'
p2905
aa(lp2906
S'play_VB'
p2907
aS'game_NN'
p2908
aS'wear_VB'
p2909
aS'coat_NN'
p2910
aa(lp2911
S'play_VB'
p2912
aS'game_NN'
p2913
aS'drive_NN'
p2914
aS'car_NN'
p2915
aa(lp2916
S'play_VB'
p2917
aS'game_NN'
p2918
aS'ride_NN'
p2919
aS'horse_NN'
p2920
aa(lp2921
S'play_VB'
p2922
aS'game_NN'
p2923
aS'give_VB'
p2924
aS'gift_NN'
p2925
aa(lp2926
S'play_VB'
p2927
aS'game_NN'
p2928
aS'attack_NN'
p2929
aS'enemy_NN'
p2930
aa(lp2931
S'play_VB'
p2932
aS'game_NN'
p2933
aS'say_VB'
p2934
aS'word_NN'
p2935
aa(lp2936
S'play_VB'
p2937
aS'game_NN'
p2938
aS'open_JJ'
p2939
aS'door_NN'
p2940
aa(lp2941
S'play_VB'
p2942
aS'game_NN'
p2943
aS'climb_VB'
p2944
aS'tree_NN'
p2945
aa(lp2946
S'play_VB'
p2947
aS'game_NN'
p2948
aS'heal_VB'
p2949
aS'wound_NN'
p2950
aa(lp2951
S'play_VB'
p2952
aS'game_NN'
p2953
aS'cure_NN'
p2954
aS'disease_NN'
p2955
aa(lp2956
S'play_VB'
p2957
aS'game_NN'
p2958
aS'paint_NN'
p2959
aS'picture_NN'
p2960
aa(lp2961
S'play_VB'
p2962
aS'game_NN'
p2963
aS'operate_VB'
p2964
aS'machine_NN'
p2965
aa(lp2966
S'play_VB'
p2967
aS'game_NN'
p2968
aS'climb_VB'
p2969
aS'ladder_NN'
p2970
aa(lp2971
S'play_VB'
p2972
aS'game_NN'
p2973
aS'pursue_VB'
p2974
aS'quarry_NN'
p2975
aa(lp2976
S'play_VB'
p2977
aS'game_NN'
p2978
aS'shoot_VB'
p2979
aS'gun_NN'
p2980
aa(lp2981
S'play_VB'
p2982
aS'game_NN'
p2983
aS'sail_NN'
p2984
aS'boat_NN'
p2985
aa(lp2986
S'play_VB'
p2987
aS'game_NN'
p2988
aS'brush_NN'
p2989
aS'hair_NN'
p2990
aa(lp2991
S'play_VB'
p2992
aS'game_NN'
p2993
aS'write_VB'
p2994
aS'letter_NN'
p2995
aa(lp2996
S'play_VB'
p2997
aS'game_NN'
p2998
aS'say_VB'
p2999
aS'word_NN'
p3000
aa(lp3001
S'play_VB'
p3002
aS'game_NN'
p3003
aS'wield_VB'
p3004
aS'sword_NN'
p3005
aa(lp3006
S'play_VB'
p3007
aS'game_NN'
p3008
aS'carry_VB'
p3009
aS'burden_NN'
p3010
aa(lp3011
S'play_VB'
p3012
aS'game_NN'
p3013
aS'wash_NN'
p3014
aS'dishes_NNS'
p3015
aa(lp3016
S'play_VB'
p3017
aS'game_NN'
p3018
aS'swallow_NN'
p3019
aS'pill_NN'
p3020
aa(lp3021
S'play_VB'
p3022
aS'game_NN'
p3023
aS'swear_VB'
p3024
aS'oath_NN'
p3025
aa(lp3026
S'play_VB'
p3027
aS'game_NN'
p3028
aS'elect_VB'
p3029
aS'president_NN'
p3030
aa(lp3031
S'play_VB'
p3032
aS'game_NN'
p3033
aS'hire_VB'
p3034
aS'employee_NN'
p3035
aa(lp3036
S'play_VB'
p3037
aS'game_NN'
p3038
aS'compose_VB'
p3039
aS'symphony_NN'
p3040
aa(lp3041
S'play_VB'
p3042
aS'game_NN'
p3043
aS'pet_NN'
p3044
aS'cat_NN'
p3045
aa(lp3046
S'play_VB'
p3047
aS'game_NN'
p3048
aS'swat_NN'
p3049
aS'fly_VB'
p3050
aa(lp3051
S'play_VB'
p3052
aS'game_NN'
p3053
aS'send_VB'
p3054
aS'message_NN'
p3055
aa(lp3056
S'pursue_VB'
p3057
aS'quarry_NN'
p3058
aS'sing_VB'
p3059
aS'song_NN'
p3060
aa(lp3061
S'pursue_VB'
p3062
aS'quarry_NN'
p3063
aS'drink_NN'
p3064
aS'water_NN'
p3065
aa(lp3066
S'pursue_VB'
p3067
aS'quarry_NN'
p3068
aS'read_VB'
p3069
aS'book_NN'
p3070
aa(lp3071
S'pursue_VB'
p3072
aS'quarry_NN'
p3073
aS'eat_VB'
p3074
aS'food_NN'
p3075
aa(lp3076
S'pursue_VB'
p3077
aS'quarry_NN'
p3078
aS'wear_VB'
p3079
aS'coat_NN'
p3080
aa(lp3081
S'pursue_VB'
p3082
aS'quarry_NN'
p3083
aS'drive_NN'
p3084
aS'car_NN'
p3085
aa(lp3086
S'pursue_VB'
p3087
aS'quarry_NN'
p3088
aS'ride_NN'
p3089
aS'horse_NN'
p3090
aa(lp3091
S'pursue_VB'
p3092
aS'quarry_NN'
p3093
aS'give_VB'
p3094
aS'gift_NN'
p3095
aa(lp3096
S'pursue_VB'
p3097
aS'quarry_NN'
p3098
aS'attack_NN'
p3099
aS'enemy_NN'
p3100
aa(lp3101
S'pursue_VB'
p3102
aS'quarry_NN'
p3103
aS'say_VB'
p3104
aS'word_NN'
p3105
aa(lp3106
S'pursue_VB'
p3107
aS'quarry_NN'
p3108
aS'open_JJ'
p3109
aS'door_NN'
p3110
aa(lp3111
S'pursue_VB'
p3112
aS'quarry_NN'
p3113
aS'climb_VB'
p3114
aS'tree_NN'
p3115
aa(lp3116
S'pursue_VB'
p3117
aS'quarry_NN'
p3118
aS'heal_VB'
p3119
aS'wound_NN'
p3120
aa(lp3121
S'pursue_VB'
p3122
aS'quarry_NN'
p3123
aS'cure_NN'
p3124
aS'disease_NN'
p3125
aa(lp3126
S'pursue_VB'
p3127
aS'quarry_NN'
p3128
aS'paint_NN'
p3129
aS'picture_NN'
p3130
aa(lp3131
S'pursue_VB'
p3132
aS'quarry_NN'
p3133
aS'operate_VB'
p3134
aS'machine_NN'
p3135
aa(lp3136
S'pursue_VB'
p3137
aS'quarry_NN'
p3138
aS'climb_VB'
p3139
aS'ladder_NN'
p3140
aa(lp3141
S'pursue_VB'
p3142
aS'quarry_NN'
p3143
aS'play_VB'
p3144
aS'game_NN'
p3145
aa(lp3146
S'pursue_VB'
p3147
aS'quarry_NN'
p3148
aS'shoot_VB'
p3149
aS'gun_NN'
p3150
aa(lp3151
S'pursue_VB'
p3152
aS'quarry_NN'
p3153
aS'sail_NN'
p3154
aS'boat_NN'
p3155
aa(lp3156
S'pursue_VB'
p3157
aS'quarry_NN'
p3158
aS'brush_NN'
p3159
aS'hair_NN'
p3160
aa(lp3161
S'pursue_VB'
p3162
aS'quarry_NN'
p3163
aS'write_VB'
p3164
aS'letter_NN'
p3165
aa(lp3166
S'pursue_VB'
p3167
aS'quarry_NN'
p3168
aS'say_VB'
p3169
aS'word_NN'
p3170
aa(lp3171
S'pursue_VB'
p3172
aS'quarry_NN'
p3173
aS'wield_VB'
p3174
aS'sword_NN'
p3175
aa(lp3176
S'pursue_VB'
p3177
aS'quarry_NN'
p3178
aS'carry_VB'
p3179
aS'burden_NN'
p3180
aa(lp3181
S'pursue_VB'
p3182
aS'quarry_NN'
p3183
aS'wash_NN'
p3184
aS'dishes_NNS'
p3185
aa(lp3186
S'pursue_VB'
p3187
aS'quarry_NN'
p3188
aS'swallow_NN'
p3189
aS'pill_NN'
p3190
aa(lp3191
S'pursue_VB'
p3192
aS'quarry_NN'
p3193
aS'swear_VB'
p3194
aS'oath_NN'
p3195
aa(lp3196
S'pursue_VB'
p3197
aS'quarry_NN'
p3198
aS'elect_VB'
p3199
aS'president_NN'
p3200
aa(lp3201
S'pursue_VB'
p3202
aS'quarry_NN'
p3203
aS'hire_VB'
p3204
aS'employee_NN'
p3205
aa(lp3206
S'pursue_VB'
p3207
aS'quarry_NN'
p3208
aS'compose_VB'
p3209
aS'symphony_NN'
p3210
aa(lp3211
S'pursue_VB'
p3212
aS'quarry_NN'
p3213
aS'pet_NN'
p3214
aS'cat_NN'
p3215
aa(lp3216
S'pursue_VB'
p3217
aS'quarry_NN'
p3218
aS'swat_NN'
p3219
aS'fly_VB'
p3220
aa(lp3221
S'pursue_VB'
p3222
aS'quarry_NN'
p3223
aS'send_VB'
p3224
aS'message_NN'
p3225
aa(lp3226
S'shoot_VB'
p3227
aS'gun_NN'
p3228
aS'sing_VB'
p3229
aS'song_NN'
p3230
aa(lp3231
S'shoot_VB'
p3232
aS'gun_NN'
p3233
aS'drink_NN'
p3234
aS'water_NN'
p3235
aa(lp3236
S'shoot_VB'
p3237
aS'gun_NN'
p3238
aS'read_VB'
p3239
aS'book_NN'
p3240
aa(lp3241
S'shoot_VB'
p3242
aS'gun_NN'
p3243
aS'eat_VB'
p3244
aS'food_NN'
p3245
aa(lp3246
S'shoot_VB'
p3247
aS'gun_NN'
p3248
aS'wear_VB'
p3249
aS'coat_NN'
p3250
aa(lp3251
S'shoot_VB'
p3252
aS'gun_NN'
p3253
aS'drive_NN'
p3254
aS'car_NN'
p3255
aa(lp3256
S'shoot_VB'
p3257
aS'gun_NN'
p3258
aS'ride_NN'
p3259
aS'horse_NN'
p3260
aa(lp3261
S'shoot_VB'
p3262
aS'gun_NN'
p3263
aS'give_VB'
p3264
aS'gift_NN'
p3265
aa(lp3266
S'shoot_VB'
p3267
aS'gun_NN'
p3268
aS'attack_NN'
p3269
aS'enemy_NN'
p3270
aa(lp3271
S'shoot_VB'
p3272
aS'gun_NN'
p3273
aS'say_VB'
p3274
aS'word_NN'
p3275
aa(lp3276
S'shoot_VB'
p3277
aS'gun_NN'
p3278
aS'open_JJ'
p3279
aS'door_NN'
p3280
aa(lp3281
S'shoot_VB'
p3282
aS'gun_NN'
p3283
aS'climb_VB'
p3284
aS'tree_NN'
p3285
aa(lp3286
S'shoot_VB'
p3287
aS'gun_NN'
p3288
aS'heal_VB'
p3289
aS'wound_NN'
p3290
aa(lp3291
S'shoot_VB'
p3292
aS'gun_NN'
p3293
aS'cure_NN'
p3294
aS'disease_NN'
p3295
aa(lp3296
S'shoot_VB'
p3297
aS'gun_NN'
p3298
aS'paint_NN'
p3299
aS'picture_NN'
p3300
aa(lp3301
S'shoot_VB'
p3302
aS'gun_NN'
p3303
aS'operate_VB'
p3304
aS'machine_NN'
p3305
aa(lp3306
S'shoot_VB'
p3307
aS'gun_NN'
p3308
aS'climb_VB'
p3309
aS'ladder_NN'
p3310
aa(lp3311
S'shoot_VB'
p3312
aS'gun_NN'
p3313
aS'play_VB'
p3314
aS'game_NN'
p3315
aa(lp3316
S'shoot_VB'
p3317
aS'gun_NN'
p3318
aS'pursue_VB'
p3319
aS'quarry_NN'
p3320
aa(lp3321
S'shoot_VB'
p3322
aS'gun_NN'
p3323
aS'sail_NN'
p3324
aS'boat_NN'
p3325
aa(lp3326
S'shoot_VB'
p3327
aS'gun_NN'
p3328
aS'brush_NN'
p3329
aS'hair_NN'
p3330
aa(lp3331
S'shoot_VB'
p3332
aS'gun_NN'
p3333
aS'write_VB'
p3334
aS'letter_NN'
p3335
aa(lp3336
S'shoot_VB'
p3337
aS'gun_NN'
p3338
aS'say_VB'
p3339
aS'word_NN'
p3340
aa(lp3341
S'shoot_VB'
p3342
aS'gun_NN'
p3343
aS'wield_VB'
p3344
aS'sword_NN'
p3345
aa(lp3346
S'shoot_VB'
p3347
aS'gun_NN'
p3348
aS'carry_VB'
p3349
aS'burden_NN'
p3350
aa(lp3351
S'shoot_VB'
p3352
aS'gun_NN'
p3353
aS'wash_NN'
p3354
aS'dishes_NNS'
p3355
aa(lp3356
S'shoot_VB'
p3357
aS'gun_NN'
p3358
aS'swallow_NN'
p3359
aS'pill_NN'
p3360
aa(lp3361
S'shoot_VB'
p3362
aS'gun_NN'
p3363
aS'swear_VB'
p3364
aS'oath_NN'
p3365
aa(lp3366
S'shoot_VB'
p3367
aS'gun_NN'
p3368
aS'elect_VB'
p3369
aS'president_NN'
p3370
aa(lp3371
S'shoot_VB'
p3372
aS'gun_NN'
p3373
aS'hire_VB'
p3374
aS'employee_NN'
p3375
aa(lp3376
S'shoot_VB'
p3377
aS'gun_NN'
p3378
aS'compose_VB'
p3379
aS'symphony_NN'
p3380
aa(lp3381
S'shoot_VB'
p3382
aS'gun_NN'
p3383
aS'pet_NN'
p3384
aS'cat_NN'
p3385
aa(lp3386
S'shoot_VB'
p3387
aS'gun_NN'
p3388
aS'swat_NN'
p3389
aS'fly_VB'
p3390
aa(lp3391
S'shoot_VB'
p3392
aS'gun_NN'
p3393
aS'send_VB'
p3394
aS'message_NN'
p3395
aa(lp3396
S'sail_NN'
p3397
aS'boat_NN'
p3398
aS'sing_VB'
p3399
aS'song_NN'
p3400
aa(lp3401
S'sail_NN'
p3402
aS'boat_NN'
p3403
aS'drink_NN'
p3404
aS'water_NN'
p3405
aa(lp3406
S'sail_NN'
p3407
aS'boat_NN'
p3408
aS'read_VB'
p3409
aS'book_NN'
p3410
aa(lp3411
S'sail_NN'
p3412
aS'boat_NN'
p3413
aS'eat_VB'
p3414
aS'food_NN'
p3415
aa(lp3416
S'sail_NN'
p3417
aS'boat_NN'
p3418
aS'wear_VB'
p3419
aS'coat_NN'
p3420
aa(lp3421
S'sail_NN'
p3422
aS'boat_NN'
p3423
aS'drive_NN'
p3424
aS'car_NN'
p3425
aa(lp3426
S'sail_NN'
p3427
aS'boat_NN'
p3428
aS'ride_NN'
p3429
aS'horse_NN'
p3430
aa(lp3431
S'sail_NN'
p3432
aS'boat_NN'
p3433
aS'give_VB'
p3434
aS'gift_NN'
p3435
aa(lp3436
S'sail_NN'
p3437
aS'boat_NN'
p3438
aS'attack_NN'
p3439
aS'enemy_NN'
p3440
aa(lp3441
S'sail_NN'
p3442
aS'boat_NN'
p3443
aS'say_VB'
p3444
aS'word_NN'
p3445
aa(lp3446
S'sail_NN'
p3447
aS'boat_NN'
p3448
aS'open_JJ'
p3449
aS'door_NN'
p3450
aa(lp3451
S'sail_NN'
p3452
aS'boat_NN'
p3453
aS'climb_VB'
p3454
aS'tree_NN'
p3455
aa(lp3456
S'sail_NN'
p3457
aS'boat_NN'
p3458
aS'heal_VB'
p3459
aS'wound_NN'
p3460
aa(lp3461
S'sail_NN'
p3462
aS'boat_NN'
p3463
aS'cure_NN'
p3464
aS'disease_NN'
p3465
aa(lp3466
S'sail_NN'
p3467
aS'boat_NN'
p3468
aS'paint_NN'
p3469
aS'picture_NN'
p3470
aa(lp3471
S'sail_NN'
p3472
aS'boat_NN'
p3473
aS'operate_VB'
p3474
aS'machine_NN'
p3475
aa(lp3476
S'sail_NN'
p3477
aS'boat_NN'
p3478
aS'climb_VB'
p3479
aS'ladder_NN'
p3480
aa(lp3481
S'sail_NN'
p3482
aS'boat_NN'
p3483
aS'play_VB'
p3484
aS'game_NN'
p3485
aa(lp3486
S'sail_NN'
p3487
aS'boat_NN'
p3488
aS'pursue_VB'
p3489
aS'quarry_NN'
p3490
aa(lp3491
S'sail_NN'
p3492
aS'boat_NN'
p3493
aS'shoot_VB'
p3494
aS'gun_NN'
p3495
aa(lp3496
S'sail_NN'
p3497
aS'boat_NN'
p3498
aS'brush_NN'
p3499
aS'hair_NN'
p3500
aa(lp3501
S'sail_NN'
p3502
aS'boat_NN'
p3503
aS'write_VB'
p3504
aS'letter_NN'
p3505
aa(lp3506
S'sail_NN'
p3507
aS'boat_NN'
p3508
aS'say_VB'
p3509
aS'word_NN'
p3510
aa(lp3511
S'sail_NN'
p3512
aS'boat_NN'
p3513
aS'wield_VB'
p3514
aS'sword_NN'
p3515
aa(lp3516
S'sail_NN'
p3517
aS'boat_NN'
p3518
aS'carry_VB'
p3519
aS'burden_NN'
p3520
aa(lp3521
S'sail_NN'
p3522
aS'boat_NN'
p3523
aS'wash_NN'
p3524
aS'dishes_NNS'
p3525
aa(lp3526
S'sail_NN'
p3527
aS'boat_NN'
p3528
aS'swallow_NN'
p3529
aS'pill_NN'
p3530
aa(lp3531
S'sail_NN'
p3532
aS'boat_NN'
p3533
aS'swear_VB'
p3534
aS'oath_NN'
p3535
aa(lp3536
S'sail_NN'
p3537
aS'boat_NN'
p3538
aS'elect_VB'
p3539
aS'president_NN'
p3540
aa(lp3541
S'sail_NN'
p3542
aS'boat_NN'
p3543
aS'hire_VB'
p3544
aS'employee_NN'
p3545
aa(lp3546
S'sail_NN'
p3547
aS'boat_NN'
p3548
aS'compose_VB'
p3549
aS'symphony_NN'
p3550
aa(lp3551
S'sail_NN'
p3552
aS'boat_NN'
p3553
aS'pet_NN'
p3554
aS'cat_NN'
p3555
aa(lp3556
S'sail_NN'
p3557
aS'boat_NN'
p3558
aS'swat_NN'
p3559
aS'fly_VB'
p3560
aa(lp3561
S'sail_NN'
p3562
aS'boat_NN'
p3563
aS'send_VB'
p3564
aS'message_NN'
p3565
aa(lp3566
S'brush_NN'
p3567
aS'hair_NN'
p3568
aS'sing_VB'
p3569
aS'song_NN'
p3570
aa(lp3571
S'brush_NN'
p3572
aS'hair_NN'
p3573
aS'drink_NN'
p3574
aS'water_NN'
p3575
aa(lp3576
S'brush_NN'
p3577
aS'hair_NN'
p3578
aS'read_VB'
p3579
aS'book_NN'
p3580
aa(lp3581
S'brush_NN'
p3582
aS'hair_NN'
p3583
aS'eat_VB'
p3584
aS'food_NN'
p3585
aa(lp3586
S'brush_NN'
p3587
aS'hair_NN'
p3588
aS'wear_VB'
p3589
aS'coat_NN'
p3590
aa(lp3591
S'brush_NN'
p3592
aS'hair_NN'
p3593
aS'drive_NN'
p3594
aS'car_NN'
p3595
aa(lp3596
S'brush_NN'
p3597
aS'hair_NN'
p3598
aS'ride_NN'
p3599
aS'horse_NN'
p3600
aa(lp3601
S'brush_NN'
p3602
aS'hair_NN'
p3603
aS'give_VB'
p3604
aS'gift_NN'
p3605
aa(lp3606
S'brush_NN'
p3607
aS'hair_NN'
p3608
aS'attack_NN'
p3609
aS'enemy_NN'
p3610
aa(lp3611
S'brush_NN'
p3612
aS'hair_NN'
p3613
aS'say_VB'
p3614
aS'word_NN'
p3615
aa(lp3616
S'brush_NN'
p3617
aS'hair_NN'
p3618
aS'open_JJ'
p3619
aS'door_NN'
p3620
aa(lp3621
S'brush_NN'
p3622
aS'hair_NN'
p3623
aS'climb_VB'
p3624
aS'tree_NN'
p3625
aa(lp3626
S'brush_NN'
p3627
aS'hair_NN'
p3628
aS'heal_VB'
p3629
aS'wound_NN'
p3630
aa(lp3631
S'brush_NN'
p3632
aS'hair_NN'
p3633
aS'cure_NN'
p3634
aS'disease_NN'
p3635
aa(lp3636
S'brush_NN'
p3637
aS'hair_NN'
p3638
aS'paint_NN'
p3639
aS'picture_NN'
p3640
aa(lp3641
S'brush_NN'
p3642
aS'hair_NN'
p3643
aS'operate_VB'
p3644
aS'machine_NN'
p3645
aa(lp3646
S'brush_NN'
p3647
aS'hair_NN'
p3648
aS'climb_VB'
p3649
aS'ladder_NN'
p3650
aa(lp3651
S'brush_NN'
p3652
aS'hair_NN'
p3653
aS'play_VB'
p3654
aS'game_NN'
p3655
aa(lp3656
S'brush_NN'
p3657
aS'hair_NN'
p3658
aS'pursue_VB'
p3659
aS'quarry_NN'
p3660
aa(lp3661
S'brush_NN'
p3662
aS'hair_NN'
p3663
aS'shoot_VB'
p3664
aS'gun_NN'
p3665
aa(lp3666
S'brush_NN'
p3667
aS'hair_NN'
p3668
aS'sail_NN'
p3669
aS'boat_NN'
p3670
aa(lp3671
S'brush_NN'
p3672
aS'hair_NN'
p3673
aS'write_VB'
p3674
aS'letter_NN'
p3675
aa(lp3676
S'brush_NN'
p3677
aS'hair_NN'
p3678
aS'say_VB'
p3679
aS'word_NN'
p3680
aa(lp3681
S'brush_NN'
p3682
aS'hair_NN'
p3683
aS'wield_VB'
p3684
aS'sword_NN'
p3685
aa(lp3686
S'brush_NN'
p3687
aS'hair_NN'
p3688
aS'carry_VB'
p3689
aS'burden_NN'
p3690
aa(lp3691
S'brush_NN'
p3692
aS'hair_NN'
p3693
aS'wash_NN'
p3694
aS'dishes_NNS'
p3695
aa(lp3696
S'brush_NN'
p3697
aS'hair_NN'
p3698
aS'swallow_NN'
p3699
aS'pill_NN'
p3700
aa(lp3701
S'brush_NN'
p3702
aS'hair_NN'
p3703
aS'swear_VB'
p3704
aS'oath_NN'
p3705
aa(lp3706
S'brush_NN'
p3707
aS'hair_NN'
p3708
aS'elect_VB'
p3709
aS'president_NN'
p3710
aa(lp3711
S'brush_NN'
p3712
aS'hair_NN'
p3713
aS'hire_VB'
p3714
aS'employee_NN'
p3715
aa(lp3716
S'brush_NN'
p3717
aS'hair_NN'
p3718
aS'compose_VB'
p3719
aS'symphony_NN'
p3720
aa(lp3721
S'brush_NN'
p3722
aS'hair_NN'
p3723
aS'pet_NN'
p3724
aS'cat_NN'
p3725
aa(lp3726
S'brush_NN'
p3727
aS'hair_NN'
p3728
aS'swat_NN'
p3729
aS'fly_VB'
p3730
aa(lp3731
S'brush_NN'
p3732
aS'hair_NN'
p3733
aS'send_VB'
p3734
aS'message_NN'
p3735
aa(lp3736
S'write_VB'
p3737
aS'letter_NN'
p3738
aS'sing_VB'
p3739
aS'song_NN'
p3740
aa(lp3741
S'write_VB'
p3742
aS'letter_NN'
p3743
aS'drink_NN'
p3744
aS'water_NN'
p3745
aa(lp3746
S'write_VB'
p3747
aS'letter_NN'
p3748
aS'read_VB'
p3749
aS'book_NN'
p3750
aa(lp3751
S'write_VB'
p3752
aS'letter_NN'
p3753
aS'eat_VB'
p3754
aS'food_NN'
p3755
aa(lp3756
S'write_VB'
p3757
aS'letter_NN'
p3758
aS'wear_VB'
p3759
aS'coat_NN'
p3760
aa(lp3761
S'write_VB'
p3762
aS'letter_NN'
p3763
aS'drive_NN'
p3764
aS'car_NN'
p3765
aa(lp3766
S'write_VB'
p3767
aS'letter_NN'
p3768
aS'ride_NN'
p3769
aS'horse_NN'
p3770
aa(lp3771
S'write_VB'
p3772
aS'letter_NN'
p3773
aS'give_VB'
p3774
aS'gift_NN'
p3775
aa(lp3776
S'write_VB'
p3777
aS'letter_NN'
p3778
aS'attack_NN'
p3779
aS'enemy_NN'
p3780
aa(lp3781
S'write_VB'
p3782
aS'letter_NN'
p3783
aS'say_VB'
p3784
aS'word_NN'
p3785
aa(lp3786
S'write_VB'
p3787
aS'letter_NN'
p3788
aS'open_JJ'
p3789
aS'door_NN'
p3790
aa(lp3791
S'write_VB'
p3792
aS'letter_NN'
p3793
aS'climb_VB'
p3794
aS'tree_NN'
p3795
aa(lp3796
S'write_VB'
p3797
aS'letter_NN'
p3798
aS'heal_VB'
p3799
aS'wound_NN'
p3800
aa(lp3801
S'write_VB'
p3802
aS'letter_NN'
p3803
aS'cure_NN'
p3804
aS'disease_NN'
p3805
aa(lp3806
S'write_VB'
p3807
aS'letter_NN'
p3808
aS'paint_NN'
p3809
aS'picture_NN'
p3810
aa(lp3811
S'write_VB'
p3812
aS'letter_NN'
p3813
aS'operate_VB'
p3814
aS'machine_NN'
p3815
aa(lp3816
S'write_VB'
p3817
aS'letter_NN'
p3818
aS'climb_VB'
p3819
aS'ladder_NN'
p3820
aa(lp3821
S'write_VB'
p3822
aS'letter_NN'
p3823
aS'play_VB'
p3824
aS'game_NN'
p3825
aa(lp3826
S'write_VB'
p3827
aS'letter_NN'
p3828
aS'pursue_VB'
p3829
aS'quarry_NN'
p3830
aa(lp3831
S'write_VB'
p3832
aS'letter_NN'
p3833
aS'shoot_VB'
p3834
aS'gun_NN'
p3835
aa(lp3836
S'write_VB'
p3837
aS'letter_NN'
p3838
aS'sail_NN'
p3839
aS'boat_NN'
p3840
aa(lp3841
S'write_VB'
p3842
aS'letter_NN'
p3843
aS'brush_NN'
p3844
aS'hair_NN'
p3845
aa(lp3846
S'write_VB'
p3847
aS'letter_NN'
p3848
aS'say_VB'
p3849
aS'word_NN'
p3850
aa(lp3851
S'write_VB'
p3852
aS'letter_NN'
p3853
aS'wield_VB'
p3854
aS'sword_NN'
p3855
aa(lp3856
S'write_VB'
p3857
aS'letter_NN'
p3858
aS'carry_VB'
p3859
aS'burden_NN'
p3860
aa(lp3861
S'write_VB'
p3862
aS'letter_NN'
p3863
aS'wash_NN'
p3864
aS'dishes_NNS'
p3865
aa(lp3866
S'write_VB'
p3867
aS'letter_NN'
p3868
aS'swallow_NN'
p3869
aS'pill_NN'
p3870
aa(lp3871
S'write_VB'
p3872
aS'letter_NN'
p3873
aS'swear_VB'
p3874
aS'oath_NN'
p3875
aa(lp3876
S'write_VB'
p3877
aS'letter_NN'
p3878
aS'elect_VB'
p3879
aS'president_NN'
p3880
aa(lp3881
S'write_VB'
p3882
aS'letter_NN'
p3883
aS'hire_VB'
p3884
aS'employee_NN'
p3885
aa(lp3886
S'write_VB'
p3887
aS'letter_NN'
p3888
aS'compose_VB'
p3889
aS'symphony_NN'
p3890
aa(lp3891
S'write_VB'
p3892
aS'letter_NN'
p3893
aS'pet_NN'
p3894
aS'cat_NN'
p3895
aa(lp3896
S'write_VB'
p3897
aS'letter_NN'
p3898
aS'swat_NN'
p3899
aS'fly_VB'
p3900
aa(lp3901
S'write_VB'
p3902
aS'letter_NN'
p3903
aS'send_VB'
p3904
aS'message_NN'
p3905
aa(lp3906
S'say_VB'
p3907
aS'word_NN'
p3908
aS'sing_VB'
p3909
aS'song_NN'
p3910
aa(lp3911
S'say_VB'
p3912
aS'word_NN'
p3913
aS'drink_NN'
p3914
aS'water_NN'
p3915
aa(lp3916
S'say_VB'
p3917
aS'word_NN'
p3918
aS'read_VB'
p3919
aS'book_NN'
p3920
aa(lp3921
S'say_VB'
p3922
aS'word_NN'
p3923
aS'eat_VB'
p3924
aS'food_NN'
p3925
aa(lp3926
S'say_VB'
p3927
aS'word_NN'
p3928
aS'wear_VB'
p3929
aS'coat_NN'
p3930
aa(lp3931
S'say_VB'
p3932
aS'word_NN'
p3933
aS'drive_NN'
p3934
aS'car_NN'
p3935
aa(lp3936
S'say_VB'
p3937
aS'word_NN'
p3938
aS'ride_NN'
p3939
aS'horse_NN'
p3940
aa(lp3941
S'say_VB'
p3942
aS'word_NN'
p3943
aS'give_VB'
p3944
aS'gift_NN'
p3945
aa(lp3946
S'say_VB'
p3947
aS'word_NN'
p3948
aS'attack_NN'
p3949
aS'enemy_NN'
p3950
aa(lp3951
S'say_VB'
p3952
aS'word_NN'
p3953
aS'open_JJ'
p3954
aS'door_NN'
p3955
aa(lp3956
S'say_VB'
p3957
aS'word_NN'
p3958
aS'climb_VB'
p3959
aS'tree_NN'
p3960
aa(lp3961
S'say_VB'
p3962
aS'word_NN'
p3963
aS'heal_VB'
p3964
aS'wound_NN'
p3965
aa(lp3966
S'say_VB'
p3967
aS'word_NN'
p3968
aS'cure_NN'
p3969
aS'disease_NN'
p3970
aa(lp3971
S'say_VB'
p3972
aS'word_NN'
p3973
aS'paint_NN'
p3974
aS'picture_NN'
p3975
aa(lp3976
S'say_VB'
p3977
aS'word_NN'
p3978
aS'operate_VB'
p3979
aS'machine_NN'
p3980
aa(lp3981
S'say_VB'
p3982
aS'word_NN'
p3983
aS'climb_VB'
p3984
aS'ladder_NN'
p3985
aa(lp3986
S'say_VB'
p3987
aS'word_NN'
p3988
aS'play_VB'
p3989
aS'game_NN'
p3990
aa(lp3991
S'say_VB'
p3992
aS'word_NN'
p3993
aS'pursue_VB'
p3994
aS'quarry_NN'
p3995
aa(lp3996
S'say_VB'
p3997
aS'word_NN'
p3998
aS'shoot_VB'
p3999
aS'gun_NN'
p4000
aa(lp4001
S'say_VB'
p4002
aS'word_NN'
p4003
aS'sail_NN'
p4004
aS'boat_NN'
p4005
aa(lp4006
S'say_VB'
p4007
aS'word_NN'
p4008
aS'brush_NN'
p4009
aS'hair_NN'
p4010
aa(lp4011
S'say_VB'
p4012
aS'word_NN'
p4013
aS'write_VB'
p4014
aS'letter_NN'
p4015
aa(lp4016
S'say_VB'
p4017
aS'word_NN'
p4018
aS'wield_VB'
p4019
aS'sword_NN'
p4020
aa(lp4021
S'say_VB'
p4022
aS'word_NN'
p4023
aS'carry_VB'
p4024
aS'burden_NN'
p4025
aa(lp4026
S'say_VB'
p4027
aS'word_NN'
p4028
aS'wash_NN'
p4029
aS'dishes_NNS'
p4030
aa(lp4031
S'say_VB'
p4032
aS'word_NN'
p4033
aS'swallow_NN'
p4034
aS'pill_NN'
p4035
aa(lp4036
S'say_VB'
p4037
aS'word_NN'
p4038
aS'swear_VB'
p4039
aS'oath_NN'
p4040
aa(lp4041
S'say_VB'
p4042
aS'word_NN'
p4043
aS'elect_VB'
p4044
aS'president_NN'
p4045
aa(lp4046
S'say_VB'
p4047
aS'word_NN'
p4048
aS'hire_VB'
p4049
aS'employee_NN'
p4050
aa(lp4051
S'say_VB'
p4052
aS'word_NN'
p4053
aS'compose_VB'
p4054
aS'symphony_NN'
p4055
aa(lp4056
S'say_VB'
p4057
aS'word_NN'
p4058
aS'pet_NN'
p4059
aS'cat_NN'
p4060
aa(lp4061
S'say_VB'
p4062
aS'word_NN'
p4063
aS'swat_NN'
p4064
aS'fly_VB'
p4065
aa(lp4066
S'say_VB'
p4067
aS'word_NN'
p4068
aS'send_VB'
p4069
aS'message_NN'
p4070
aa(lp4071
S'wield_VB'
p4072
aS'sword_NN'
p4073
aS'sing_VB'
p4074
aS'song_NN'
p4075
aa(lp4076
S'wield_VB'
p4077
aS'sword_NN'
p4078
aS'drink_NN'
p4079
aS'water_NN'
p4080
aa(lp4081
S'wield_VB'
p4082
aS'sword_NN'
p4083
aS'read_VB'
p4084
aS'book_NN'
p4085
aa(lp4086
S'wield_VB'
p4087
aS'sword_NN'
p4088
aS'eat_VB'
p4089
aS'food_NN'
p4090
aa(lp4091
S'wield_VB'
p4092
aS'sword_NN'
p4093
aS'wear_VB'
p4094
aS'coat_NN'
p4095
aa(lp4096
S'wield_VB'
p4097
aS'sword_NN'
p4098
aS'drive_NN'
p4099
aS'car_NN'
p4100
aa(lp4101
S'wield_VB'
p4102
aS'sword_NN'
p4103
aS'ride_NN'
p4104
aS'horse_NN'
p4105
aa(lp4106
S'wield_VB'
p4107
aS'sword_NN'
p4108
aS'give_VB'
p4109
aS'gift_NN'
p4110
aa(lp4111
S'wield_VB'
p4112
aS'sword_NN'
p4113
aS'attack_NN'
p4114
aS'enemy_NN'
p4115
aa(lp4116
S'wield_VB'
p4117
aS'sword_NN'
p4118
aS'say_VB'
p4119
aS'word_NN'
p4120
aa(lp4121
S'wield_VB'
p4122
aS'sword_NN'
p4123
aS'open_JJ'
p4124
aS'door_NN'
p4125
aa(lp4126
S'wield_VB'
p4127
aS'sword_NN'
p4128
aS'climb_VB'
p4129
aS'tree_NN'
p4130
aa(lp4131
S'wield_VB'
p4132
aS'sword_NN'
p4133
aS'heal_VB'
p4134
aS'wound_NN'
p4135
aa(lp4136
S'wield_VB'
p4137
aS'sword_NN'
p4138
aS'cure_NN'
p4139
aS'disease_NN'
p4140
aa(lp4141
S'wield_VB'
p4142
aS'sword_NN'
p4143
aS'paint_NN'
p4144
aS'picture_NN'
p4145
aa(lp4146
S'wield_VB'
p4147
aS'sword_NN'
p4148
aS'operate_VB'
p4149
aS'machine_NN'
p4150
aa(lp4151
S'wield_VB'
p4152
aS'sword_NN'
p4153
aS'climb_VB'
p4154
aS'ladder_NN'
p4155
aa(lp4156
S'wield_VB'
p4157
aS'sword_NN'
p4158
aS'play_VB'
p4159
aS'game_NN'
p4160
aa(lp4161
S'wield_VB'
p4162
aS'sword_NN'
p4163
aS'pursue_VB'
p4164
aS'quarry_NN'
p4165
aa(lp4166
S'wield_VB'
p4167
aS'sword_NN'
p4168
aS'shoot_VB'
p4169
aS'gun_NN'
p4170
aa(lp4171
S'wield_VB'
p4172
aS'sword_NN'
p4173
aS'sail_NN'
p4174
aS'boat_NN'
p4175
aa(lp4176
S'wield_VB'
p4177
aS'sword_NN'
p4178
aS'brush_NN'
p4179
aS'hair_NN'
p4180
aa(lp4181
S'wield_VB'
p4182
aS'sword_NN'
p4183
aS'write_VB'
p4184
aS'letter_NN'
p4185
aa(lp4186
S'wield_VB'
p4187
aS'sword_NN'
p4188
aS'say_VB'
p4189
aS'word_NN'
p4190
aa(lp4191
S'wield_VB'
p4192
aS'sword_NN'
p4193
aS'carry_VB'
p4194
aS'burden_NN'
p4195
aa(lp4196
S'wield_VB'
p4197
aS'sword_NN'
p4198
aS'wash_NN'
p4199
aS'dishes_NNS'
p4200
aa(lp4201
S'wield_VB'
p4202
aS'sword_NN'
p4203
aS'swallow_NN'
p4204
aS'pill_NN'
p4205
aa(lp4206
S'wield_VB'
p4207
aS'sword_NN'
p4208
aS'swear_VB'
p4209
aS'oath_NN'
p4210
aa(lp4211
S'wield_VB'
p4212
aS'sword_NN'
p4213
aS'elect_VB'
p4214
aS'president_NN'
p4215
aa(lp4216
S'wield_VB'
p4217
aS'sword_NN'
p4218
aS'hire_VB'
p4219
aS'employee_NN'
p4220
aa(lp4221
S'wield_VB'
p4222
aS'sword_NN'
p4223
aS'compose_VB'
p4224
aS'symphony_NN'
p4225
aa(lp4226
S'wield_VB'
p4227
aS'sword_NN'
p4228
aS'pet_NN'
p4229
aS'cat_NN'
p4230
aa(lp4231
S'wield_VB'
p4232
aS'sword_NN'
p4233
aS'swat_NN'
p4234
aS'fly_VB'
p4235
aa(lp4236
S'wield_VB'
p4237
aS'sword_NN'
p4238
aS'send_VB'
p4239
aS'message_NN'
p4240
aa(lp4241
S'carry_VB'
p4242
aS'burden_NN'
p4243
aS'sing_VB'
p4244
aS'song_NN'
p4245
aa(lp4246
S'carry_VB'
p4247
aS'burden_NN'
p4248
aS'drink_NN'
p4249
aS'water_NN'
p4250
aa(lp4251
S'carry_VB'
p4252
aS'burden_NN'
p4253
aS'read_VB'
p4254
aS'book_NN'
p4255
aa(lp4256
S'carry_VB'
p4257
aS'burden_NN'
p4258
aS'eat_VB'
p4259
aS'food_NN'
p4260
aa(lp4261
S'carry_VB'
p4262
aS'burden_NN'
p4263
aS'wear_VB'
p4264
aS'coat_NN'
p4265
aa(lp4266
S'carry_VB'
p4267
aS'burden_NN'
p4268
aS'drive_NN'
p4269
aS'car_NN'
p4270
aa(lp4271
S'carry_VB'
p4272
aS'burden_NN'
p4273
aS'ride_NN'
p4274
aS'horse_NN'
p4275
aa(lp4276
S'carry_VB'
p4277
aS'burden_NN'
p4278
aS'give_VB'
p4279
aS'gift_NN'
p4280
aa(lp4281
S'carry_VB'
p4282
aS'burden_NN'
p4283
aS'attack_NN'
p4284
aS'enemy_NN'
p4285
aa(lp4286
S'carry_VB'
p4287
aS'burden_NN'
p4288
aS'say_VB'
p4289
aS'word_NN'
p4290
aa(lp4291
S'carry_VB'
p4292
aS'burden_NN'
p4293
aS'open_JJ'
p4294
aS'door_NN'
p4295
aa(lp4296
S'carry_VB'
p4297
aS'burden_NN'
p4298
aS'climb_VB'
p4299
aS'tree_NN'
p4300
aa(lp4301
S'carry_VB'
p4302
aS'burden_NN'
p4303
aS'heal_VB'
p4304
aS'wound_NN'
p4305
aa(lp4306
S'carry_VB'
p4307
aS'burden_NN'
p4308
aS'cure_NN'
p4309
aS'disease_NN'
p4310
aa(lp4311
S'carry_VB'
p4312
aS'burden_NN'
p4313
aS'paint_NN'
p4314
aS'picture_NN'
p4315
aa(lp4316
S'carry_VB'
p4317
aS'burden_NN'
p4318
aS'operate_VB'
p4319
aS'machine_NN'
p4320
aa(lp4321
S'carry_VB'
p4322
aS'burden_NN'
p4323
aS'climb_VB'
p4324
aS'ladder_NN'
p4325
aa(lp4326
S'carry_VB'
p4327
aS'burden_NN'
p4328
aS'play_VB'
p4329
aS'game_NN'
p4330
aa(lp4331
S'carry_VB'
p4332
aS'burden_NN'
p4333
aS'pursue_VB'
p4334
aS'quarry_NN'
p4335
aa(lp4336
S'carry_VB'
p4337
aS'burden_NN'
p4338
aS'shoot_VB'
p4339
aS'gun_NN'
p4340
aa(lp4341
S'carry_VB'
p4342
aS'burden_NN'
p4343
aS'sail_NN'
p4344
aS'boat_NN'
p4345
aa(lp4346
S'carry_VB'
p4347
aS'burden_NN'
p4348
aS'brush_NN'
p4349
aS'hair_NN'
p4350
aa(lp4351
S'carry_VB'
p4352
aS'burden_NN'
p4353
aS'write_VB'
p4354
aS'letter_NN'
p4355
aa(lp4356
S'carry_VB'
p4357
aS'burden_NN'
p4358
aS'say_VB'
p4359
aS'word_NN'
p4360
aa(lp4361
S'carry_VB'
p4362
aS'burden_NN'
p4363
aS'wield_VB'
p4364
aS'sword_NN'
p4365
aa(lp4366
S'carry_VB'
p4367
aS'burden_NN'
p4368
aS'wash_NN'
p4369
aS'dishes_NNS'
p4370
aa(lp4371
S'carry_VB'
p4372
aS'burden_NN'
p4373
aS'swallow_NN'
p4374
aS'pill_NN'
p4375
aa(lp4376
S'carry_VB'
p4377
aS'burden_NN'
p4378
aS'swear_VB'
p4379
aS'oath_NN'
p4380
aa(lp4381
S'carry_VB'
p4382
aS'burden_NN'
p4383
aS'elect_VB'
p4384
aS'president_NN'
p4385
aa(lp4386
S'carry_VB'
p4387
aS'burden_NN'
p4388
aS'hire_VB'
p4389
aS'employee_NN'
p4390
aa(lp4391
S'carry_VB'
p4392
aS'burden_NN'
p4393
aS'compose_VB'
p4394
aS'symphony_NN'
p4395
aa(lp4396
S'carry_VB'
p4397
aS'burden_NN'
p4398
aS'pet_NN'
p4399
aS'cat_NN'
p4400
aa(lp4401
S'carry_VB'
p4402
aS'burden_NN'
p4403
aS'swat_NN'
p4404
aS'fly_VB'
p4405
aa(lp4406
S'carry_VB'
p4407
aS'burden_NN'
p4408
aS'send_VB'
p4409
aS'message_NN'
p4410
aa(lp4411
S'wash_NN'
p4412
aS'dishes_NNS'
p4413
aS'sing_VB'
p4414
aS'song_NN'
p4415
aa(lp4416
S'wash_NN'
p4417
aS'dishes_NNS'
p4418
aS'drink_NN'
p4419
aS'water_NN'
p4420
aa(lp4421
S'wash_NN'
p4422
aS'dishes_NNS'
p4423
aS'read_VB'
p4424
aS'book_NN'
p4425
aa(lp4426
S'wash_NN'
p4427
aS'dishes_NNS'
p4428
aS'eat_VB'
p4429
aS'food_NN'
p4430
aa(lp4431
S'wash_NN'
p4432
aS'dishes_NNS'
p4433
aS'wear_VB'
p4434
aS'coat_NN'
p4435
aa(lp4436
S'wash_NN'
p4437
aS'dishes_NNS'
p4438
aS'drive_NN'
p4439
aS'car_NN'
p4440
aa(lp4441
S'wash_NN'
p4442
aS'dishes_NNS'
p4443
aS'ride_NN'
p4444
aS'horse_NN'
p4445
aa(lp4446
S'wash_NN'
p4447
aS'dishes_NNS'
p4448
aS'give_VB'
p4449
aS'gift_NN'
p4450
aa(lp4451
S'wash_NN'
p4452
aS'dishes_NNS'
p4453
aS'attack_NN'
p4454
aS'enemy_NN'
p4455
aa(lp4456
S'wash_NN'
p4457
aS'dishes_NNS'
p4458
aS'say_VB'
p4459
aS'word_NN'
p4460
aa(lp4461
S'wash_NN'
p4462
aS'dishes_NNS'
p4463
aS'open_JJ'
p4464
aS'door_NN'
p4465
aa(lp4466
S'wash_NN'
p4467
aS'dishes_NNS'
p4468
aS'climb_VB'
p4469
aS'tree_NN'
p4470
aa(lp4471
S'wash_NN'
p4472
aS'dishes_NNS'
p4473
aS'heal_VB'
p4474
aS'wound_NN'
p4475
aa(lp4476
S'wash_NN'
p4477
aS'dishes_NNS'
p4478
aS'cure_NN'
p4479
aS'disease_NN'
p4480
aa(lp4481
S'wash_NN'
p4482
aS'dishes_NNS'
p4483
aS'paint_NN'
p4484
aS'picture_NN'
p4485
aa(lp4486
S'wash_NN'
p4487
aS'dishes_NNS'
p4488
aS'operate_VB'
p4489
aS'machine_NN'
p4490
aa(lp4491
S'wash_NN'
p4492
aS'dishes_NNS'
p4493
aS'climb_VB'
p4494
aS'ladder_NN'
p4495
aa(lp4496
S'wash_NN'
p4497
aS'dishes_NNS'
p4498
aS'play_VB'
p4499
aS'game_NN'
p4500
aa(lp4501
S'wash_NN'
p4502
aS'dishes_NNS'
p4503
aS'pursue_VB'
p4504
aS'quarry_NN'
p4505
aa(lp4506
S'wash_NN'
p4507
aS'dishes_NNS'
p4508
aS'shoot_VB'
p4509
aS'gun_NN'
p4510
aa(lp4511
S'wash_NN'
p4512
aS'dishes_NNS'
p4513
aS'sail_NN'
p4514
aS'boat_NN'
p4515
aa(lp4516
S'wash_NN'
p4517
aS'dishes_NNS'
p4518
aS'brush_NN'
p4519
aS'hair_NN'
p4520
aa(lp4521
S'wash_NN'
p4522
aS'dishes_NNS'
p4523
aS'write_VB'
p4524
aS'letter_NN'
p4525
aa(lp4526
S'wash_NN'
p4527
aS'dishes_NNS'
p4528
aS'say_VB'
p4529
aS'word_NN'
p4530
aa(lp4531
S'wash_NN'
p4532
aS'dishes_NNS'
p4533
aS'wield_VB'
p4534
aS'sword_NN'
p4535
aa(lp4536
S'wash_NN'
p4537
aS'dishes_NNS'
p4538
aS'carry_VB'
p4539
aS'burden_NN'
p4540
aa(lp4541
S'wash_NN'
p4542
aS'dishes_NNS'
p4543
aS'swallow_NN'
p4544
aS'pill_NN'
p4545
aa(lp4546
S'wash_NN'
p4547
aS'dishes_NNS'
p4548
aS'swear_VB'
p4549
aS'oath_NN'
p4550
aa(lp4551
S'wash_NN'
p4552
aS'dishes_NNS'
p4553
aS'elect_VB'
p4554
aS'president_NN'
p4555
aa(lp4556
S'wash_NN'
p4557
aS'dishes_NNS'
p4558
aS'hire_VB'
p4559
aS'employee_NN'
p4560
aa(lp4561
S'wash_NN'
p4562
aS'dishes_NNS'
p4563
aS'compose_VB'
p4564
aS'symphony_NN'
p4565
aa(lp4566
S'wash_NN'
p4567
aS'dishes_NNS'
p4568
aS'pet_NN'
p4569
aS'cat_NN'
p4570
aa(lp4571
S'wash_NN'
p4572
aS'dishes_NNS'
p4573
aS'swat_NN'
p4574
aS'fly_VB'
p4575
aa(lp4576
S'wash_NN'
p4577
aS'dishes_NNS'
p4578
aS'send_VB'
p4579
aS'message_NN'
p4580
aa(lp4581
S'swallow_NN'
p4582
aS'pill_NN'
p4583
aS'sing_VB'
p4584
aS'song_NN'
p4585
aa(lp4586
S'swallow_NN'
p4587
aS'pill_NN'
p4588
aS'drink_NN'
p4589
aS'water_NN'
p4590
aa(lp4591
S'swallow_NN'
p4592
aS'pill_NN'
p4593
aS'read_VB'
p4594
aS'book_NN'
p4595
aa(lp4596
S'swallow_NN'
p4597
aS'pill_NN'
p4598
aS'eat_VB'
p4599
aS'food_NN'
p4600
aa(lp4601
S'swallow_NN'
p4602
aS'pill_NN'
p4603
aS'wear_VB'
p4604
aS'coat_NN'
p4605
aa(lp4606
S'swallow_NN'
p4607
aS'pill_NN'
p4608
aS'drive_NN'
p4609
aS'car_NN'
p4610
aa(lp4611
S'swallow_NN'
p4612
aS'pill_NN'
p4613
aS'ride_NN'
p4614
aS'horse_NN'
p4615
aa(lp4616
S'swallow_NN'
p4617
aS'pill_NN'
p4618
aS'give_VB'
p4619
aS'gift_NN'
p4620
aa(lp4621
S'swallow_NN'
p4622
aS'pill_NN'
p4623
aS'attack_NN'
p4624
aS'enemy_NN'
p4625
aa(lp4626
S'swallow_NN'
p4627
aS'pill_NN'
p4628
aS'say_VB'
p4629
aS'word_NN'
p4630
aa(lp4631
S'swallow_NN'
p4632
aS'pill_NN'
p4633
aS'open_JJ'
p4634
aS'door_NN'
p4635
aa(lp4636
S'swallow_NN'
p4637
aS'pill_NN'
p4638
aS'climb_VB'
p4639
aS'tree_NN'
p4640
aa(lp4641
S'swallow_NN'
p4642
aS'pill_NN'
p4643
aS'heal_VB'
p4644
aS'wound_NN'
p4645
aa(lp4646
S'swallow_NN'
p4647
aS'pill_NN'
p4648
aS'cure_NN'
p4649
aS'disease_NN'
p4650
aa(lp4651
S'swallow_NN'
p4652
aS'pill_NN'
p4653
aS'paint_NN'
p4654
aS'picture_NN'
p4655
aa(lp4656
S'swallow_NN'
p4657
aS'pill_NN'
p4658
aS'operate_VB'
p4659
aS'machine_NN'
p4660
aa(lp4661
S'swallow_NN'
p4662
aS'pill_NN'
p4663
aS'climb_VB'
p4664
aS'ladder_NN'
p4665
aa(lp4666
S'swallow_NN'
p4667
aS'pill_NN'
p4668
aS'play_VB'
p4669
aS'game_NN'
p4670
aa(lp4671
S'swallow_NN'
p4672
aS'pill_NN'
p4673
aS'pursue_VB'
p4674
aS'quarry_NN'
p4675
aa(lp4676
S'swallow_NN'
p4677
aS'pill_NN'
p4678
aS'shoot_VB'
p4679
aS'gun_NN'
p4680
aa(lp4681
S'swallow_NN'
p4682
aS'pill_NN'
p4683
aS'sail_NN'
p4684
aS'boat_NN'
p4685
aa(lp4686
S'swallow_NN'
p4687
aS'pill_NN'
p4688
aS'brush_NN'
p4689
aS'hair_NN'
p4690
aa(lp4691
S'swallow_NN'
p4692
aS'pill_NN'
p4693
aS'write_VB'
p4694
aS'letter_NN'
p4695
aa(lp4696
S'swallow_NN'
p4697
aS'pill_NN'
p4698
aS'say_VB'
p4699
aS'word_NN'
p4700
aa(lp4701
S'swallow_NN'
p4702
aS'pill_NN'
p4703
aS'wield_VB'
p4704
aS'sword_NN'
p4705
aa(lp4706
S'swallow_NN'
p4707
aS'pill_NN'
p4708
aS'carry_VB'
p4709
aS'burden_NN'
p4710
aa(lp4711
S'swallow_NN'
p4712
aS'pill_NN'
p4713
aS'wash_NN'
p4714
aS'dishes_NNS'
p4715
aa(lp4716
S'swallow_NN'
p4717
aS'pill_NN'
p4718
aS'swear_VB'
p4719
aS'oath_NN'
p4720
aa(lp4721
S'swallow_NN'
p4722
aS'pill_NN'
p4723
aS'elect_VB'
p4724
aS'president_NN'
p4725
aa(lp4726
S'swallow_NN'
p4727
aS'pill_NN'
p4728
aS'hire_VB'
p4729
aS'employee_NN'
p4730
aa(lp4731
S'swallow_NN'
p4732
aS'pill_NN'
p4733
aS'compose_VB'
p4734
aS'symphony_NN'
p4735
aa(lp4736
S'swallow_NN'
p4737
aS'pill_NN'
p4738
aS'pet_NN'
p4739
aS'cat_NN'
p4740
aa(lp4741
S'swallow_NN'
p4742
aS'pill_NN'
p4743
aS'swat_NN'
p4744
aS'fly_VB'
p4745
aa(lp4746
S'swallow_NN'
p4747
aS'pill_NN'
p4748
aS'send_VB'
p4749
aS'message_NN'
p4750
aa(lp4751
S'swear_VB'
p4752
aS'oath_NN'
p4753
aS'sing_VB'
p4754
aS'song_NN'
p4755
aa(lp4756
S'swear_VB'
p4757
aS'oath_NN'
p4758
aS'drink_NN'
p4759
aS'water_NN'
p4760
aa(lp4761
S'swear_VB'
p4762
aS'oath_NN'
p4763
aS'read_VB'
p4764
aS'book_NN'
p4765
aa(lp4766
S'swear_VB'
p4767
aS'oath_NN'
p4768
aS'eat_VB'
p4769
aS'food_NN'
p4770
aa(lp4771
S'swear_VB'
p4772
aS'oath_NN'
p4773
aS'wear_VB'
p4774
aS'coat_NN'
p4775
aa(lp4776
S'swear_VB'
p4777
aS'oath_NN'
p4778
aS'drive_NN'
p4779
aS'car_NN'
p4780
aa(lp4781
S'swear_VB'
p4782
aS'oath_NN'
p4783
aS'ride_NN'
p4784
aS'horse_NN'
p4785
aa(lp4786
S'swear_VB'
p4787
aS'oath_NN'
p4788
aS'give_VB'
p4789
aS'gift_NN'
p4790
aa(lp4791
S'swear_VB'
p4792
aS'oath_NN'
p4793
aS'attack_NN'
p4794
aS'enemy_NN'
p4795
aa(lp4796
S'swear_VB'
p4797
aS'oath_NN'
p4798
aS'say_VB'
p4799
aS'word_NN'
p4800
aa(lp4801
S'swear_VB'
p4802
aS'oath_NN'
p4803
aS'open_JJ'
p4804
aS'door_NN'
p4805
aa(lp4806
S'swear_VB'
p4807
aS'oath_NN'
p4808
aS'climb_VB'
p4809
aS'tree_NN'
p4810
aa(lp4811
S'swear_VB'
p4812
aS'oath_NN'
p4813
aS'heal_VB'
p4814
aS'wound_NN'
p4815
aa(lp4816
S'swear_VB'
p4817
aS'oath_NN'
p4818
aS'cure_NN'
p4819
aS'disease_NN'
p4820
aa(lp4821
S'swear_VB'
p4822
aS'oath_NN'
p4823
aS'paint_NN'
p4824
aS'picture_NN'
p4825
aa(lp4826
S'swear_VB'
p4827
aS'oath_NN'
p4828
aS'operate_VB'
p4829
aS'machine_NN'
p4830
aa(lp4831
S'swear_VB'
p4832
aS'oath_NN'
p4833
aS'climb_VB'
p4834
aS'ladder_NN'
p4835
aa(lp4836
S'swear_VB'
p4837
aS'oath_NN'
p4838
aS'play_VB'
p4839
aS'game_NN'
p4840
aa(lp4841
S'swear_VB'
p4842
aS'oath_NN'
p4843
aS'pursue_VB'
p4844
aS'quarry_NN'
p4845
aa(lp4846
S'swear_VB'
p4847
aS'oath_NN'
p4848
aS'shoot_VB'
p4849
aS'gun_NN'
p4850
aa(lp4851
S'swear_VB'
p4852
aS'oath_NN'
p4853
aS'sail_NN'
p4854
aS'boat_NN'
p4855
aa(lp4856
S'swear_VB'
p4857
aS'oath_NN'
p4858
aS'brush_NN'
p4859
aS'hair_NN'
p4860
aa(lp4861
S'swear_VB'
p4862
aS'oath_NN'
p4863
aS'write_VB'
p4864
aS'letter_NN'
p4865
aa(lp4866
S'swear_VB'
p4867
aS'oath_NN'
p4868
aS'say_VB'
p4869
aS'word_NN'
p4870
aa(lp4871
S'swear_VB'
p4872
aS'oath_NN'
p4873
aS'wield_VB'
p4874
aS'sword_NN'
p4875
aa(lp4876
S'swear_VB'
p4877
aS'oath_NN'
p4878
aS'carry_VB'
p4879
aS'burden_NN'
p4880
aa(lp4881
S'swear_VB'
p4882
aS'oath_NN'
p4883
aS'wash_NN'
p4884
aS'dishes_NNS'
p4885
aa(lp4886
S'swear_VB'
p4887
aS'oath_NN'
p4888
aS'swallow_NN'
p4889
aS'pill_NN'
p4890
aa(lp4891
S'swear_VB'
p4892
aS'oath_NN'
p4893
aS'elect_VB'
p4894
aS'president_NN'
p4895
aa(lp4896
S'swear_VB'
p4897
aS'oath_NN'
p4898
aS'hire_VB'
p4899
aS'employee_NN'
p4900
aa(lp4901
S'swear_VB'
p4902
aS'oath_NN'
p4903
aS'compose_VB'
p4904
aS'symphony_NN'
p4905
aa(lp4906
S'swear_VB'
p4907
aS'oath_NN'
p4908
aS'pet_NN'
p4909
aS'cat_NN'
p4910
aa(lp4911
S'swear_VB'
p4912
aS'oath_NN'
p4913
aS'swat_NN'
p4914
aS'fly_VB'
p4915
aa(lp4916
S'swear_VB'
p4917
aS'oath_NN'
p4918
aS'send_VB'
p4919
aS'message_NN'
p4920
aa(lp4921
S'elect_VB'
p4922
aS'president_NN'
p4923
aS'sing_VB'
p4924
aS'song_NN'
p4925
aa(lp4926
S'elect_VB'
p4927
aS'president_NN'
p4928
aS'drink_NN'
p4929
aS'water_NN'
p4930
aa(lp4931
S'elect_VB'
p4932
aS'president_NN'
p4933
aS'read_VB'
p4934
aS'book_NN'
p4935
aa(lp4936
S'elect_VB'
p4937
aS'president_NN'
p4938
aS'eat_VB'
p4939
aS'food_NN'
p4940
aa(lp4941
S'elect_VB'
p4942
aS'president_NN'
p4943
aS'wear_VB'
p4944
aS'coat_NN'
p4945
aa(lp4946
S'elect_VB'
p4947
aS'president_NN'
p4948
aS'drive_NN'
p4949
aS'car_NN'
p4950
aa(lp4951
S'elect_VB'
p4952
aS'president_NN'
p4953
aS'ride_NN'
p4954
aS'horse_NN'
p4955
aa(lp4956
S'elect_VB'
p4957
aS'president_NN'
p4958
aS'give_VB'
p4959
aS'gift_NN'
p4960
aa(lp4961
S'elect_VB'
p4962
aS'president_NN'
p4963
aS'attack_NN'
p4964
aS'enemy_NN'
p4965
aa(lp4966
S'elect_VB'
p4967
aS'president_NN'
p4968
aS'say_VB'
p4969
aS'word_NN'
p4970
aa(lp4971
S'elect_VB'
p4972
aS'president_NN'
p4973
aS'open_JJ'
p4974
aS'door_NN'
p4975
aa(lp4976
S'elect_VB'
p4977
aS'president_NN'
p4978
aS'climb_VB'
p4979
aS'tree_NN'
p4980
aa(lp4981
S'elect_VB'
p4982
aS'president_NN'
p4983
aS'heal_VB'
p4984
aS'wound_NN'
p4985
aa(lp4986
S'elect_VB'
p4987
aS'president_NN'
p4988
aS'cure_NN'
p4989
aS'disease_NN'
p4990
aa(lp4991
S'elect_VB'
p4992
aS'president_NN'
p4993
aS'paint_NN'
p4994
aS'picture_NN'
p4995
aa(lp4996
S'elect_VB'
p4997
aS'president_NN'
p4998
aS'operate_VB'
p4999
aS'machine_NN'
p5000
aa(lp5001
S'elect_VB'
p5002
aS'president_NN'
p5003
aS'climb_VB'
p5004
aS'ladder_NN'
p5005
aa(lp5006
S'elect_VB'
p5007
aS'president_NN'
p5008
aS'play_VB'
p5009
aS'game_NN'
p5010
aa(lp5011
S'elect_VB'
p5012
aS'president_NN'
p5013
aS'pursue_VB'
p5014
aS'quarry_NN'
p5015
aa(lp5016
S'elect_VB'
p5017
aS'president_NN'
p5018
aS'shoot_VB'
p5019
aS'gun_NN'
p5020
aa(lp5021
S'elect_VB'
p5022
aS'president_NN'
p5023
aS'sail_NN'
p5024
aS'boat_NN'
p5025
aa(lp5026
S'elect_VB'
p5027
aS'president_NN'
p5028
aS'brush_NN'
p5029
aS'hair_NN'
p5030
aa(lp5031
S'elect_VB'
p5032
aS'president_NN'
p5033
aS'write_VB'
p5034
aS'letter_NN'
p5035
aa(lp5036
S'elect_VB'
p5037
aS'president_NN'
p5038
aS'say_VB'
p5039
aS'word_NN'
p5040
aa(lp5041
S'elect_VB'
p5042
aS'president_NN'
p5043
aS'wield_VB'
p5044
aS'sword_NN'
p5045
aa(lp5046
S'elect_VB'
p5047
aS'president_NN'
p5048
aS'carry_VB'
p5049
aS'burden_NN'
p5050
aa(lp5051
S'elect_VB'
p5052
aS'president_NN'
p5053
aS'wash_NN'
p5054
aS'dishes_NNS'
p5055
aa(lp5056
S'elect_VB'
p5057
aS'president_NN'
p5058
aS'swallow_NN'
p5059
aS'pill_NN'
p5060
aa(lp5061
S'elect_VB'
p5062
aS'president_NN'
p5063
aS'swear_VB'
p5064
aS'oath_NN'
p5065
aa(lp5066
S'elect_VB'
p5067
aS'president_NN'
p5068
aS'hire_VB'
p5069
aS'employee_NN'
p5070
aa(lp5071
S'elect_VB'
p5072
aS'president_NN'
p5073
aS'compose_VB'
p5074
aS'symphony_NN'
p5075
aa(lp5076
S'elect_VB'
p5077
aS'president_NN'
p5078
aS'pet_NN'
p5079
aS'cat_NN'
p5080
aa(lp5081
S'elect_VB'
p5082
aS'president_NN'
p5083
aS'swat_NN'
p5084
aS'fly_VB'
p5085
aa(lp5086
S'elect_VB'
p5087
aS'president_NN'
p5088
aS'send_VB'
p5089
aS'message_NN'
p5090
aa(lp5091
S'hire_VB'
p5092
aS'employee_NN'
p5093
aS'sing_VB'
p5094
aS'song_NN'
p5095
aa(lp5096
S'hire_VB'
p5097
aS'employee_NN'
p5098
aS'drink_NN'
p5099
aS'water_NN'
p5100
aa(lp5101
S'hire_VB'
p5102
aS'employee_NN'
p5103
aS'read_VB'
p5104
aS'book_NN'
p5105
aa(lp5106
S'hire_VB'
p5107
aS'employee_NN'
p5108
aS'eat_VB'
p5109
aS'food_NN'
p5110
aa(lp5111
S'hire_VB'
p5112
aS'employee_NN'
p5113
aS'wear_VB'
p5114
aS'coat_NN'
p5115
aa(lp5116
S'hire_VB'
p5117
aS'employee_NN'
p5118
aS'drive_NN'
p5119
aS'car_NN'
p5120
aa(lp5121
S'hire_VB'
p5122
aS'employee_NN'
p5123
aS'ride_NN'
p5124
aS'horse_NN'
p5125
aa(lp5126
S'hire_VB'
p5127
aS'employee_NN'
p5128
aS'give_VB'
p5129
aS'gift_NN'
p5130
aa(lp5131
S'hire_VB'
p5132
aS'employee_NN'
p5133
aS'attack_NN'
p5134
aS'enemy_NN'
p5135
aa(lp5136
S'hire_VB'
p5137
aS'employee_NN'
p5138
aS'say_VB'
p5139
aS'word_NN'
p5140
aa(lp5141
S'hire_VB'
p5142
aS'employee_NN'
p5143
aS'open_JJ'
p5144
aS'door_NN'
p5145
aa(lp5146
S'hire_VB'
p5147
aS'employee_NN'
p5148
aS'climb_VB'
p5149
aS'tree_NN'
p5150
aa(lp5151
S'hire_VB'
p5152
aS'employee_NN'
p5153
aS'heal_VB'
p5154
aS'wound_NN'
p5155
aa(lp5156
S'hire_VB'
p5157
aS'employee_NN'
p5158
aS'cure_NN'
p5159
aS'disease_NN'
p5160
aa(lp5161
S'hire_VB'
p5162
aS'employee_NN'
p5163
aS'paint_NN'
p5164
aS'picture_NN'
p5165
aa(lp5166
S'hire_VB'
p5167
aS'employee_NN'
p5168
aS'operate_VB'
p5169
aS'machine_NN'
p5170
aa(lp5171
S'hire_VB'
p5172
aS'employee_NN'
p5173
aS'climb_VB'
p5174
aS'ladder_NN'
p5175
aa(lp5176
S'hire_VB'
p5177
aS'employee_NN'
p5178
aS'play_VB'
p5179
aS'game_NN'
p5180
aa(lp5181
S'hire_VB'
p5182
aS'employee_NN'
p5183
aS'pursue_VB'
p5184
aS'quarry_NN'
p5185
aa(lp5186
S'hire_VB'
p5187
aS'employee_NN'
p5188
aS'shoot_VB'
p5189
aS'gun_NN'
p5190
aa(lp5191
S'hire_VB'
p5192
aS'employee_NN'
p5193
aS'sail_NN'
p5194
aS'boat_NN'
p5195
aa(lp5196
S'hire_VB'
p5197
aS'employee_NN'
p5198
aS'brush_NN'
p5199
aS'hair_NN'
p5200
aa(lp5201
S'hire_VB'
p5202
aS'employee_NN'
p5203
aS'write_VB'
p5204
aS'letter_NN'
p5205
aa(lp5206
S'hire_VB'
p5207
aS'employee_NN'
p5208
aS'say_VB'
p5209
aS'word_NN'
p5210
aa(lp5211
S'hire_VB'
p5212
aS'employee_NN'
p5213
aS'wield_VB'
p5214
aS'sword_NN'
p5215
aa(lp5216
S'hire_VB'
p5217
aS'employee_NN'
p5218
aS'carry_VB'
p5219
aS'burden_NN'
p5220
aa(lp5221
S'hire_VB'
p5222
aS'employee_NN'
p5223
aS'wash_NN'
p5224
aS'dishes_NNS'
p5225
aa(lp5226
S'hire_VB'
p5227
aS'employee_NN'
p5228
aS'swallow_NN'
p5229
aS'pill_NN'
p5230
aa(lp5231
S'hire_VB'
p5232
aS'employee_NN'
p5233
aS'swear_VB'
p5234
aS'oath_NN'
p5235
aa(lp5236
S'hire_VB'
p5237
aS'employee_NN'
p5238
aS'elect_VB'
p5239
aS'president_NN'
p5240
aa(lp5241
S'hire_VB'
p5242
aS'employee_NN'
p5243
aS'compose_VB'
p5244
aS'symphony_NN'
p5245
aa(lp5246
S'hire_VB'
p5247
aS'employee_NN'
p5248
aS'pet_NN'
p5249
aS'cat_NN'
p5250
aa(lp5251
S'hire_VB'
p5252
aS'employee_NN'
p5253
aS'swat_NN'
p5254
aS'fly_VB'
p5255
aa(lp5256
S'hire_VB'
p5257
aS'employee_NN'
p5258
aS'send_VB'
p5259
aS'message_NN'
p5260
aa(lp5261
S'compose_VB'
p5262
aS'symphony_NN'
p5263
aS'sing_VB'
p5264
aS'song_NN'
p5265
aa(lp5266
S'compose_VB'
p5267
aS'symphony_NN'
p5268
aS'drink_NN'
p5269
aS'water_NN'
p5270
aa(lp5271
S'compose_VB'
p5272
aS'symphony_NN'
p5273
aS'read_VB'
p5274
aS'book_NN'
p5275
aa(lp5276
S'compose_VB'
p5277
aS'symphony_NN'
p5278
aS'eat_VB'
p5279
aS'food_NN'
p5280
aa(lp5281
S'compose_VB'
p5282
aS'symphony_NN'
p5283
aS'wear_VB'
p5284
aS'coat_NN'
p5285
aa(lp5286
S'compose_VB'
p5287
aS'symphony_NN'
p5288
aS'drive_NN'
p5289
aS'car_NN'
p5290
aa(lp5291
S'compose_VB'
p5292
aS'symphony_NN'
p5293
aS'ride_NN'
p5294
aS'horse_NN'
p5295
aa(lp5296
S'compose_VB'
p5297
aS'symphony_NN'
p5298
aS'give_VB'
p5299
aS'gift_NN'
p5300
aa(lp5301
S'compose_VB'
p5302
aS'symphony_NN'
p5303
aS'attack_NN'
p5304
aS'enemy_NN'
p5305
aa(lp5306
S'compose_VB'
p5307
aS'symphony_NN'
p5308
aS'say_VB'
p5309
aS'word_NN'
p5310
aa(lp5311
S'compose_VB'
p5312
aS'symphony_NN'
p5313
aS'open_JJ'
p5314
aS'door_NN'
p5315
aa(lp5316
S'compose_VB'
p5317
aS'symphony_NN'
p5318
aS'climb_VB'
p5319
aS'tree_NN'
p5320
aa(lp5321
S'compose_VB'
p5322
aS'symphony_NN'
p5323
aS'heal_VB'
p5324
aS'wound_NN'
p5325
aa(lp5326
S'compose_VB'
p5327
aS'symphony_NN'
p5328
aS'cure_NN'
p5329
aS'disease_NN'
p5330
aa(lp5331
S'compose_VB'
p5332
aS'symphony_NN'
p5333
aS'paint_NN'
p5334
aS'picture_NN'
p5335
aa(lp5336
S'compose_VB'
p5337
aS'symphony_NN'
p5338
aS'operate_VB'
p5339
aS'machine_NN'
p5340
aa(lp5341
S'compose_VB'
p5342
aS'symphony_NN'
p5343
aS'climb_VB'
p5344
aS'ladder_NN'
p5345
aa(lp5346
S'compose_VB'
p5347
aS'symphony_NN'
p5348
aS'play_VB'
p5349
aS'game_NN'
p5350
aa(lp5351
S'compose_VB'
p5352
aS'symphony_NN'
p5353
aS'pursue_VB'
p5354
aS'quarry_NN'
p5355
aa(lp5356
S'compose_VB'
p5357
aS'symphony_NN'
p5358
aS'shoot_VB'
p5359
aS'gun_NN'
p5360
aa(lp5361
S'compose_VB'
p5362
aS'symphony_NN'
p5363
aS'sail_NN'
p5364
aS'boat_NN'
p5365
aa(lp5366
S'compose_VB'
p5367
aS'symphony_NN'
p5368
aS'brush_NN'
p5369
aS'hair_NN'
p5370
aa(lp5371
S'compose_VB'
p5372
aS'symphony_NN'
p5373
aS'write_VB'
p5374
aS'letter_NN'
p5375
aa(lp5376
S'compose_VB'
p5377
aS'symphony_NN'
p5378
aS'say_VB'
p5379
aS'word_NN'
p5380
aa(lp5381
S'compose_VB'
p5382
aS'symphony_NN'
p5383
aS'wield_VB'
p5384
aS'sword_NN'
p5385
aa(lp5386
S'compose_VB'
p5387
aS'symphony_NN'
p5388
aS'carry_VB'
p5389
aS'burden_NN'
p5390
aa(lp5391
S'compose_VB'
p5392
aS'symphony_NN'
p5393
aS'wash_NN'
p5394
aS'dishes_NNS'
p5395
aa(lp5396
S'compose_VB'
p5397
aS'symphony_NN'
p5398
aS'swallow_NN'
p5399
aS'pill_NN'
p5400
aa(lp5401
S'compose_VB'
p5402
aS'symphony_NN'
p5403
aS'swear_VB'
p5404
aS'oath_NN'
p5405
aa(lp5406
S'compose_VB'
p5407
aS'symphony_NN'
p5408
aS'elect_VB'
p5409
aS'president_NN'
p5410
aa(lp5411
S'compose_VB'
p5412
aS'symphony_NN'
p5413
aS'hire_VB'
p5414
aS'employee_NN'
p5415
aa(lp5416
S'compose_VB'
p5417
aS'symphony_NN'
p5418
aS'pet_NN'
p5419
aS'cat_NN'
p5420
aa(lp5421
S'compose_VB'
p5422
aS'symphony_NN'
p5423
aS'swat_NN'
p5424
aS'fly_VB'
p5425
aa(lp5426
S'compose_VB'
p5427
aS'symphony_NN'
p5428
aS'send_VB'
p5429
aS'message_NN'
p5430
aa(lp5431
S'pet_NN'
p5432
aS'cat_NN'
p5433
aS'sing_VB'
p5434
aS'song_NN'
p5435
aa(lp5436
S'pet_NN'
p5437
aS'cat_NN'
p5438
aS'drink_NN'
p5439
aS'water_NN'
p5440
aa(lp5441
S'pet_NN'
p5442
aS'cat_NN'
p5443
aS'read_VB'
p5444
aS'book_NN'
p5445
aa(lp5446
S'pet_NN'
p5447
aS'cat_NN'
p5448
aS'eat_VB'
p5449
aS'food_NN'
p5450
aa(lp5451
S'pet_NN'
p5452
aS'cat_NN'
p5453
aS'wear_VB'
p5454
aS'coat_NN'
p5455
aa(lp5456
S'pet_NN'
p5457
aS'cat_NN'
p5458
aS'drive_NN'
p5459
aS'car_NN'
p5460
aa(lp5461
S'pet_NN'
p5462
aS'cat_NN'
p5463
aS'ride_NN'
p5464
aS'horse_NN'
p5465
aa(lp5466
S'pet_NN'
p5467
aS'cat_NN'
p5468
aS'give_VB'
p5469
aS'gift_NN'
p5470
aa(lp5471
S'pet_NN'
p5472
aS'cat_NN'
p5473
aS'attack_NN'
p5474
aS'enemy_NN'
p5475
aa(lp5476
S'pet_NN'
p5477
aS'cat_NN'
p5478
aS'say_VB'
p5479
aS'word_NN'
p5480
aa(lp5481
S'pet_NN'
p5482
aS'cat_NN'
p5483
aS'open_JJ'
p5484
aS'door_NN'
p5485
aa(lp5486
S'pet_NN'
p5487
aS'cat_NN'
p5488
aS'climb_VB'
p5489
aS'tree_NN'
p5490
aa(lp5491
S'pet_NN'
p5492
aS'cat_NN'
p5493
aS'heal_VB'
p5494
aS'wound_NN'
p5495
aa(lp5496
S'pet_NN'
p5497
aS'cat_NN'
p5498
aS'cure_NN'
p5499
aS'disease_NN'
p5500
aa(lp5501
S'pet_NN'
p5502
aS'cat_NN'
p5503
aS'paint_NN'
p5504
aS'picture_NN'
p5505
aa(lp5506
S'pet_NN'
p5507
aS'cat_NN'
p5508
aS'operate_VB'
p5509
aS'machine_NN'
p5510
aa(lp5511
S'pet_NN'
p5512
aS'cat_NN'
p5513
aS'climb_VB'
p5514
aS'ladder_NN'
p5515
aa(lp5516
S'pet_NN'
p5517
aS'cat_NN'
p5518
aS'play_VB'
p5519
aS'game_NN'
p5520
aa(lp5521
S'pet_NN'
p5522
aS'cat_NN'
p5523
aS'pursue_VB'
p5524
aS'quarry_NN'
p5525
aa(lp5526
S'pet_NN'
p5527
aS'cat_NN'
p5528
aS'shoot_VB'
p5529
aS'gun_NN'
p5530
aa(lp5531
S'pet_NN'
p5532
aS'cat_NN'
p5533
aS'sail_NN'
p5534
aS'boat_NN'
p5535
aa(lp5536
S'pet_NN'
p5537
aS'cat_NN'
p5538
aS'brush_NN'
p5539
aS'hair_NN'
p5540
aa(lp5541
S'pet_NN'
p5542
aS'cat_NN'
p5543
aS'write_VB'
p5544
aS'letter_NN'
p5545
aa(lp5546
S'pet_NN'
p5547
aS'cat_NN'
p5548
aS'say_VB'
p5549
aS'word_NN'
p5550
aa(lp5551
S'pet_NN'
p5552
aS'cat_NN'
p5553
aS'wield_VB'
p5554
aS'sword_NN'
p5555
aa(lp5556
S'pet_NN'
p5557
aS'cat_NN'
p5558
aS'carry_VB'
p5559
aS'burden_NN'
p5560
aa(lp5561
S'pet_NN'
p5562
aS'cat_NN'
p5563
aS'wash_NN'
p5564
aS'dishes_NNS'
p5565
aa(lp5566
S'pet_NN'
p5567
aS'cat_NN'
p5568
aS'swallow_NN'
p5569
aS'pill_NN'
p5570
aa(lp5571
S'pet_NN'
p5572
aS'cat_NN'
p5573
aS'swear_VB'
p5574
aS'oath_NN'
p5575
aa(lp5576
S'pet_NN'
p5577
aS'cat_NN'
p5578
aS'elect_VB'
p5579
aS'president_NN'
p5580
aa(lp5581
S'pet_NN'
p5582
aS'cat_NN'
p5583
aS'hire_VB'
p5584
aS'employee_NN'
p5585
aa(lp5586
S'pet_NN'
p5587
aS'cat_NN'
p5588
aS'compose_VB'
p5589
aS'symphony_NN'
p5590
aa(lp5591
S'pet_NN'
p5592
aS'cat_NN'
p5593
aS'swat_NN'
p5594
aS'fly_VB'
p5595
aa(lp5596
S'pet_NN'
p5597
aS'cat_NN'
p5598
aS'send_VB'
p5599
aS'message_NN'
p5600
aa(lp5601
S'swat_NN'
p5602
aS'fly_VB'
p5603
aS'sing_VB'
p5604
aS'song_NN'
p5605
aa(lp5606
S'swat_NN'
p5607
aS'fly_VB'
p5608
aS'drink_NN'
p5609
aS'water_NN'
p5610
aa(lp5611
S'swat_NN'
p5612
aS'fly_VB'
p5613
aS'read_VB'
p5614
aS'book_NN'
p5615
aa(lp5616
S'swat_NN'
p5617
aS'fly_VB'
p5618
aS'eat_VB'
p5619
aS'food_NN'
p5620
aa(lp5621
S'swat_NN'
p5622
aS'fly_VB'
p5623
aS'wear_VB'
p5624
aS'coat_NN'
p5625
aa(lp5626
S'swat_NN'
p5627
aS'fly_VB'
p5628
aS'drive_NN'
p5629
aS'car_NN'
p5630
aa(lp5631
S'swat_NN'
p5632
aS'fly_VB'
p5633
aS'ride_NN'
p5634
aS'horse_NN'
p5635
aa(lp5636
S'swat_NN'
p5637
aS'fly_VB'
p5638
aS'give_VB'
p5639
aS'gift_NN'
p5640
aa(lp5641
S'swat_NN'
p5642
aS'fly_VB'
p5643
aS'attack_NN'
p5644
aS'enemy_NN'
p5645
aa(lp5646
S'swat_NN'
p5647
aS'fly_VB'
p5648
aS'say_VB'
p5649
aS'word_NN'
p5650
aa(lp5651
S'swat_NN'
p5652
aS'fly_VB'
p5653
aS'open_JJ'
p5654
aS'door_NN'
p5655
aa(lp5656
S'swat_NN'
p5657
aS'fly_VB'
p5658
aS'climb_VB'
p5659
aS'tree_NN'
p5660
aa(lp5661
S'swat_NN'
p5662
aS'fly_VB'
p5663
aS'heal_VB'
p5664
aS'wound_NN'
p5665
aa(lp5666
S'swat_NN'
p5667
aS'fly_VB'
p5668
aS'cure_NN'
p5669
aS'disease_NN'
p5670
aa(lp5671
S'swat_NN'
p5672
aS'fly_VB'
p5673
aS'paint_NN'
p5674
aS'picture_NN'
p5675
aa(lp5676
S'swat_NN'
p5677
aS'fly_VB'
p5678
aS'operate_VB'
p5679
aS'machine_NN'
p5680
aa(lp5681
S'swat_NN'
p5682
aS'fly_VB'
p5683
aS'climb_VB'
p5684
aS'ladder_NN'
p5685
aa(lp5686
S'swat_NN'
p5687
aS'fly_VB'
p5688
aS'play_VB'
p5689
aS'game_NN'
p5690
aa(lp5691
S'swat_NN'
p5692
aS'fly_VB'
p5693
aS'pursue_VB'
p5694
aS'quarry_NN'
p5695
aa(lp5696
S'swat_NN'
p5697
aS'fly_VB'
p5698
aS'shoot_VB'
p5699
aS'gun_NN'
p5700
aa(lp5701
S'swat_NN'
p5702
aS'fly_VB'
p5703
aS'sail_NN'
p5704
aS'boat_NN'
p5705
aa(lp5706
S'swat_NN'
p5707
aS'fly_VB'
p5708
aS'brush_NN'
p5709
aS'hair_NN'
p5710
aa(lp5711
S'swat_NN'
p5712
aS'fly_VB'
p5713
aS'write_VB'
p5714
aS'letter_NN'
p5715
aa(lp5716
S'swat_NN'
p5717
aS'fly_VB'
p5718
aS'say_VB'
p5719
aS'word_NN'
p5720
aa(lp5721
S'swat_NN'
p5722
aS'fly_VB'
p5723
aS'wield_VB'
p5724
aS'sword_NN'
p5725
aa(lp5726
S'swat_NN'
p5727
aS'fly_VB'
p5728
aS'carry_VB'
p5729
aS'burden_NN'
p5730
aa(lp5731
S'swat_NN'
p5732
aS'fly_VB'
p5733
aS'wash_NN'
p5734
aS'dishes_NNS'
p5735
aa(lp5736
S'swat_NN'
p5737
aS'fly_VB'
p5738
aS'swallow_NN'
p5739
aS'pill_NN'
p5740
aa(lp5741
S'swat_NN'
p5742
aS'fly_VB'
p5743
aS'swear_VB'
p5744
aS'oath_NN'
p5745
aa(lp5746
S'swat_NN'
p5747
aS'fly_VB'
p5748
aS'elect_VB'
p5749
aS'president_NN'
p5750
aa(lp5751
S'swat_NN'
p5752
aS'fly_VB'
p5753
aS'hire_VB'
p5754
aS'employee_NN'
p5755
aa(lp5756
S'swat_NN'
p5757
aS'fly_VB'
p5758
aS'compose_VB'
p5759
aS'symphony_NN'
p5760
aa(lp5761
S'swat_NN'
p5762
aS'fly_VB'
p5763
aS'pet_NN'
p5764
aS'cat_NN'
p5765
aa(lp5766
S'swat_NN'
p5767
aS'fly_VB'
p5768
aS'send_VB'
p5769
aS'message_NN'
p5770
aa(lp5771
S'send_VB'
p5772
aS'message_NN'
p5773
aS'sing_VB'
p5774
aS'song_NN'
p5775
aa(lp5776
S'send_VB'
p5777
aS'message_NN'
p5778
aS'drink_NN'
p5779
aS'water_NN'
p5780
aa(lp5781
S'send_VB'
p5782
aS'message_NN'
p5783
aS'read_VB'
p5784
aS'book_NN'
p5785
aa(lp5786
S'send_VB'
p5787
aS'message_NN'
p5788
aS'eat_VB'
p5789
aS'food_NN'
p5790
aa(lp5791
S'send_VB'
p5792
aS'message_NN'
p5793
aS'wear_VB'
p5794
aS'coat_NN'
p5795
aa(lp5796
S'send_VB'
p5797
aS'message_NN'
p5798
aS'drive_NN'
p5799
aS'car_NN'
p5800
aa(lp5801
S'send_VB'
p5802
aS'message_NN'
p5803
aS'ride_NN'
p5804
aS'horse_NN'
p5805
aa(lp5806
S'send_VB'
p5807
aS'message_NN'
p5808
aS'give_VB'
p5809
aS'gift_NN'
p5810
aa(lp5811
S'send_VB'
p5812
aS'message_NN'
p5813
aS'attack_NN'
p5814
aS'enemy_NN'
p5815
aa(lp5816
S'send_VB'
p5817
aS'message_NN'
p5818
aS'say_VB'
p5819
aS'word_NN'
p5820
aa(lp5821
S'send_VB'
p5822
aS'message_NN'
p5823
aS'open_JJ'
p5824
aS'door_NN'
p5825
aa(lp5826
S'send_VB'
p5827
aS'message_NN'
p5828
aS'climb_VB'
p5829
aS'tree_NN'
p5830
aa(lp5831
S'send_VB'
p5832
aS'message_NN'
p5833
aS'heal_VB'
p5834
aS'wound_NN'
p5835
aa(lp5836
S'send_VB'
p5837
aS'message_NN'
p5838
aS'cure_NN'
p5839
aS'disease_NN'
p5840
aa(lp5841
S'send_VB'
p5842
aS'message_NN'
p5843
aS'paint_NN'
p5844
aS'picture_NN'
p5845
aa(lp5846
S'send_VB'
p5847
aS'message_NN'
p5848
aS'operate_VB'
p5849
aS'machine_NN'
p5850
aa(lp5851
S'send_VB'
p5852
aS'message_NN'
p5853
aS'climb_VB'
p5854
aS'ladder_NN'
p5855
aa(lp5856
S'send_VB'
p5857
aS'message_NN'
p5858
aS'play_VB'
p5859
aS'game_NN'
p5860
aa(lp5861
S'send_VB'
p5862
aS'message_NN'
p5863
aS'pursue_VB'
p5864
aS'quarry_NN'
p5865
aa(lp5866
S'send_VB'
p5867
aS'message_NN'
p5868
aS'shoot_VB'
p5869
aS'gun_NN'
p5870
aa(lp5871
S'send_VB'
p5872
aS'message_NN'
p5873
aS'sail_NN'
p5874
aS'boat_NN'
p5875
aa(lp5876
S'send_VB'
p5877
aS'message_NN'
p5878
aS'brush_NN'
p5879
aS'hair_NN'
p5880
aa(lp5881
S'send_VB'
p5882
aS'message_NN'
p5883
aS'write_VB'
p5884
aS'letter_NN'
p5885
aa(lp5886
S'send_VB'
p5887
aS'message_NN'
p5888
aS'say_VB'
p5889
aS'word_NN'
p5890
aa(lp5891
S'send_VB'
p5892
aS'message_NN'
p5893
aS'wield_VB'
p5894
aS'sword_NN'
p5895
aa(lp5896
S'send_VB'
p5897
aS'message_NN'
p5898
aS'carry_VB'
p5899
aS'burden_NN'
p5900
aa(lp5901
S'send_VB'
p5902
aS'message_NN'
p5903
aS'wash_NN'
p5904
aS'dishes_NNS'
p5905
aa(lp5906
S'send_VB'
p5907
aS'message_NN'
p5908
aS'swallow_NN'
p5909
aS'pill_NN'
p5910
aa(lp5911
S'send_VB'
p5912
aS'message_NN'
p5913
aS'swear_VB'
p5914
aS'oath_NN'
p5915
aa(lp5916
S'send_VB'
p5917
aS'message_NN'
p5918
aS'elect_VB'
p5919
aS'president_NN'
p5920
aa(lp5921
S'send_VB'
p5922
aS'message_NN'
p5923
aS'hire_VB'
p5924
aS'employee_NN'
p5925
aa(lp5926
S'send_VB'
p5927
aS'message_NN'
p5928
aS'compose_VB'
p5929
aS'symphony_NN'
p5930
aa(lp5931
S'send_VB'
p5932
aS'message_NN'
p5933
aS'pet_NN'
p5934
aS'cat_NN'
p5935
aa(lp5936
S'send_VB'
p5937
aS'message_NN'
p5938
aS'swat_NN'
p5939
aS'fly_VB'
p5940
aa.