(lp0
(lp1
S'toy_NN'
p2
aS'baby_NN'
p3
aS'tie_NN'
p4
aS'boy_NN'
p5
aa(lp6
S'toy_NN'
p7
aS'baby_NN'
p8
aS'dress_NN'
p9
aS'mom_NN'
p10
aa(lp11
S'toy_NN'
p12
aS'baby_NN'
p13
aS'dress_NN'
p14
aS'girl_NN'
p15
aa(lp16
S'toy_NN'
p17
aS'baby_NN'
p18
aS'diaper_NN'
p19
aS'baby_NN'
p20
aa(lp21
S'toy_NN'
p22
aS'baby_NN'
p23
aS'headphones_NNS'
p24
aS'teenager_NN'
p25
aa(lp26
S'toy_NN'
p27
aS'baby_NN'
p28
aS'iphone_NNP'
p29
aS'teenager_NN'
p30
aa(lp31
S'toy_NN'
p32
aS'baby_NN'
p33
aS'jewelry_NN'
p34
aS'mom_NN'
p35
aa(lp36
S'toy_NN'
p37
aS'baby_NN'
p38
aS'wallet_NN'
p39
aS'dad_NN'
p40
aa(lp41
S'toy_NN'
p42
aS'baby_NN'
p43
aS'makeup_NN'
p44
aS'mom_NN'
p45
aa(lp46
S'toy_NN'
p47
aS'baby_NN'
p48
aS'purse_NN'
p49
aS'mom_NN'
p50
aa(lp51
S'toy_NN'
p52
aS'baby_NN'
p53
aS'rifle_NN'
p54
aS'dad_NN'
p55
aa(lp56
S'toy_NN'
p57
aS'baby_NN'
p58
aS'pipe_NN'
p59
aS'grandpa_NN'
p60
aa(lp61
S'toy_NN'
p62
aS'baby_NN'
p63
aS'curlers_NNS'
p64
aS'grandma_NN'
p65
aa(lp66
S'toy_NN'
p67
aS'baby_NN'
p68
aS'pacifier_NN'
p69
aS'baby_NN'
p70
aa(lp71
S'toy_NN'
p72
aS'baby_NN'
p73
aS'cane_NN'
p74
aS'grandpa_NN'
p75
aa(lp76
S'toy_NN'
p77
aS'baby_NN'
p78
aS'keys_NNS'
p79
aS'dad_NN'
p80
aa(lp81
S'toy_NN'
p82
aS'baby_NN'
p83
aS'keys_NNS'
p84
aS'mom_NN'
p85
aa(lp86
S'toy_NN'
p87
aS'baby_NN'
p88
aS'glasses_NNS'
p89
aS'grandma_NN'
p90
aa(lp91
S'toy_NN'
p92
aS'baby_NN'
p93
aS'schoolbooks_NNS'
p94
aS'boy_NN'
p95
aa(lp96
S'toy_NN'
p97
aS'baby_NN'
p98
aS'schoolbooks_NNS'
p99
aS'girl_NN'
p100
aa(lp101
S'toy_NN'
p102
aS'baby_NN'
p103
aS'backpack_NN'
p104
aS'boy_NN'
p105
aa(lp106
S'toy_NN'
p107
aS'baby_NN'
p108
aS'backpack_NN'
p109
aS'girl_NN'
p110
aa(lp111
S'toy_NN'
p112
aS'baby_NN'
p113
aS'rollerblades_NNS'
p114
aS'girl_NN'
p115
aa(lp116
S'toy_NN'
p117
aS'baby_NN'
p118
aS'rollerblades_NNS'
p119
aS'boy_NN'
p120
aa(lp121
S'toy_NN'
p122
aS'baby_NN'
p123
aS'stroller_NN'
p124
aS'baby_NN'
p125
aa(lp126
S'toy_NN'
p127
aS'baby_NN'
p128
aS'crib_NN'
p129
aS'baby_NN'
p130
aa(lp131
S'toy_NN'
p132
aS'baby_NN'
p133
aS'dentures_NNS'
p134
aS'grandma_NN'
p135
aa(lp136
S'toy_NN'
p137
aS'baby_NN'
p138
aS'dentures_NNS'
p139
aS'grandpa_NN'
p140
aa(lp141
S'toy_NN'
p142
aS'baby_NN'
p143
aS'heels_NNS'
p144
aS'mom_NN'
p145
aa(lp146
S'tie_NN'
p147
aS'boy_NN'
p148
aS'toy_NN'
p149
aS'baby_NN'
p150
aa(lp151
S'tie_NN'
p152
aS'boy_NN'
p153
aS'dress_NN'
p154
aS'mom_NN'
p155
aa(lp156
S'tie_NN'
p157
aS'boy_NN'
p158
aS'dress_NN'
p159
aS'girl_NN'
p160
aa(lp161
S'tie_NN'
p162
aS'boy_NN'
p163
aS'diaper_NN'
p164
aS'baby_NN'
p165
aa(lp166
S'tie_NN'
p167
aS'boy_NN'
p168
aS'headphones_NNS'
p169
aS'teenager_NN'
p170
aa(lp171
S'tie_NN'
p172
aS'boy_NN'
p173
aS'iphone_NNP'
p174
aS'teenager_NN'
p175
aa(lp176
S'tie_NN'
p177
aS'boy_NN'
p178
aS'jewelry_NN'
p179
aS'mom_NN'
p180
aa(lp181
S'tie_NN'
p182
aS'boy_NN'
p183
aS'wallet_NN'
p184
aS'dad_NN'
p185
aa(lp186
S'tie_NN'
p187
aS'boy_NN'
p188
aS'makeup_NN'
p189
aS'mom_NN'
p190
aa(lp191
S'tie_NN'
p192
aS'boy_NN'
p193
aS'purse_NN'
p194
aS'mom_NN'
p195
aa(lp196
S'tie_NN'
p197
aS'boy_NN'
p198
aS'rifle_NN'
p199
aS'dad_NN'
p200
aa(lp201
S'tie_NN'
p202
aS'boy_NN'
p203
aS'pipe_NN'
p204
aS'grandpa_NN'
p205
aa(lp206
S'tie_NN'
p207
aS'boy_NN'
p208
aS'curlers_NNS'
p209
aS'grandma_NN'
p210
aa(lp211
S'tie_NN'
p212
aS'boy_NN'
p213
aS'pacifier_NN'
p214
aS'baby_NN'
p215
aa(lp216
S'tie_NN'
p217
aS'boy_NN'
p218
aS'cane_NN'
p219
aS'grandpa_NN'
p220
aa(lp221
S'tie_NN'
p222
aS'boy_NN'
p223
aS'keys_NNS'
p224
aS'dad_NN'
p225
aa(lp226
S'tie_NN'
p227
aS'boy_NN'
p228
aS'keys_NNS'
p229
aS'mom_NN'
p230
aa(lp231
S'tie_NN'
p232
aS'boy_NN'
p233
aS'glasses_NNS'
p234
aS'grandma_NN'
p235
aa(lp236
S'tie_NN'
p237
aS'boy_NN'
p238
aS'schoolbooks_NNS'
p239
aS'boy_NN'
p240
aa(lp241
S'tie_NN'
p242
aS'boy_NN'
p243
aS'schoolbooks_NNS'
p244
aS'girl_NN'
p245
aa(lp246
S'tie_NN'
p247
aS'boy_NN'
p248
aS'backpack_NN'
p249
aS'boy_NN'
p250
aa(lp251
S'tie_NN'
p252
aS'boy_NN'
p253
aS'backpack_NN'
p254
aS'girl_NN'
p255
aa(lp256
S'tie_NN'
p257
aS'boy_NN'
p258
aS'rollerblades_NNS'
p259
aS'girl_NN'
p260
aa(lp261
S'tie_NN'
p262
aS'boy_NN'
p263
aS'rollerblades_NNS'
p264
aS'boy_NN'
p265
aa(lp266
S'tie_NN'
p267
aS'boy_NN'
p268
aS'stroller_NN'
p269
aS'baby_NN'
p270
aa(lp271
S'tie_NN'
p272
aS'boy_NN'
p273
aS'crib_NN'
p274
aS'baby_NN'
p275
aa(lp276
S'tie_NN'
p277
aS'boy_NN'
p278
aS'dentures_NNS'
p279
aS'grandma_NN'
p280
aa(lp281
S'tie_NN'
p282
aS'boy_NN'
p283
aS'dentures_NNS'
p284
aS'grandpa_NN'
p285
aa(lp286
S'tie_NN'
p287
aS'boy_NN'
p288
aS'heels_NNS'
p289
aS'mom_NN'
p290
aa(lp291
S'dress_NN'
p292
aS'mom_NN'
p293
aS'toy_NN'
p294
aS'baby_NN'
p295
aa(lp296
S'dress_NN'
p297
aS'mom_NN'
p298
aS'tie_NN'
p299
aS'boy_NN'
p300
aa(lp301
S'dress_NN'
p302
aS'mom_NN'
p303
aS'dress_NN'
p304
aS'girl_NN'
p305
aa(lp306
S'dress_NN'
p307
aS'mom_NN'
p308
aS'diaper_NN'
p309
aS'baby_NN'
p310
aa(lp311
S'dress_NN'
p312
aS'mom_NN'
p313
aS'headphones_NNS'
p314
aS'teenager_NN'
p315
aa(lp316
S'dress_NN'
p317
aS'mom_NN'
p318
aS'iphone_NNP'
p319
aS'teenager_NN'
p320
aa(lp321
S'dress_NN'
p322
aS'mom_NN'
p323
aS'jewelry_NN'
p324
aS'mom_NN'
p325
aa(lp326
S'dress_NN'
p327
aS'mom_NN'
p328
aS'wallet_NN'
p329
aS'dad_NN'
p330
aa(lp331
S'dress_NN'
p332
aS'mom_NN'
p333
aS'makeup_NN'
p334
aS'mom_NN'
p335
aa(lp336
S'dress_NN'
p337
aS'mom_NN'
p338
aS'purse_NN'
p339
aS'mom_NN'
p340
aa(lp341
S'dress_NN'
p342
aS'mom_NN'
p343
aS'rifle_NN'
p344
aS'dad_NN'
p345
aa(lp346
S'dress_NN'
p347
aS'mom_NN'
p348
aS'pipe_NN'
p349
aS'grandpa_NN'
p350
aa(lp351
S'dress_NN'
p352
aS'mom_NN'
p353
aS'curlers_NNS'
p354
aS'grandma_NN'
p355
aa(lp356
S'dress_NN'
p357
aS'mom_NN'
p358
aS'pacifier_NN'
p359
aS'baby_NN'
p360
aa(lp361
S'dress_NN'
p362
aS'mom_NN'
p363
aS'cane_NN'
p364
aS'grandpa_NN'
p365
aa(lp366
S'dress_NN'
p367
aS'mom_NN'
p368
aS'keys_NNS'
p369
aS'dad_NN'
p370
aa(lp371
S'dress_NN'
p372
aS'mom_NN'
p373
aS'keys_NNS'
p374
aS'mom_NN'
p375
aa(lp376
S'dress_NN'
p377
aS'mom_NN'
p378
aS'glasses_NNS'
p379
aS'grandma_NN'
p380
aa(lp381
S'dress_NN'
p382
aS'mom_NN'
p383
aS'schoolbooks_NNS'
p384
aS'boy_NN'
p385
aa(lp386
S'dress_NN'
p387
aS'mom_NN'
p388
aS'schoolbooks_NNS'
p389
aS'girl_NN'
p390
aa(lp391
S'dress_NN'
p392
aS'mom_NN'
p393
aS'backpack_NN'
p394
aS'boy_NN'
p395
aa(lp396
S'dress_NN'
p397
aS'mom_NN'
p398
aS'backpack_NN'
p399
aS'girl_NN'
p400
aa(lp401
S'dress_NN'
p402
aS'mom_NN'
p403
aS'rollerblades_NNS'
p404
aS'girl_NN'
p405
aa(lp406
S'dress_NN'
p407
aS'mom_NN'
p408
aS'rollerblades_NNS'
p409
aS'boy_NN'
p410
aa(lp411
S'dress_NN'
p412
aS'mom_NN'
p413
aS'stroller_NN'
p414
aS'baby_NN'
p415
aa(lp416
S'dress_NN'
p417
aS'mom_NN'
p418
aS'crib_NN'
p419
aS'baby_NN'
p420
aa(lp421
S'dress_NN'
p422
aS'mom_NN'
p423
aS'dentures_NNS'
p424
aS'grandma_NN'
p425
aa(lp426
S'dress_NN'
p427
aS'mom_NN'
p428
aS'dentures_NNS'
p429
aS'grandpa_NN'
p430
aa(lp431
S'dress_NN'
p432
aS'mom_NN'
p433
aS'heels_NNS'
p434
aS'mom_NN'
p435
aa(lp436
S'dress_NN'
p437
aS'girl_NN'
p438
aS'toy_NN'
p439
aS'baby_NN'
p440
aa(lp441
S'dress_NN'
p442
aS'girl_NN'
p443
aS'tie_NN'
p444
aS'boy_NN'
p445
aa(lp446
S'dress_NN'
p447
aS'girl_NN'
p448
aS'dress_NN'
p449
aS'mom_NN'
p450
aa(lp451
S'dress_NN'
p452
aS'girl_NN'
p453
aS'diaper_NN'
p454
aS'baby_NN'
p455
aa(lp456
S'dress_NN'
p457
aS'girl_NN'
p458
aS'headphones_NNS'
p459
aS'teenager_NN'
p460
aa(lp461
S'dress_NN'
p462
aS'girl_NN'
p463
aS'iphone_NNP'
p464
aS'teenager_NN'
p465
aa(lp466
S'dress_NN'
p467
aS'girl_NN'
p468
aS'jewelry_NN'
p469
aS'mom_NN'
p470
aa(lp471
S'dress_NN'
p472
aS'girl_NN'
p473
aS'wallet_NN'
p474
aS'dad_NN'
p475
aa(lp476
S'dress_NN'
p477
aS'girl_NN'
p478
aS'makeup_NN'
p479
aS'mom_NN'
p480
aa(lp481
S'dress_NN'
p482
aS'girl_NN'
p483
aS'purse_NN'
p484
aS'mom_NN'
p485
aa(lp486
S'dress_NN'
p487
aS'girl_NN'
p488
aS'rifle_NN'
p489
aS'dad_NN'
p490
aa(lp491
S'dress_NN'
p492
aS'girl_NN'
p493
aS'pipe_NN'
p494
aS'grandpa_NN'
p495
aa(lp496
S'dress_NN'
p497
aS'girl_NN'
p498
aS'curlers_NNS'
p499
aS'grandma_NN'
p500
aa(lp501
S'dress_NN'
p502
aS'girl_NN'
p503
aS'pacifier_NN'
p504
aS'baby_NN'
p505
aa(lp506
S'dress_NN'
p507
aS'girl_NN'
p508
aS'cane_NN'
p509
aS'grandpa_NN'
p510
aa(lp511
S'dress_NN'
p512
aS'girl_NN'
p513
aS'keys_NNS'
p514
aS'dad_NN'
p515
aa(lp516
S'dress_NN'
p517
aS'girl_NN'
p518
aS'keys_NNS'
p519
aS'mom_NN'
p520
aa(lp521
S'dress_NN'
p522
aS'girl_NN'
p523
aS'glasses_NNS'
p524
aS'grandma_NN'
p525
aa(lp526
S'dress_NN'
p527
aS'girl_NN'
p528
aS'schoolbooks_NNS'
p529
aS'boy_NN'
p530
aa(lp531
S'dress_NN'
p532
aS'girl_NN'
p533
aS'schoolbooks_NNS'
p534
aS'girl_NN'
p535
aa(lp536
S'dress_NN'
p537
aS'girl_NN'
p538
aS'backpack_NN'
p539
aS'boy_NN'
p540
aa(lp541
S'dress_NN'
p542
aS'girl_NN'
p543
aS'backpack_NN'
p544
aS'girl_NN'
p545
aa(lp546
S'dress_NN'
p547
aS'girl_NN'
p548
aS'rollerblades_NNS'
p549
aS'girl_NN'
p550
aa(lp551
S'dress_NN'
p552
aS'girl_NN'
p553
aS'rollerblades_NNS'
p554
aS'boy_NN'
p555
aa(lp556
S'dress_NN'
p557
aS'girl_NN'
p558
aS'stroller_NN'
p559
aS'baby_NN'
p560
aa(lp561
S'dress_NN'
p562
aS'girl_NN'
p563
aS'crib_NN'
p564
aS'baby_NN'
p565
aa(lp566
S'dress_NN'
p567
aS'girl_NN'
p568
aS'dentures_NNS'
p569
aS'grandma_NN'
p570
aa(lp571
S'dress_NN'
p572
aS'girl_NN'
p573
aS'dentures_NNS'
p574
aS'grandpa_NN'
p575
aa(lp576
S'dress_NN'
p577
aS'girl_NN'
p578
aS'heels_NNS'
p579
aS'mom_NN'
p580
aa(lp581
S'diaper_NN'
p582
aS'baby_NN'
p583
aS'toy_NN'
p584
aS'baby_NN'
p585
aa(lp586
S'diaper_NN'
p587
aS'baby_NN'
p588
aS'tie_NN'
p589
aS'boy_NN'
p590
aa(lp591
S'diaper_NN'
p592
aS'baby_NN'
p593
aS'dress_NN'
p594
aS'mom_NN'
p595
aa(lp596
S'diaper_NN'
p597
aS'baby_NN'
p598
aS'dress_NN'
p599
aS'girl_NN'
p600
aa(lp601
S'diaper_NN'
p602
aS'baby_NN'
p603
aS'headphones_NNS'
p604
aS'teenager_NN'
p605
aa(lp606
S'diaper_NN'
p607
aS'baby_NN'
p608
aS'iphone_NNP'
p609
aS'teenager_NN'
p610
aa(lp611
S'diaper_NN'
p612
aS'baby_NN'
p613
aS'jewelry_NN'
p614
aS'mom_NN'
p615
aa(lp616
S'diaper_NN'
p617
aS'baby_NN'
p618
aS'wallet_NN'
p619
aS'dad_NN'
p620
aa(lp621
S'diaper_NN'
p622
aS'baby_NN'
p623
aS'makeup_NN'
p624
aS'mom_NN'
p625
aa(lp626
S'diaper_NN'
p627
aS'baby_NN'
p628
aS'purse_NN'
p629
aS'mom_NN'
p630
aa(lp631
S'diaper_NN'
p632
aS'baby_NN'
p633
aS'rifle_NN'
p634
aS'dad_NN'
p635
aa(lp636
S'diaper_NN'
p637
aS'baby_NN'
p638
aS'pipe_NN'
p639
aS'grandpa_NN'
p640
aa(lp641
S'diaper_NN'
p642
aS'baby_NN'
p643
aS'curlers_NNS'
p644
aS'grandma_NN'
p645
aa(lp646
S'diaper_NN'
p647
aS'baby_NN'
p648
aS'pacifier_NN'
p649
aS'baby_NN'
p650
aa(lp651
S'diaper_NN'
p652
aS'baby_NN'
p653
aS'cane_NN'
p654
aS'grandpa_NN'
p655
aa(lp656
S'diaper_NN'
p657
aS'baby_NN'
p658
aS'keys_NNS'
p659
aS'dad_NN'
p660
aa(lp661
S'diaper_NN'
p662
aS'baby_NN'
p663
aS'keys_NNS'
p664
aS'mom_NN'
p665
aa(lp666
S'diaper_NN'
p667
aS'baby_NN'
p668
aS'glasses_NNS'
p669
aS'grandma_NN'
p670
aa(lp671
S'diaper_NN'
p672
aS'baby_NN'
p673
aS'schoolbooks_NNS'
p674
aS'boy_NN'
p675
aa(lp676
S'diaper_NN'
p677
aS'baby_NN'
p678
aS'schoolbooks_NNS'
p679
aS'girl_NN'
p680
aa(lp681
S'diaper_NN'
p682
aS'baby_NN'
p683
aS'backpack_NN'
p684
aS'boy_NN'
p685
aa(lp686
S'diaper_NN'
p687
aS'baby_NN'
p688
aS'backpack_NN'
p689
aS'girl_NN'
p690
aa(lp691
S'diaper_NN'
p692
aS'baby_NN'
p693
aS'rollerblades_NNS'
p694
aS'girl_NN'
p695
aa(lp696
S'diaper_NN'
p697
aS'baby_NN'
p698
aS'rollerblades_NNS'
p699
aS'boy_NN'
p700
aa(lp701
S'diaper_NN'
p702
aS'baby_NN'
p703
aS'stroller_NN'
p704
aS'baby_NN'
p705
aa(lp706
S'diaper_NN'
p707
aS'baby_NN'
p708
aS'crib_NN'
p709
aS'baby_NN'
p710
aa(lp711
S'diaper_NN'
p712
aS'baby_NN'
p713
aS'dentures_NNS'
p714
aS'grandma_NN'
p715
aa(lp716
S'diaper_NN'
p717
aS'baby_NN'
p718
aS'dentures_NNS'
p719
aS'grandpa_NN'
p720
aa(lp721
S'diaper_NN'
p722
aS'baby_NN'
p723
aS'heels_NNS'
p724
aS'mom_NN'
p725
aa(lp726
S'headphones_NNS'
p727
aS'teenager_NN'
p728
aS'toy_NN'
p729
aS'baby_NN'
p730
aa(lp731
S'headphones_NNS'
p732
aS'teenager_NN'
p733
aS'tie_NN'
p734
aS'boy_NN'
p735
aa(lp736
S'headphones_NNS'
p737
aS'teenager_NN'
p738
aS'dress_NN'
p739
aS'mom_NN'
p740
aa(lp741
S'headphones_NNS'
p742
aS'teenager_NN'
p743
aS'dress_NN'
p744
aS'girl_NN'
p745
aa(lp746
S'headphones_NNS'
p747
aS'teenager_NN'
p748
aS'diaper_NN'
p749
aS'baby_NN'
p750
aa(lp751
S'headphones_NNS'
p752
aS'teenager_NN'
p753
aS'iphone_NNP'
p754
aS'teenager_NN'
p755
aa(lp756
S'headphones_NNS'
p757
aS'teenager_NN'
p758
aS'jewelry_NN'
p759
aS'mom_NN'
p760
aa(lp761
S'headphones_NNS'
p762
aS'teenager_NN'
p763
aS'wallet_NN'
p764
aS'dad_NN'
p765
aa(lp766
S'headphones_NNS'
p767
aS'teenager_NN'
p768
aS'makeup_NN'
p769
aS'mom_NN'
p770
aa(lp771
S'headphones_NNS'
p772
aS'teenager_NN'
p773
aS'purse_NN'
p774
aS'mom_NN'
p775
aa(lp776
S'headphones_NNS'
p777
aS'teenager_NN'
p778
aS'rifle_NN'
p779
aS'dad_NN'
p780
aa(lp781
S'headphones_NNS'
p782
aS'teenager_NN'
p783
aS'pipe_NN'
p784
aS'grandpa_NN'
p785
aa(lp786
S'headphones_NNS'
p787
aS'teenager_NN'
p788
aS'curlers_NNS'
p789
aS'grandma_NN'
p790
aa(lp791
S'headphones_NNS'
p792
aS'teenager_NN'
p793
aS'pacifier_NN'
p794
aS'baby_NN'
p795
aa(lp796
S'headphones_NNS'
p797
aS'teenager_NN'
p798
aS'cane_NN'
p799
aS'grandpa_NN'
p800
aa(lp801
S'headphones_NNS'
p802
aS'teenager_NN'
p803
aS'keys_NNS'
p804
aS'dad_NN'
p805
aa(lp806
S'headphones_NNS'
p807
aS'teenager_NN'
p808
aS'keys_NNS'
p809
aS'mom_NN'
p810
aa(lp811
S'headphones_NNS'
p812
aS'teenager_NN'
p813
aS'glasses_NNS'
p814
aS'grandma_NN'
p815
aa(lp816
S'headphones_NNS'
p817
aS'teenager_NN'
p818
aS'schoolbooks_NNS'
p819
aS'boy_NN'
p820
aa(lp821
S'headphones_NNS'
p822
aS'teenager_NN'
p823
aS'schoolbooks_NNS'
p824
aS'girl_NN'
p825
aa(lp826
S'headphones_NNS'
p827
aS'teenager_NN'
p828
aS'backpack_NN'
p829
aS'boy_NN'
p830
aa(lp831
S'headphones_NNS'
p832
aS'teenager_NN'
p833
aS'backpack_NN'
p834
aS'girl_NN'
p835
aa(lp836
S'headphones_NNS'
p837
aS'teenager_NN'
p838
aS'rollerblades_NNS'
p839
aS'girl_NN'
p840
aa(lp841
S'headphones_NNS'
p842
aS'teenager_NN'
p843
aS'rollerblades_NNS'
p844
aS'boy_NN'
p845
aa(lp846
S'headphones_NNS'
p847
aS'teenager_NN'
p848
aS'stroller_NN'
p849
aS'baby_NN'
p850
aa(lp851
S'headphones_NNS'
p852
aS'teenager_NN'
p853
aS'crib_NN'
p854
aS'baby_NN'
p855
aa(lp856
S'headphones_NNS'
p857
aS'teenager_NN'
p858
aS'dentures_NNS'
p859
aS'grandma_NN'
p860
aa(lp861
S'headphones_NNS'
p862
aS'teenager_NN'
p863
aS'dentures_NNS'
p864
aS'grandpa_NN'
p865
aa(lp866
S'headphones_NNS'
p867
aS'teenager_NN'
p868
aS'heels_NNS'
p869
aS'mom_NN'
p870
aa(lp871
S'iphone_NNP'
p872
aS'teenager_NN'
p873
aS'toy_NN'
p874
aS'baby_NN'
p875
aa(lp876
S'iphone_NNP'
p877
aS'teenager_NN'
p878
aS'tie_NN'
p879
aS'boy_NN'
p880
aa(lp881
S'iphone_NNP'
p882
aS'teenager_NN'
p883
aS'dress_NN'
p884
aS'mom_NN'
p885
aa(lp886
S'iphone_NNP'
p887
aS'teenager_NN'
p888
aS'dress_NN'
p889
aS'girl_NN'
p890
aa(lp891
S'iphone_NNP'
p892
aS'teenager_NN'
p893
aS'diaper_NN'
p894
aS'baby_NN'
p895
aa(lp896
S'iphone_NNP'
p897
aS'teenager_NN'
p898
aS'headphones_NNS'
p899
aS'teenager_NN'
p900
aa(lp901
S'iphone_NNP'
p902
aS'teenager_NN'
p903
aS'jewelry_NN'
p904
aS'mom_NN'
p905
aa(lp906
S'iphone_NNP'
p907
aS'teenager_NN'
p908
aS'wallet_NN'
p909
aS'dad_NN'
p910
aa(lp911
S'iphone_NNP'
p912
aS'teenager_NN'
p913
aS'makeup_NN'
p914
aS'mom_NN'
p915
aa(lp916
S'iphone_NNP'
p917
aS'teenager_NN'
p918
aS'purse_NN'
p919
aS'mom_NN'
p920
aa(lp921
S'iphone_NNP'
p922
aS'teenager_NN'
p923
aS'rifle_NN'
p924
aS'dad_NN'
p925
aa(lp926
S'iphone_NNP'
p927
aS'teenager_NN'
p928
aS'pipe_NN'
p929
aS'grandpa_NN'
p930
aa(lp931
S'iphone_NNP'
p932
aS'teenager_NN'
p933
aS'curlers_NNS'
p934
aS'grandma_NN'
p935
aa(lp936
S'iphone_NNP'
p937
aS'teenager_NN'
p938
aS'pacifier_NN'
p939
aS'baby_NN'
p940
aa(lp941
S'iphone_NNP'
p942
aS'teenager_NN'
p943
aS'cane_NN'
p944
aS'grandpa_NN'
p945
aa(lp946
S'iphone_NNP'
p947
aS'teenager_NN'
p948
aS'keys_NNS'
p949
aS'dad_NN'
p950
aa(lp951
S'iphone_NNP'
p952
aS'teenager_NN'
p953
aS'keys_NNS'
p954
aS'mom_NN'
p955
aa(lp956
S'iphone_NNP'
p957
aS'teenager_NN'
p958
aS'glasses_NNS'
p959
aS'grandma_NN'
p960
aa(lp961
S'iphone_NNP'
p962
aS'teenager_NN'
p963
aS'schoolbooks_NNS'
p964
aS'boy_NN'
p965
aa(lp966
S'iphone_NNP'
p967
aS'teenager_NN'
p968
aS'schoolbooks_NNS'
p969
aS'girl_NN'
p970
aa(lp971
S'iphone_NNP'
p972
aS'teenager_NN'
p973
aS'backpack_NN'
p974
aS'boy_NN'
p975
aa(lp976
S'iphone_NNP'
p977
aS'teenager_NN'
p978
aS'backpack_NN'
p979
aS'girl_NN'
p980
aa(lp981
S'iphone_NNP'
p982
aS'teenager_NN'
p983
aS'rollerblades_NNS'
p984
aS'girl_NN'
p985
aa(lp986
S'iphone_NNP'
p987
aS'teenager_NN'
p988
aS'rollerblades_NNS'
p989
aS'boy_NN'
p990
aa(lp991
S'iphone_NNP'
p992
aS'teenager_NN'
p993
aS'stroller_NN'
p994
aS'baby_NN'
p995
aa(lp996
S'iphone_NNP'
p997
aS'teenager_NN'
p998
aS'crib_NN'
p999
aS'baby_NN'
p1000
aa(lp1001
S'iphone_NNP'
p1002
aS'teenager_NN'
p1003
aS'dentures_NNS'
p1004
aS'grandma_NN'
p1005
aa(lp1006
S'iphone_NNP'
p1007
aS'teenager_NN'
p1008
aS'dentures_NNS'
p1009
aS'grandpa_NN'
p1010
aa(lp1011
S'iphone_NNP'
p1012
aS'teenager_NN'
p1013
aS'heels_NNS'
p1014
aS'mom_NN'
p1015
aa(lp1016
S'jewelry_NN'
p1017
aS'mom_NN'
p1018
aS'toy_NN'
p1019
aS'baby_NN'
p1020
aa(lp1021
S'jewelry_NN'
p1022
aS'mom_NN'
p1023
aS'tie_NN'
p1024
aS'boy_NN'
p1025
aa(lp1026
S'jewelry_NN'
p1027
aS'mom_NN'
p1028
aS'dress_NN'
p1029
aS'mom_NN'
p1030
aa(lp1031
S'jewelry_NN'
p1032
aS'mom_NN'
p1033
aS'dress_NN'
p1034
aS'girl_NN'
p1035
aa(lp1036
S'jewelry_NN'
p1037
aS'mom_NN'
p1038
aS'diaper_NN'
p1039
aS'baby_NN'
p1040
aa(lp1041
S'jewelry_NN'
p1042
aS'mom_NN'
p1043
aS'headphones_NNS'
p1044
aS'teenager_NN'
p1045
aa(lp1046
S'jewelry_NN'
p1047
aS'mom_NN'
p1048
aS'iphone_NNP'
p1049
aS'teenager_NN'
p1050
aa(lp1051
S'jewelry_NN'
p1052
aS'mom_NN'
p1053
aS'wallet_NN'
p1054
aS'dad_NN'
p1055
aa(lp1056
S'jewelry_NN'
p1057
aS'mom_NN'
p1058
aS'makeup_NN'
p1059
aS'mom_NN'
p1060
aa(lp1061
S'jewelry_NN'
p1062
aS'mom_NN'
p1063
aS'purse_NN'
p1064
aS'mom_NN'
p1065
aa(lp1066
S'jewelry_NN'
p1067
aS'mom_NN'
p1068
aS'rifle_NN'
p1069
aS'dad_NN'
p1070
aa(lp1071
S'jewelry_NN'
p1072
aS'mom_NN'
p1073
aS'pipe_NN'
p1074
aS'grandpa_NN'
p1075
aa(lp1076
S'jewelry_NN'
p1077
aS'mom_NN'
p1078
aS'curlers_NNS'
p1079
aS'grandma_NN'
p1080
aa(lp1081
S'jewelry_NN'
p1082
aS'mom_NN'
p1083
aS'pacifier_NN'
p1084
aS'baby_NN'
p1085
aa(lp1086
S'jewelry_NN'
p1087
aS'mom_NN'
p1088
aS'cane_NN'
p1089
aS'grandpa_NN'
p1090
aa(lp1091
S'jewelry_NN'
p1092
aS'mom_NN'
p1093
aS'keys_NNS'
p1094
aS'dad_NN'
p1095
aa(lp1096
S'jewelry_NN'
p1097
aS'mom_NN'
p1098
aS'keys_NNS'
p1099
aS'mom_NN'
p1100
aa(lp1101
S'jewelry_NN'
p1102
aS'mom_NN'
p1103
aS'glasses_NNS'
p1104
aS'grandma_NN'
p1105
aa(lp1106
S'jewelry_NN'
p1107
aS'mom_NN'
p1108
aS'schoolbooks_NNS'
p1109
aS'boy_NN'
p1110
aa(lp1111
S'jewelry_NN'
p1112
aS'mom_NN'
p1113
aS'schoolbooks_NNS'
p1114
aS'girl_NN'
p1115
aa(lp1116
S'jewelry_NN'
p1117
aS'mom_NN'
p1118
aS'backpack_NN'
p1119
aS'boy_NN'
p1120
aa(lp1121
S'jewelry_NN'
p1122
aS'mom_NN'
p1123
aS'backpack_NN'
p1124
aS'girl_NN'
p1125
aa(lp1126
S'jewelry_NN'
p1127
aS'mom_NN'
p1128
aS'rollerblades_NNS'
p1129
aS'girl_NN'
p1130
aa(lp1131
S'jewelry_NN'
p1132
aS'mom_NN'
p1133
aS'rollerblades_NNS'
p1134
aS'boy_NN'
p1135
aa(lp1136
S'jewelry_NN'
p1137
aS'mom_NN'
p1138
aS'stroller_NN'
p1139
aS'baby_NN'
p1140
aa(lp1141
S'jewelry_NN'
p1142
aS'mom_NN'
p1143
aS'crib_NN'
p1144
aS'baby_NN'
p1145
aa(lp1146
S'jewelry_NN'
p1147
aS'mom_NN'
p1148
aS'dentures_NNS'
p1149
aS'grandma_NN'
p1150
aa(lp1151
S'jewelry_NN'
p1152
aS'mom_NN'
p1153
aS'dentures_NNS'
p1154
aS'grandpa_NN'
p1155
aa(lp1156
S'jewelry_NN'
p1157
aS'mom_NN'
p1158
aS'heels_NNS'
p1159
aS'mom_NN'
p1160
aa(lp1161
S'wallet_NN'
p1162
aS'dad_NN'
p1163
aS'toy_NN'
p1164
aS'baby_NN'
p1165
aa(lp1166
S'wallet_NN'
p1167
aS'dad_NN'
p1168
aS'tie_NN'
p1169
aS'boy_NN'
p1170
aa(lp1171
S'wallet_NN'
p1172
aS'dad_NN'
p1173
aS'dress_NN'
p1174
aS'mom_NN'
p1175
aa(lp1176
S'wallet_NN'
p1177
aS'dad_NN'
p1178
aS'dress_NN'
p1179
aS'girl_NN'
p1180
aa(lp1181
S'wallet_NN'
p1182
aS'dad_NN'
p1183
aS'diaper_NN'
p1184
aS'baby_NN'
p1185
aa(lp1186
S'wallet_NN'
p1187
aS'dad_NN'
p1188
aS'headphones_NNS'
p1189
aS'teenager_NN'
p1190
aa(lp1191
S'wallet_NN'
p1192
aS'dad_NN'
p1193
aS'iphone_NNP'
p1194
aS'teenager_NN'
p1195
aa(lp1196
S'wallet_NN'
p1197
aS'dad_NN'
p1198
aS'jewelry_NN'
p1199
aS'mom_NN'
p1200
aa(lp1201
S'wallet_NN'
p1202
aS'dad_NN'
p1203
aS'makeup_NN'
p1204
aS'mom_NN'
p1205
aa(lp1206
S'wallet_NN'
p1207
aS'dad_NN'
p1208
aS'purse_NN'
p1209
aS'mom_NN'
p1210
aa(lp1211
S'wallet_NN'
p1212
aS'dad_NN'
p1213
aS'rifle_NN'
p1214
aS'dad_NN'
p1215
aa(lp1216
S'wallet_NN'
p1217
aS'dad_NN'
p1218
aS'pipe_NN'
p1219
aS'grandpa_NN'
p1220
aa(lp1221
S'wallet_NN'
p1222
aS'dad_NN'
p1223
aS'curlers_NNS'
p1224
aS'grandma_NN'
p1225
aa(lp1226
S'wallet_NN'
p1227
aS'dad_NN'
p1228
aS'pacifier_NN'
p1229
aS'baby_NN'
p1230
aa(lp1231
S'wallet_NN'
p1232
aS'dad_NN'
p1233
aS'cane_NN'
p1234
aS'grandpa_NN'
p1235
aa(lp1236
S'wallet_NN'
p1237
aS'dad_NN'
p1238
aS'keys_NNS'
p1239
aS'dad_NN'
p1240
aa(lp1241
S'wallet_NN'
p1242
aS'dad_NN'
p1243
aS'keys_NNS'
p1244
aS'mom_NN'
p1245
aa(lp1246
S'wallet_NN'
p1247
aS'dad_NN'
p1248
aS'glasses_NNS'
p1249
aS'grandma_NN'
p1250
aa(lp1251
S'wallet_NN'
p1252
aS'dad_NN'
p1253
aS'schoolbooks_NNS'
p1254
aS'boy_NN'
p1255
aa(lp1256
S'wallet_NN'
p1257
aS'dad_NN'
p1258
aS'schoolbooks_NNS'
p1259
aS'girl_NN'
p1260
aa(lp1261
S'wallet_NN'
p1262
aS'dad_NN'
p1263
aS'backpack_NN'
p1264
aS'boy_NN'
p1265
aa(lp1266
S'wallet_NN'
p1267
aS'dad_NN'
p1268
aS'backpack_NN'
p1269
aS'girl_NN'
p1270
aa(lp1271
S'wallet_NN'
p1272
aS'dad_NN'
p1273
aS'rollerblades_NNS'
p1274
aS'girl_NN'
p1275
aa(lp1276
S'wallet_NN'
p1277
aS'dad_NN'
p1278
aS'rollerblades_NNS'
p1279
aS'boy_NN'
p1280
aa(lp1281
S'wallet_NN'
p1282
aS'dad_NN'
p1283
aS'stroller_NN'
p1284
aS'baby_NN'
p1285
aa(lp1286
S'wallet_NN'
p1287
aS'dad_NN'
p1288
aS'crib_NN'
p1289
aS'baby_NN'
p1290
aa(lp1291
S'wallet_NN'
p1292
aS'dad_NN'
p1293
aS'dentures_NNS'
p1294
aS'grandma_NN'
p1295
aa(lp1296
S'wallet_NN'
p1297
aS'dad_NN'
p1298
aS'dentures_NNS'
p1299
aS'grandpa_NN'
p1300
aa(lp1301
S'wallet_NN'
p1302
aS'dad_NN'
p1303
aS'heels_NNS'
p1304
aS'mom_NN'
p1305
aa(lp1306
S'makeup_NN'
p1307
aS'mom_NN'
p1308
aS'toy_NN'
p1309
aS'baby_NN'
p1310
aa(lp1311
S'makeup_NN'
p1312
aS'mom_NN'
p1313
aS'tie_NN'
p1314
aS'boy_NN'
p1315
aa(lp1316
S'makeup_NN'
p1317
aS'mom_NN'
p1318
aS'dress_NN'
p1319
aS'mom_NN'
p1320
aa(lp1321
S'makeup_NN'
p1322
aS'mom_NN'
p1323
aS'dress_NN'
p1324
aS'girl_NN'
p1325
aa(lp1326
S'makeup_NN'
p1327
aS'mom_NN'
p1328
aS'diaper_NN'
p1329
aS'baby_NN'
p1330
aa(lp1331
S'makeup_NN'
p1332
aS'mom_NN'
p1333
aS'headphones_NNS'
p1334
aS'teenager_NN'
p1335
aa(lp1336
S'makeup_NN'
p1337
aS'mom_NN'
p1338
aS'iphone_NNP'
p1339
aS'teenager_NN'
p1340
aa(lp1341
S'makeup_NN'
p1342
aS'mom_NN'
p1343
aS'jewelry_NN'
p1344
aS'mom_NN'
p1345
aa(lp1346
S'makeup_NN'
p1347
aS'mom_NN'
p1348
aS'wallet_NN'
p1349
aS'dad_NN'
p1350
aa(lp1351
S'makeup_NN'
p1352
aS'mom_NN'
p1353
aS'purse_NN'
p1354
aS'mom_NN'
p1355
aa(lp1356
S'makeup_NN'
p1357
aS'mom_NN'
p1358
aS'rifle_NN'
p1359
aS'dad_NN'
p1360
aa(lp1361
S'makeup_NN'
p1362
aS'mom_NN'
p1363
aS'pipe_NN'
p1364
aS'grandpa_NN'
p1365
aa(lp1366
S'makeup_NN'
p1367
aS'mom_NN'
p1368
aS'curlers_NNS'
p1369
aS'grandma_NN'
p1370
aa(lp1371
S'makeup_NN'
p1372
aS'mom_NN'
p1373
aS'pacifier_NN'
p1374
aS'baby_NN'
p1375
aa(lp1376
S'makeup_NN'
p1377
aS'mom_NN'
p1378
aS'cane_NN'
p1379
aS'grandpa_NN'
p1380
aa(lp1381
S'makeup_NN'
p1382
aS'mom_NN'
p1383
aS'keys_NNS'
p1384
aS'dad_NN'
p1385
aa(lp1386
S'makeup_NN'
p1387
aS'mom_NN'
p1388
aS'keys_NNS'
p1389
aS'mom_NN'
p1390
aa(lp1391
S'makeup_NN'
p1392
aS'mom_NN'
p1393
aS'glasses_NNS'
p1394
aS'grandma_NN'
p1395
aa(lp1396
S'makeup_NN'
p1397
aS'mom_NN'
p1398
aS'schoolbooks_NNS'
p1399
aS'boy_NN'
p1400
aa(lp1401
S'makeup_NN'
p1402
aS'mom_NN'
p1403
aS'schoolbooks_NNS'
p1404
aS'girl_NN'
p1405
aa(lp1406
S'makeup_NN'
p1407
aS'mom_NN'
p1408
aS'backpack_NN'
p1409
aS'boy_NN'
p1410
aa(lp1411
S'makeup_NN'
p1412
aS'mom_NN'
p1413
aS'backpack_NN'
p1414
aS'girl_NN'
p1415
aa(lp1416
S'makeup_NN'
p1417
aS'mom_NN'
p1418
aS'rollerblades_NNS'
p1419
aS'girl_NN'
p1420
aa(lp1421
S'makeup_NN'
p1422
aS'mom_NN'
p1423
aS'rollerblades_NNS'
p1424
aS'boy_NN'
p1425
aa(lp1426
S'makeup_NN'
p1427
aS'mom_NN'
p1428
aS'stroller_NN'
p1429
aS'baby_NN'
p1430
aa(lp1431
S'makeup_NN'
p1432
aS'mom_NN'
p1433
aS'crib_NN'
p1434
aS'baby_NN'
p1435
aa(lp1436
S'makeup_NN'
p1437
aS'mom_NN'
p1438
aS'dentures_NNS'
p1439
aS'grandma_NN'
p1440
aa(lp1441
S'makeup_NN'
p1442
aS'mom_NN'
p1443
aS'dentures_NNS'
p1444
aS'grandpa_NN'
p1445
aa(lp1446
S'makeup_NN'
p1447
aS'mom_NN'
p1448
aS'heels_NNS'
p1449
aS'mom_NN'
p1450
aa(lp1451
S'purse_NN'
p1452
aS'mom_NN'
p1453
aS'toy_NN'
p1454
aS'baby_NN'
p1455
aa(lp1456
S'purse_NN'
p1457
aS'mom_NN'
p1458
aS'tie_NN'
p1459
aS'boy_NN'
p1460
aa(lp1461
S'purse_NN'
p1462
aS'mom_NN'
p1463
aS'dress_NN'
p1464
aS'mom_NN'
p1465
aa(lp1466
S'purse_NN'
p1467
aS'mom_NN'
p1468
aS'dress_NN'
p1469
aS'girl_NN'
p1470
aa(lp1471
S'purse_NN'
p1472
aS'mom_NN'
p1473
aS'diaper_NN'
p1474
aS'baby_NN'
p1475
aa(lp1476
S'purse_NN'
p1477
aS'mom_NN'
p1478
aS'headphones_NNS'
p1479
aS'teenager_NN'
p1480
aa(lp1481
S'purse_NN'
p1482
aS'mom_NN'
p1483
aS'iphone_NNP'
p1484
aS'teenager_NN'
p1485
aa(lp1486
S'purse_NN'
p1487
aS'mom_NN'
p1488
aS'jewelry_NN'
p1489
aS'mom_NN'
p1490
aa(lp1491
S'purse_NN'
p1492
aS'mom_NN'
p1493
aS'wallet_NN'
p1494
aS'dad_NN'
p1495
aa(lp1496
S'purse_NN'
p1497
aS'mom_NN'
p1498
aS'makeup_NN'
p1499
aS'mom_NN'
p1500
aa(lp1501
S'purse_NN'
p1502
aS'mom_NN'
p1503
aS'rifle_NN'
p1504
aS'dad_NN'
p1505
aa(lp1506
S'purse_NN'
p1507
aS'mom_NN'
p1508
aS'pipe_NN'
p1509
aS'grandpa_NN'
p1510
aa(lp1511
S'purse_NN'
p1512
aS'mom_NN'
p1513
aS'curlers_NNS'
p1514
aS'grandma_NN'
p1515
aa(lp1516
S'purse_NN'
p1517
aS'mom_NN'
p1518
aS'pacifier_NN'
p1519
aS'baby_NN'
p1520
aa(lp1521
S'purse_NN'
p1522
aS'mom_NN'
p1523
aS'cane_NN'
p1524
aS'grandpa_NN'
p1525
aa(lp1526
S'purse_NN'
p1527
aS'mom_NN'
p1528
aS'keys_NNS'
p1529
aS'dad_NN'
p1530
aa(lp1531
S'purse_NN'
p1532
aS'mom_NN'
p1533
aS'keys_NNS'
p1534
aS'mom_NN'
p1535
aa(lp1536
S'purse_NN'
p1537
aS'mom_NN'
p1538
aS'glasses_NNS'
p1539
aS'grandma_NN'
p1540
aa(lp1541
S'purse_NN'
p1542
aS'mom_NN'
p1543
aS'schoolbooks_NNS'
p1544
aS'boy_NN'
p1545
aa(lp1546
S'purse_NN'
p1547
aS'mom_NN'
p1548
aS'schoolbooks_NNS'
p1549
aS'girl_NN'
p1550
aa(lp1551
S'purse_NN'
p1552
aS'mom_NN'
p1553
aS'backpack_NN'
p1554
aS'boy_NN'
p1555
aa(lp1556
S'purse_NN'
p1557
aS'mom_NN'
p1558
aS'backpack_NN'
p1559
aS'girl_NN'
p1560
aa(lp1561
S'purse_NN'
p1562
aS'mom_NN'
p1563
aS'rollerblades_NNS'
p1564
aS'girl_NN'
p1565
aa(lp1566
S'purse_NN'
p1567
aS'mom_NN'
p1568
aS'rollerblades_NNS'
p1569
aS'boy_NN'
p1570
aa(lp1571
S'purse_NN'
p1572
aS'mom_NN'
p1573
aS'stroller_NN'
p1574
aS'baby_NN'
p1575
aa(lp1576
S'purse_NN'
p1577
aS'mom_NN'
p1578
aS'crib_NN'
p1579
aS'baby_NN'
p1580
aa(lp1581
S'purse_NN'
p1582
aS'mom_NN'
p1583
aS'dentures_NNS'
p1584
aS'grandma_NN'
p1585
aa(lp1586
S'purse_NN'
p1587
aS'mom_NN'
p1588
aS'dentures_NNS'
p1589
aS'grandpa_NN'
p1590
aa(lp1591
S'purse_NN'
p1592
aS'mom_NN'
p1593
aS'heels_NNS'
p1594
aS'mom_NN'
p1595
aa(lp1596
S'rifle_NN'
p1597
aS'dad_NN'
p1598
aS'toy_NN'
p1599
aS'baby_NN'
p1600
aa(lp1601
S'rifle_NN'
p1602
aS'dad_NN'
p1603
aS'tie_NN'
p1604
aS'boy_NN'
p1605
aa(lp1606
S'rifle_NN'
p1607
aS'dad_NN'
p1608
aS'dress_NN'
p1609
aS'mom_NN'
p1610
aa(lp1611
S'rifle_NN'
p1612
aS'dad_NN'
p1613
aS'dress_NN'
p1614
aS'girl_NN'
p1615
aa(lp1616
S'rifle_NN'
p1617
aS'dad_NN'
p1618
aS'diaper_NN'
p1619
aS'baby_NN'
p1620
aa(lp1621
S'rifle_NN'
p1622
aS'dad_NN'
p1623
aS'headphones_NNS'
p1624
aS'teenager_NN'
p1625
aa(lp1626
S'rifle_NN'
p1627
aS'dad_NN'
p1628
aS'iphone_NNP'
p1629
aS'teenager_NN'
p1630
aa(lp1631
S'rifle_NN'
p1632
aS'dad_NN'
p1633
aS'jewelry_NN'
p1634
aS'mom_NN'
p1635
aa(lp1636
S'rifle_NN'
p1637
aS'dad_NN'
p1638
aS'wallet_NN'
p1639
aS'dad_NN'
p1640
aa(lp1641
S'rifle_NN'
p1642
aS'dad_NN'
p1643
aS'makeup_NN'
p1644
aS'mom_NN'
p1645
aa(lp1646
S'rifle_NN'
p1647
aS'dad_NN'
p1648
aS'purse_NN'
p1649
aS'mom_NN'
p1650
aa(lp1651
S'rifle_NN'
p1652
aS'dad_NN'
p1653
aS'pipe_NN'
p1654
aS'grandpa_NN'
p1655
aa(lp1656
S'rifle_NN'
p1657
aS'dad_NN'
p1658
aS'curlers_NNS'
p1659
aS'grandma_NN'
p1660
aa(lp1661
S'rifle_NN'
p1662
aS'dad_NN'
p1663
aS'pacifier_NN'
p1664
aS'baby_NN'
p1665
aa(lp1666
S'rifle_NN'
p1667
aS'dad_NN'
p1668
aS'cane_NN'
p1669
aS'grandpa_NN'
p1670
aa(lp1671
S'rifle_NN'
p1672
aS'dad_NN'
p1673
aS'keys_NNS'
p1674
aS'dad_NN'
p1675
aa(lp1676
S'rifle_NN'
p1677
aS'dad_NN'
p1678
aS'keys_NNS'
p1679
aS'mom_NN'
p1680
aa(lp1681
S'rifle_NN'
p1682
aS'dad_NN'
p1683
aS'glasses_NNS'
p1684
aS'grandma_NN'
p1685
aa(lp1686
S'rifle_NN'
p1687
aS'dad_NN'
p1688
aS'schoolbooks_NNS'
p1689
aS'boy_NN'
p1690
aa(lp1691
S'rifle_NN'
p1692
aS'dad_NN'
p1693
aS'schoolbooks_NNS'
p1694
aS'girl_NN'
p1695
aa(lp1696
S'rifle_NN'
p1697
aS'dad_NN'
p1698
aS'backpack_NN'
p1699
aS'boy_NN'
p1700
aa(lp1701
S'rifle_NN'
p1702
aS'dad_NN'
p1703
aS'backpack_NN'
p1704
aS'girl_NN'
p1705
aa(lp1706
S'rifle_NN'
p1707
aS'dad_NN'
p1708
aS'rollerblades_NNS'
p1709
aS'girl_NN'
p1710
aa(lp1711
S'rifle_NN'
p1712
aS'dad_NN'
p1713
aS'rollerblades_NNS'
p1714
aS'boy_NN'
p1715
aa(lp1716
S'rifle_NN'
p1717
aS'dad_NN'
p1718
aS'stroller_NN'
p1719
aS'baby_NN'
p1720
aa(lp1721
S'rifle_NN'
p1722
aS'dad_NN'
p1723
aS'crib_NN'
p1724
aS'baby_NN'
p1725
aa(lp1726
S'rifle_NN'
p1727
aS'dad_NN'
p1728
aS'dentures_NNS'
p1729
aS'grandma_NN'
p1730
aa(lp1731
S'rifle_NN'
p1732
aS'dad_NN'
p1733
aS'dentures_NNS'
p1734
aS'grandpa_NN'
p1735
aa(lp1736
S'rifle_NN'
p1737
aS'dad_NN'
p1738
aS'heels_NNS'
p1739
aS'mom_NN'
p1740
aa(lp1741
S'pipe_NN'
p1742
aS'grandpa_NN'
p1743
aS'toy_NN'
p1744
aS'baby_NN'
p1745
aa(lp1746
S'pipe_NN'
p1747
aS'grandpa_NN'
p1748
aS'tie_NN'
p1749
aS'boy_NN'
p1750
aa(lp1751
S'pipe_NN'
p1752
aS'grandpa_NN'
p1753
aS'dress_NN'
p1754
aS'mom_NN'
p1755
aa(lp1756
S'pipe_NN'
p1757
aS'grandpa_NN'
p1758
aS'dress_NN'
p1759
aS'girl_NN'
p1760
aa(lp1761
S'pipe_NN'
p1762
aS'grandpa_NN'
p1763
aS'diaper_NN'
p1764
aS'baby_NN'
p1765
aa(lp1766
S'pipe_NN'
p1767
aS'grandpa_NN'
p1768
aS'headphones_NNS'
p1769
aS'teenager_NN'
p1770
aa(lp1771
S'pipe_NN'
p1772
aS'grandpa_NN'
p1773
aS'iphone_NNP'
p1774
aS'teenager_NN'
p1775
aa(lp1776
S'pipe_NN'
p1777
aS'grandpa_NN'
p1778
aS'jewelry_NN'
p1779
aS'mom_NN'
p1780
aa(lp1781
S'pipe_NN'
p1782
aS'grandpa_NN'
p1783
aS'wallet_NN'
p1784
aS'dad_NN'
p1785
aa(lp1786
S'pipe_NN'
p1787
aS'grandpa_NN'
p1788
aS'makeup_NN'
p1789
aS'mom_NN'
p1790
aa(lp1791
S'pipe_NN'
p1792
aS'grandpa_NN'
p1793
aS'purse_NN'
p1794
aS'mom_NN'
p1795
aa(lp1796
S'pipe_NN'
p1797
aS'grandpa_NN'
p1798
aS'rifle_NN'
p1799
aS'dad_NN'
p1800
aa(lp1801
S'pipe_NN'
p1802
aS'grandpa_NN'
p1803
aS'curlers_NNS'
p1804
aS'grandma_NN'
p1805
aa(lp1806
S'pipe_NN'
p1807
aS'grandpa_NN'
p1808
aS'pacifier_NN'
p1809
aS'baby_NN'
p1810
aa(lp1811
S'pipe_NN'
p1812
aS'grandpa_NN'
p1813
aS'cane_NN'
p1814
aS'grandpa_NN'
p1815
aa(lp1816
S'pipe_NN'
p1817
aS'grandpa_NN'
p1818
aS'keys_NNS'
p1819
aS'dad_NN'
p1820
aa(lp1821
S'pipe_NN'
p1822
aS'grandpa_NN'
p1823
aS'keys_NNS'
p1824
aS'mom_NN'
p1825
aa(lp1826
S'pipe_NN'
p1827
aS'grandpa_NN'
p1828
aS'glasses_NNS'
p1829
aS'grandma_NN'
p1830
aa(lp1831
S'pipe_NN'
p1832
aS'grandpa_NN'
p1833
aS'schoolbooks_NNS'
p1834
aS'boy_NN'
p1835
aa(lp1836
S'pipe_NN'
p1837
aS'grandpa_NN'
p1838
aS'schoolbooks_NNS'
p1839
aS'girl_NN'
p1840
aa(lp1841
S'pipe_NN'
p1842
aS'grandpa_NN'
p1843
aS'backpack_NN'
p1844
aS'boy_NN'
p1845
aa(lp1846
S'pipe_NN'
p1847
aS'grandpa_NN'
p1848
aS'backpack_NN'
p1849
aS'girl_NN'
p1850
aa(lp1851
S'pipe_NN'
p1852
aS'grandpa_NN'
p1853
aS'rollerblades_NNS'
p1854
aS'girl_NN'
p1855
aa(lp1856
S'pipe_NN'
p1857
aS'grandpa_NN'
p1858
aS'rollerblades_NNS'
p1859
aS'boy_NN'
p1860
aa(lp1861
S'pipe_NN'
p1862
aS'grandpa_NN'
p1863
aS'stroller_NN'
p1864
aS'baby_NN'
p1865
aa(lp1866
S'pipe_NN'
p1867
aS'grandpa_NN'
p1868
aS'crib_NN'
p1869
aS'baby_NN'
p1870
aa(lp1871
S'pipe_NN'
p1872
aS'grandpa_NN'
p1873
aS'dentures_NNS'
p1874
aS'grandma_NN'
p1875
aa(lp1876
S'pipe_NN'
p1877
aS'grandpa_NN'
p1878
aS'dentures_NNS'
p1879
aS'grandpa_NN'
p1880
aa(lp1881
S'pipe_NN'
p1882
aS'grandpa_NN'
p1883
aS'heels_NNS'
p1884
aS'mom_NN'
p1885
aa(lp1886
S'curlers_NNS'
p1887
aS'grandma_NN'
p1888
aS'toy_NN'
p1889
aS'baby_NN'
p1890
aa(lp1891
S'curlers_NNS'
p1892
aS'grandma_NN'
p1893
aS'tie_NN'
p1894
aS'boy_NN'
p1895
aa(lp1896
S'curlers_NNS'
p1897
aS'grandma_NN'
p1898
aS'dress_NN'
p1899
aS'mom_NN'
p1900
aa(lp1901
S'curlers_NNS'
p1902
aS'grandma_NN'
p1903
aS'dress_NN'
p1904
aS'girl_NN'
p1905
aa(lp1906
S'curlers_NNS'
p1907
aS'grandma_NN'
p1908
aS'diaper_NN'
p1909
aS'baby_NN'
p1910
aa(lp1911
S'curlers_NNS'
p1912
aS'grandma_NN'
p1913
aS'headphones_NNS'
p1914
aS'teenager_NN'
p1915
aa(lp1916
S'curlers_NNS'
p1917
aS'grandma_NN'
p1918
aS'iphone_NNP'
p1919
aS'teenager_NN'
p1920
aa(lp1921
S'curlers_NNS'
p1922
aS'grandma_NN'
p1923
aS'jewelry_NN'
p1924
aS'mom_NN'
p1925
aa(lp1926
S'curlers_NNS'
p1927
aS'grandma_NN'
p1928
aS'wallet_NN'
p1929
aS'dad_NN'
p1930
aa(lp1931
S'curlers_NNS'
p1932
aS'grandma_NN'
p1933
aS'makeup_NN'
p1934
aS'mom_NN'
p1935
aa(lp1936
S'curlers_NNS'
p1937
aS'grandma_NN'
p1938
aS'purse_NN'
p1939
aS'mom_NN'
p1940
aa(lp1941
S'curlers_NNS'
p1942
aS'grandma_NN'
p1943
aS'rifle_NN'
p1944
aS'dad_NN'
p1945
aa(lp1946
S'curlers_NNS'
p1947
aS'grandma_NN'
p1948
aS'pipe_NN'
p1949
aS'grandpa_NN'
p1950
aa(lp1951
S'curlers_NNS'
p1952
aS'grandma_NN'
p1953
aS'pacifier_NN'
p1954
aS'baby_NN'
p1955
aa(lp1956
S'curlers_NNS'
p1957
aS'grandma_NN'
p1958
aS'cane_NN'
p1959
aS'grandpa_NN'
p1960
aa(lp1961
S'curlers_NNS'
p1962
aS'grandma_NN'
p1963
aS'keys_NNS'
p1964
aS'dad_NN'
p1965
aa(lp1966
S'curlers_NNS'
p1967
aS'grandma_NN'
p1968
aS'keys_NNS'
p1969
aS'mom_NN'
p1970
aa(lp1971
S'curlers_NNS'
p1972
aS'grandma_NN'
p1973
aS'glasses_NNS'
p1974
aS'grandma_NN'
p1975
aa(lp1976
S'curlers_NNS'
p1977
aS'grandma_NN'
p1978
aS'schoolbooks_NNS'
p1979
aS'boy_NN'
p1980
aa(lp1981
S'curlers_NNS'
p1982
aS'grandma_NN'
p1983
aS'schoolbooks_NNS'
p1984
aS'girl_NN'
p1985
aa(lp1986
S'curlers_NNS'
p1987
aS'grandma_NN'
p1988
aS'backpack_NN'
p1989
aS'boy_NN'
p1990
aa(lp1991
S'curlers_NNS'
p1992
aS'grandma_NN'
p1993
aS'backpack_NN'
p1994
aS'girl_NN'
p1995
aa(lp1996
S'curlers_NNS'
p1997
aS'grandma_NN'
p1998
aS'rollerblades_NNS'
p1999
aS'girl_NN'
p2000
aa(lp2001
S'curlers_NNS'
p2002
aS'grandma_NN'
p2003
aS'rollerblades_NNS'
p2004
aS'boy_NN'
p2005
aa(lp2006
S'curlers_NNS'
p2007
aS'grandma_NN'
p2008
aS'stroller_NN'
p2009
aS'baby_NN'
p2010
aa(lp2011
S'curlers_NNS'
p2012
aS'grandma_NN'
p2013
aS'crib_NN'
p2014
aS'baby_NN'
p2015
aa(lp2016
S'curlers_NNS'
p2017
aS'grandma_NN'
p2018
aS'dentures_NNS'
p2019
aS'grandma_NN'
p2020
aa(lp2021
S'curlers_NNS'
p2022
aS'grandma_NN'
p2023
aS'dentures_NNS'
p2024
aS'grandpa_NN'
p2025
aa(lp2026
S'curlers_NNS'
p2027
aS'grandma_NN'
p2028
aS'heels_NNS'
p2029
aS'mom_NN'
p2030
aa(lp2031
S'pacifier_NN'
p2032
aS'baby_NN'
p2033
aS'toy_NN'
p2034
aS'baby_NN'
p2035
aa(lp2036
S'pacifier_NN'
p2037
aS'baby_NN'
p2038
aS'tie_NN'
p2039
aS'boy_NN'
p2040
aa(lp2041
S'pacifier_NN'
p2042
aS'baby_NN'
p2043
aS'dress_NN'
p2044
aS'mom_NN'
p2045
aa(lp2046
S'pacifier_NN'
p2047
aS'baby_NN'
p2048
aS'dress_NN'
p2049
aS'girl_NN'
p2050
aa(lp2051
S'pacifier_NN'
p2052
aS'baby_NN'
p2053
aS'diaper_NN'
p2054
aS'baby_NN'
p2055
aa(lp2056
S'pacifier_NN'
p2057
aS'baby_NN'
p2058
aS'headphones_NNS'
p2059
aS'teenager_NN'
p2060
aa(lp2061
S'pacifier_NN'
p2062
aS'baby_NN'
p2063
aS'iphone_NNP'
p2064
aS'teenager_NN'
p2065
aa(lp2066
S'pacifier_NN'
p2067
aS'baby_NN'
p2068
aS'jewelry_NN'
p2069
aS'mom_NN'
p2070
aa(lp2071
S'pacifier_NN'
p2072
aS'baby_NN'
p2073
aS'wallet_NN'
p2074
aS'dad_NN'
p2075
aa(lp2076
S'pacifier_NN'
p2077
aS'baby_NN'
p2078
aS'makeup_NN'
p2079
aS'mom_NN'
p2080
aa(lp2081
S'pacifier_NN'
p2082
aS'baby_NN'
p2083
aS'purse_NN'
p2084
aS'mom_NN'
p2085
aa(lp2086
S'pacifier_NN'
p2087
aS'baby_NN'
p2088
aS'rifle_NN'
p2089
aS'dad_NN'
p2090
aa(lp2091
S'pacifier_NN'
p2092
aS'baby_NN'
p2093
aS'pipe_NN'
p2094
aS'grandpa_NN'
p2095
aa(lp2096
S'pacifier_NN'
p2097
aS'baby_NN'
p2098
aS'curlers_NNS'
p2099
aS'grandma_NN'
p2100
aa(lp2101
S'pacifier_NN'
p2102
aS'baby_NN'
p2103
aS'cane_NN'
p2104
aS'grandpa_NN'
p2105
aa(lp2106
S'pacifier_NN'
p2107
aS'baby_NN'
p2108
aS'keys_NNS'
p2109
aS'dad_NN'
p2110
aa(lp2111
S'pacifier_NN'
p2112
aS'baby_NN'
p2113
aS'keys_NNS'
p2114
aS'mom_NN'
p2115
aa(lp2116
S'pacifier_NN'
p2117
aS'baby_NN'
p2118
aS'glasses_NNS'
p2119
aS'grandma_NN'
p2120
aa(lp2121
S'pacifier_NN'
p2122
aS'baby_NN'
p2123
aS'schoolbooks_NNS'
p2124
aS'boy_NN'
p2125
aa(lp2126
S'pacifier_NN'
p2127
aS'baby_NN'
p2128
aS'schoolbooks_NNS'
p2129
aS'girl_NN'
p2130
aa(lp2131
S'pacifier_NN'
p2132
aS'baby_NN'
p2133
aS'backpack_NN'
p2134
aS'boy_NN'
p2135
aa(lp2136
S'pacifier_NN'
p2137
aS'baby_NN'
p2138
aS'backpack_NN'
p2139
aS'girl_NN'
p2140
aa(lp2141
S'pacifier_NN'
p2142
aS'baby_NN'
p2143
aS'rollerblades_NNS'
p2144
aS'girl_NN'
p2145
aa(lp2146
S'pacifier_NN'
p2147
aS'baby_NN'
p2148
aS'rollerblades_NNS'
p2149
aS'boy_NN'
p2150
aa(lp2151
S'pacifier_NN'
p2152
aS'baby_NN'
p2153
aS'stroller_NN'
p2154
aS'baby_NN'
p2155
aa(lp2156
S'pacifier_NN'
p2157
aS'baby_NN'
p2158
aS'crib_NN'
p2159
aS'baby_NN'
p2160
aa(lp2161
S'pacifier_NN'
p2162
aS'baby_NN'
p2163
aS'dentures_NNS'
p2164
aS'grandma_NN'
p2165
aa(lp2166
S'pacifier_NN'
p2167
aS'baby_NN'
p2168
aS'dentures_NNS'
p2169
aS'grandpa_NN'
p2170
aa(lp2171
S'pacifier_NN'
p2172
aS'baby_NN'
p2173
aS'heels_NNS'
p2174
aS'mom_NN'
p2175
aa(lp2176
S'cane_NN'
p2177
aS'grandpa_NN'
p2178
aS'toy_NN'
p2179
aS'baby_NN'
p2180
aa(lp2181
S'cane_NN'
p2182
aS'grandpa_NN'
p2183
aS'tie_NN'
p2184
aS'boy_NN'
p2185
aa(lp2186
S'cane_NN'
p2187
aS'grandpa_NN'
p2188
aS'dress_NN'
p2189
aS'mom_NN'
p2190
aa(lp2191
S'cane_NN'
p2192
aS'grandpa_NN'
p2193
aS'dress_NN'
p2194
aS'girl_NN'
p2195
aa(lp2196
S'cane_NN'
p2197
aS'grandpa_NN'
p2198
aS'diaper_NN'
p2199
aS'baby_NN'
p2200
aa(lp2201
S'cane_NN'
p2202
aS'grandpa_NN'
p2203
aS'headphones_NNS'
p2204
aS'teenager_NN'
p2205
aa(lp2206
S'cane_NN'
p2207
aS'grandpa_NN'
p2208
aS'iphone_NNP'
p2209
aS'teenager_NN'
p2210
aa(lp2211
S'cane_NN'
p2212
aS'grandpa_NN'
p2213
aS'jewelry_NN'
p2214
aS'mom_NN'
p2215
aa(lp2216
S'cane_NN'
p2217
aS'grandpa_NN'
p2218
aS'wallet_NN'
p2219
aS'dad_NN'
p2220
aa(lp2221
S'cane_NN'
p2222
aS'grandpa_NN'
p2223
aS'makeup_NN'
p2224
aS'mom_NN'
p2225
aa(lp2226
S'cane_NN'
p2227
aS'grandpa_NN'
p2228
aS'purse_NN'
p2229
aS'mom_NN'
p2230
aa(lp2231
S'cane_NN'
p2232
aS'grandpa_NN'
p2233
aS'rifle_NN'
p2234
aS'dad_NN'
p2235
aa(lp2236
S'cane_NN'
p2237
aS'grandpa_NN'
p2238
aS'pipe_NN'
p2239
aS'grandpa_NN'
p2240
aa(lp2241
S'cane_NN'
p2242
aS'grandpa_NN'
p2243
aS'curlers_NNS'
p2244
aS'grandma_NN'
p2245
aa(lp2246
S'cane_NN'
p2247
aS'grandpa_NN'
p2248
aS'pacifier_NN'
p2249
aS'baby_NN'
p2250
aa(lp2251
S'cane_NN'
p2252
aS'grandpa_NN'
p2253
aS'keys_NNS'
p2254
aS'dad_NN'
p2255
aa(lp2256
S'cane_NN'
p2257
aS'grandpa_NN'
p2258
aS'keys_NNS'
p2259
aS'mom_NN'
p2260
aa(lp2261
S'cane_NN'
p2262
aS'grandpa_NN'
p2263
aS'glasses_NNS'
p2264
aS'grandma_NN'
p2265
aa(lp2266
S'cane_NN'
p2267
aS'grandpa_NN'
p2268
aS'schoolbooks_NNS'
p2269
aS'boy_NN'
p2270
aa(lp2271
S'cane_NN'
p2272
aS'grandpa_NN'
p2273
aS'schoolbooks_NNS'
p2274
aS'girl_NN'
p2275
aa(lp2276
S'cane_NN'
p2277
aS'grandpa_NN'
p2278
aS'backpack_NN'
p2279
aS'boy_NN'
p2280
aa(lp2281
S'cane_NN'
p2282
aS'grandpa_NN'
p2283
aS'backpack_NN'
p2284
aS'girl_NN'
p2285
aa(lp2286
S'cane_NN'
p2287
aS'grandpa_NN'
p2288
aS'rollerblades_NNS'
p2289
aS'girl_NN'
p2290
aa(lp2291
S'cane_NN'
p2292
aS'grandpa_NN'
p2293
aS'rollerblades_NNS'
p2294
aS'boy_NN'
p2295
aa(lp2296
S'cane_NN'
p2297
aS'grandpa_NN'
p2298
aS'stroller_NN'
p2299
aS'baby_NN'
p2300
aa(lp2301
S'cane_NN'
p2302
aS'grandpa_NN'
p2303
aS'crib_NN'
p2304
aS'baby_NN'
p2305
aa(lp2306
S'cane_NN'
p2307
aS'grandpa_NN'
p2308
aS'dentures_NNS'
p2309
aS'grandma_NN'
p2310
aa(lp2311
S'cane_NN'
p2312
aS'grandpa_NN'
p2313
aS'dentures_NNS'
p2314
aS'grandpa_NN'
p2315
aa(lp2316
S'cane_NN'
p2317
aS'grandpa_NN'
p2318
aS'heels_NNS'
p2319
aS'mom_NN'
p2320
aa(lp2321
S'keys_NNS'
p2322
aS'dad_NN'
p2323
aS'toy_NN'
p2324
aS'baby_NN'
p2325
aa(lp2326
S'keys_NNS'
p2327
aS'dad_NN'
p2328
aS'tie_NN'
p2329
aS'boy_NN'
p2330
aa(lp2331
S'keys_NNS'
p2332
aS'dad_NN'
p2333
aS'dress_NN'
p2334
aS'mom_NN'
p2335
aa(lp2336
S'keys_NNS'
p2337
aS'dad_NN'
p2338
aS'dress_NN'
p2339
aS'girl_NN'
p2340
aa(lp2341
S'keys_NNS'
p2342
aS'dad_NN'
p2343
aS'diaper_NN'
p2344
aS'baby_NN'
p2345
aa(lp2346
S'keys_NNS'
p2347
aS'dad_NN'
p2348
aS'headphones_NNS'
p2349
aS'teenager_NN'
p2350
aa(lp2351
S'keys_NNS'
p2352
aS'dad_NN'
p2353
aS'iphone_NNP'
p2354
aS'teenager_NN'
p2355
aa(lp2356
S'keys_NNS'
p2357
aS'dad_NN'
p2358
aS'jewelry_NN'
p2359
aS'mom_NN'
p2360
aa(lp2361
S'keys_NNS'
p2362
aS'dad_NN'
p2363
aS'wallet_NN'
p2364
aS'dad_NN'
p2365
aa(lp2366
S'keys_NNS'
p2367
aS'dad_NN'
p2368
aS'makeup_NN'
p2369
aS'mom_NN'
p2370
aa(lp2371
S'keys_NNS'
p2372
aS'dad_NN'
p2373
aS'purse_NN'
p2374
aS'mom_NN'
p2375
aa(lp2376
S'keys_NNS'
p2377
aS'dad_NN'
p2378
aS'rifle_NN'
p2379
aS'dad_NN'
p2380
aa(lp2381
S'keys_NNS'
p2382
aS'dad_NN'
p2383
aS'pipe_NN'
p2384
aS'grandpa_NN'
p2385
aa(lp2386
S'keys_NNS'
p2387
aS'dad_NN'
p2388
aS'curlers_NNS'
p2389
aS'grandma_NN'
p2390
aa(lp2391
S'keys_NNS'
p2392
aS'dad_NN'
p2393
aS'pacifier_NN'
p2394
aS'baby_NN'
p2395
aa(lp2396
S'keys_NNS'
p2397
aS'dad_NN'
p2398
aS'cane_NN'
p2399
aS'grandpa_NN'
p2400
aa(lp2401
S'keys_NNS'
p2402
aS'dad_NN'
p2403
aS'keys_NNS'
p2404
aS'mom_NN'
p2405
aa(lp2406
S'keys_NNS'
p2407
aS'dad_NN'
p2408
aS'glasses_NNS'
p2409
aS'grandma_NN'
p2410
aa(lp2411
S'keys_NNS'
p2412
aS'dad_NN'
p2413
aS'schoolbooks_NNS'
p2414
aS'boy_NN'
p2415
aa(lp2416
S'keys_NNS'
p2417
aS'dad_NN'
p2418
aS'schoolbooks_NNS'
p2419
aS'girl_NN'
p2420
aa(lp2421
S'keys_NNS'
p2422
aS'dad_NN'
p2423
aS'backpack_NN'
p2424
aS'boy_NN'
p2425
aa(lp2426
S'keys_NNS'
p2427
aS'dad_NN'
p2428
aS'backpack_NN'
p2429
aS'girl_NN'
p2430
aa(lp2431
S'keys_NNS'
p2432
aS'dad_NN'
p2433
aS'rollerblades_NNS'
p2434
aS'girl_NN'
p2435
aa(lp2436
S'keys_NNS'
p2437
aS'dad_NN'
p2438
aS'rollerblades_NNS'
p2439
aS'boy_NN'
p2440
aa(lp2441
S'keys_NNS'
p2442
aS'dad_NN'
p2443
aS'stroller_NN'
p2444
aS'baby_NN'
p2445
aa(lp2446
S'keys_NNS'
p2447
aS'dad_NN'
p2448
aS'crib_NN'
p2449
aS'baby_NN'
p2450
aa(lp2451
S'keys_NNS'
p2452
aS'dad_NN'
p2453
aS'dentures_NNS'
p2454
aS'grandma_NN'
p2455
aa(lp2456
S'keys_NNS'
p2457
aS'dad_NN'
p2458
aS'dentures_NNS'
p2459
aS'grandpa_NN'
p2460
aa(lp2461
S'keys_NNS'
p2462
aS'dad_NN'
p2463
aS'heels_NNS'
p2464
aS'mom_NN'
p2465
aa(lp2466
S'keys_NNS'
p2467
aS'mom_NN'
p2468
aS'toy_NN'
p2469
aS'baby_NN'
p2470
aa(lp2471
S'keys_NNS'
p2472
aS'mom_NN'
p2473
aS'tie_NN'
p2474
aS'boy_NN'
p2475
aa(lp2476
S'keys_NNS'
p2477
aS'mom_NN'
p2478
aS'dress_NN'
p2479
aS'mom_NN'
p2480
aa(lp2481
S'keys_NNS'
p2482
aS'mom_NN'
p2483
aS'dress_NN'
p2484
aS'girl_NN'
p2485
aa(lp2486
S'keys_NNS'
p2487
aS'mom_NN'
p2488
aS'diaper_NN'
p2489
aS'baby_NN'
p2490
aa(lp2491
S'keys_NNS'
p2492
aS'mom_NN'
p2493
aS'headphones_NNS'
p2494
aS'teenager_NN'
p2495
aa(lp2496
S'keys_NNS'
p2497
aS'mom_NN'
p2498
aS'iphone_NNP'
p2499
aS'teenager_NN'
p2500
aa(lp2501
S'keys_NNS'
p2502
aS'mom_NN'
p2503
aS'jewelry_NN'
p2504
aS'mom_NN'
p2505
aa(lp2506
S'keys_NNS'
p2507
aS'mom_NN'
p2508
aS'wallet_NN'
p2509
aS'dad_NN'
p2510
aa(lp2511
S'keys_NNS'
p2512
aS'mom_NN'
p2513
aS'makeup_NN'
p2514
aS'mom_NN'
p2515
aa(lp2516
S'keys_NNS'
p2517
aS'mom_NN'
p2518
aS'purse_NN'
p2519
aS'mom_NN'
p2520
aa(lp2521
S'keys_NNS'
p2522
aS'mom_NN'
p2523
aS'rifle_NN'
p2524
aS'dad_NN'
p2525
aa(lp2526
S'keys_NNS'
p2527
aS'mom_NN'
p2528
aS'pipe_NN'
p2529
aS'grandpa_NN'
p2530
aa(lp2531
S'keys_NNS'
p2532
aS'mom_NN'
p2533
aS'curlers_NNS'
p2534
aS'grandma_NN'
p2535
aa(lp2536
S'keys_NNS'
p2537
aS'mom_NN'
p2538
aS'pacifier_NN'
p2539
aS'baby_NN'
p2540
aa(lp2541
S'keys_NNS'
p2542
aS'mom_NN'
p2543
aS'cane_NN'
p2544
aS'grandpa_NN'
p2545
aa(lp2546
S'keys_NNS'
p2547
aS'mom_NN'
p2548
aS'keys_NNS'
p2549
aS'dad_NN'
p2550
aa(lp2551
S'keys_NNS'
p2552
aS'mom_NN'
p2553
aS'glasses_NNS'
p2554
aS'grandma_NN'
p2555
aa(lp2556
S'keys_NNS'
p2557
aS'mom_NN'
p2558
aS'schoolbooks_NNS'
p2559
aS'boy_NN'
p2560
aa(lp2561
S'keys_NNS'
p2562
aS'mom_NN'
p2563
aS'schoolbooks_NNS'
p2564
aS'girl_NN'
p2565
aa(lp2566
S'keys_NNS'
p2567
aS'mom_NN'
p2568
aS'backpack_NN'
p2569
aS'boy_NN'
p2570
aa(lp2571
S'keys_NNS'
p2572
aS'mom_NN'
p2573
aS'backpack_NN'
p2574
aS'girl_NN'
p2575
aa(lp2576
S'keys_NNS'
p2577
aS'mom_NN'
p2578
aS'rollerblades_NNS'
p2579
aS'girl_NN'
p2580
aa(lp2581
S'keys_NNS'
p2582
aS'mom_NN'
p2583
aS'rollerblades_NNS'
p2584
aS'boy_NN'
p2585
aa(lp2586
S'keys_NNS'
p2587
aS'mom_NN'
p2588
aS'stroller_NN'
p2589
aS'baby_NN'
p2590
aa(lp2591
S'keys_NNS'
p2592
aS'mom_NN'
p2593
aS'crib_NN'
p2594
aS'baby_NN'
p2595
aa(lp2596
S'keys_NNS'
p2597
aS'mom_NN'
p2598
aS'dentures_NNS'
p2599
aS'grandma_NN'
p2600
aa(lp2601
S'keys_NNS'
p2602
aS'mom_NN'
p2603
aS'dentures_NNS'
p2604
aS'grandpa_NN'
p2605
aa(lp2606
S'keys_NNS'
p2607
aS'mom_NN'
p2608
aS'heels_NNS'
p2609
aS'mom_NN'
p2610
aa(lp2611
S'glasses_NNS'
p2612
aS'grandma_NN'
p2613
aS'toy_NN'
p2614
aS'baby_NN'
p2615
aa(lp2616
S'glasses_NNS'
p2617
aS'grandma_NN'
p2618
aS'tie_NN'
p2619
aS'boy_NN'
p2620
aa(lp2621
S'glasses_NNS'
p2622
aS'grandma_NN'
p2623
aS'dress_NN'
p2624
aS'mom_NN'
p2625
aa(lp2626
S'glasses_NNS'
p2627
aS'grandma_NN'
p2628
aS'dress_NN'
p2629
aS'girl_NN'
p2630
aa(lp2631
S'glasses_NNS'
p2632
aS'grandma_NN'
p2633
aS'diaper_NN'
p2634
aS'baby_NN'
p2635
aa(lp2636
S'glasses_NNS'
p2637
aS'grandma_NN'
p2638
aS'headphones_NNS'
p2639
aS'teenager_NN'
p2640
aa(lp2641
S'glasses_NNS'
p2642
aS'grandma_NN'
p2643
aS'iphone_NNP'
p2644
aS'teenager_NN'
p2645
aa(lp2646
S'glasses_NNS'
p2647
aS'grandma_NN'
p2648
aS'jewelry_NN'
p2649
aS'mom_NN'
p2650
aa(lp2651
S'glasses_NNS'
p2652
aS'grandma_NN'
p2653
aS'wallet_NN'
p2654
aS'dad_NN'
p2655
aa(lp2656
S'glasses_NNS'
p2657
aS'grandma_NN'
p2658
aS'makeup_NN'
p2659
aS'mom_NN'
p2660
aa(lp2661
S'glasses_NNS'
p2662
aS'grandma_NN'
p2663
aS'purse_NN'
p2664
aS'mom_NN'
p2665
aa(lp2666
S'glasses_NNS'
p2667
aS'grandma_NN'
p2668
aS'rifle_NN'
p2669
aS'dad_NN'
p2670
aa(lp2671
S'glasses_NNS'
p2672
aS'grandma_NN'
p2673
aS'pipe_NN'
p2674
aS'grandpa_NN'
p2675
aa(lp2676
S'glasses_NNS'
p2677
aS'grandma_NN'
p2678
aS'curlers_NNS'
p2679
aS'grandma_NN'
p2680
aa(lp2681
S'glasses_NNS'
p2682
aS'grandma_NN'
p2683
aS'pacifier_NN'
p2684
aS'baby_NN'
p2685
aa(lp2686
S'glasses_NNS'
p2687
aS'grandma_NN'
p2688
aS'cane_NN'
p2689
aS'grandpa_NN'
p2690
aa(lp2691
S'glasses_NNS'
p2692
aS'grandma_NN'
p2693
aS'keys_NNS'
p2694
aS'dad_NN'
p2695
aa(lp2696
S'glasses_NNS'
p2697
aS'grandma_NN'
p2698
aS'keys_NNS'
p2699
aS'mom_NN'
p2700
aa(lp2701
S'glasses_NNS'
p2702
aS'grandma_NN'
p2703
aS'schoolbooks_NNS'
p2704
aS'boy_NN'
p2705
aa(lp2706
S'glasses_NNS'
p2707
aS'grandma_NN'
p2708
aS'schoolbooks_NNS'
p2709
aS'girl_NN'
p2710
aa(lp2711
S'glasses_NNS'
p2712
aS'grandma_NN'
p2713
aS'backpack_NN'
p2714
aS'boy_NN'
p2715
aa(lp2716
S'glasses_NNS'
p2717
aS'grandma_NN'
p2718
aS'backpack_NN'
p2719
aS'girl_NN'
p2720
aa(lp2721
S'glasses_NNS'
p2722
aS'grandma_NN'
p2723
aS'rollerblades_NNS'
p2724
aS'girl_NN'
p2725
aa(lp2726
S'glasses_NNS'
p2727
aS'grandma_NN'
p2728
aS'rollerblades_NNS'
p2729
aS'boy_NN'
p2730
aa(lp2731
S'glasses_NNS'
p2732
aS'grandma_NN'
p2733
aS'stroller_NN'
p2734
aS'baby_NN'
p2735
aa(lp2736
S'glasses_NNS'
p2737
aS'grandma_NN'
p2738
aS'crib_NN'
p2739
aS'baby_NN'
p2740
aa(lp2741
S'glasses_NNS'
p2742
aS'grandma_NN'
p2743
aS'dentures_NNS'
p2744
aS'grandma_NN'
p2745
aa(lp2746
S'glasses_NNS'
p2747
aS'grandma_NN'
p2748
aS'dentures_NNS'
p2749
aS'grandpa_NN'
p2750
aa(lp2751
S'glasses_NNS'
p2752
aS'grandma_NN'
p2753
aS'heels_NNS'
p2754
aS'mom_NN'
p2755
aa(lp2756
S'schoolbooks_NNS'
p2757
aS'boy_NN'
p2758
aS'toy_NN'
p2759
aS'baby_NN'
p2760
aa(lp2761
S'schoolbooks_NNS'
p2762
aS'boy_NN'
p2763
aS'tie_NN'
p2764
aS'boy_NN'
p2765
aa(lp2766
S'schoolbooks_NNS'
p2767
aS'boy_NN'
p2768
aS'dress_NN'
p2769
aS'mom_NN'
p2770
aa(lp2771
S'schoolbooks_NNS'
p2772
aS'boy_NN'
p2773
aS'dress_NN'
p2774
aS'girl_NN'
p2775
aa(lp2776
S'schoolbooks_NNS'
p2777
aS'boy_NN'
p2778
aS'diaper_NN'
p2779
aS'baby_NN'
p2780
aa(lp2781
S'schoolbooks_NNS'
p2782
aS'boy_NN'
p2783
aS'headphones_NNS'
p2784
aS'teenager_NN'
p2785
aa(lp2786
S'schoolbooks_NNS'
p2787
aS'boy_NN'
p2788
aS'iphone_NNP'
p2789
aS'teenager_NN'
p2790
aa(lp2791
S'schoolbooks_NNS'
p2792
aS'boy_NN'
p2793
aS'jewelry_NN'
p2794
aS'mom_NN'
p2795
aa(lp2796
S'schoolbooks_NNS'
p2797
aS'boy_NN'
p2798
aS'wallet_NN'
p2799
aS'dad_NN'
p2800
aa(lp2801
S'schoolbooks_NNS'
p2802
aS'boy_NN'
p2803
aS'makeup_NN'
p2804
aS'mom_NN'
p2805
aa(lp2806
S'schoolbooks_NNS'
p2807
aS'boy_NN'
p2808
aS'purse_NN'
p2809
aS'mom_NN'
p2810
aa(lp2811
S'schoolbooks_NNS'
p2812
aS'boy_NN'
p2813
aS'rifle_NN'
p2814
aS'dad_NN'
p2815
aa(lp2816
S'schoolbooks_NNS'
p2817
aS'boy_NN'
p2818
aS'pipe_NN'
p2819
aS'grandpa_NN'
p2820
aa(lp2821
S'schoolbooks_NNS'
p2822
aS'boy_NN'
p2823
aS'curlers_NNS'
p2824
aS'grandma_NN'
p2825
aa(lp2826
S'schoolbooks_NNS'
p2827
aS'boy_NN'
p2828
aS'pacifier_NN'
p2829
aS'baby_NN'
p2830
aa(lp2831
S'schoolbooks_NNS'
p2832
aS'boy_NN'
p2833
aS'cane_NN'
p2834
aS'grandpa_NN'
p2835
aa(lp2836
S'schoolbooks_NNS'
p2837
aS'boy_NN'
p2838
aS'keys_NNS'
p2839
aS'dad_NN'
p2840
aa(lp2841
S'schoolbooks_NNS'
p2842
aS'boy_NN'
p2843
aS'keys_NNS'
p2844
aS'mom_NN'
p2845
aa(lp2846
S'schoolbooks_NNS'
p2847
aS'boy_NN'
p2848
aS'glasses_NNS'
p2849
aS'grandma_NN'
p2850
aa(lp2851
S'schoolbooks_NNS'
p2852
aS'boy_NN'
p2853
aS'schoolbooks_NNS'
p2854
aS'girl_NN'
p2855
aa(lp2856
S'schoolbooks_NNS'
p2857
aS'boy_NN'
p2858
aS'backpack_NN'
p2859
aS'boy_NN'
p2860
aa(lp2861
S'schoolbooks_NNS'
p2862
aS'boy_NN'
p2863
aS'backpack_NN'
p2864
aS'girl_NN'
p2865
aa(lp2866
S'schoolbooks_NNS'
p2867
aS'boy_NN'
p2868
aS'rollerblades_NNS'
p2869
aS'girl_NN'
p2870
aa(lp2871
S'schoolbooks_NNS'
p2872
aS'boy_NN'
p2873
aS'rollerblades_NNS'
p2874
aS'boy_NN'
p2875
aa(lp2876
S'schoolbooks_NNS'
p2877
aS'boy_NN'
p2878
aS'stroller_NN'
p2879
aS'baby_NN'
p2880
aa(lp2881
S'schoolbooks_NNS'
p2882
aS'boy_NN'
p2883
aS'crib_NN'
p2884
aS'baby_NN'
p2885
aa(lp2886
S'schoolbooks_NNS'
p2887
aS'boy_NN'
p2888
aS'dentures_NNS'
p2889
aS'grandma_NN'
p2890
aa(lp2891
S'schoolbooks_NNS'
p2892
aS'boy_NN'
p2893
aS'dentures_NNS'
p2894
aS'grandpa_NN'
p2895
aa(lp2896
S'schoolbooks_NNS'
p2897
aS'boy_NN'
p2898
aS'heels_NNS'
p2899
aS'mom_NN'
p2900
aa(lp2901
S'schoolbooks_NNS'
p2902
aS'girl_NN'
p2903
aS'toy_NN'
p2904
aS'baby_NN'
p2905
aa(lp2906
S'schoolbooks_NNS'
p2907
aS'girl_NN'
p2908
aS'tie_NN'
p2909
aS'boy_NN'
p2910
aa(lp2911
S'schoolbooks_NNS'
p2912
aS'girl_NN'
p2913
aS'dress_NN'
p2914
aS'mom_NN'
p2915
aa(lp2916
S'schoolbooks_NNS'
p2917
aS'girl_NN'
p2918
aS'dress_NN'
p2919
aS'girl_NN'
p2920
aa(lp2921
S'schoolbooks_NNS'
p2922
aS'girl_NN'
p2923
aS'diaper_NN'
p2924
aS'baby_NN'
p2925
aa(lp2926
S'schoolbooks_NNS'
p2927
aS'girl_NN'
p2928
aS'headphones_NNS'
p2929
aS'teenager_NN'
p2930
aa(lp2931
S'schoolbooks_NNS'
p2932
aS'girl_NN'
p2933
aS'iphone_NNP'
p2934
aS'teenager_NN'
p2935
aa(lp2936
S'schoolbooks_NNS'
p2937
aS'girl_NN'
p2938
aS'jewelry_NN'
p2939
aS'mom_NN'
p2940
aa(lp2941
S'schoolbooks_NNS'
p2942
aS'girl_NN'
p2943
aS'wallet_NN'
p2944
aS'dad_NN'
p2945
aa(lp2946
S'schoolbooks_NNS'
p2947
aS'girl_NN'
p2948
aS'makeup_NN'
p2949
aS'mom_NN'
p2950
aa(lp2951
S'schoolbooks_NNS'
p2952
aS'girl_NN'
p2953
aS'purse_NN'
p2954
aS'mom_NN'
p2955
aa(lp2956
S'schoolbooks_NNS'
p2957
aS'girl_NN'
p2958
aS'rifle_NN'
p2959
aS'dad_NN'
p2960
aa(lp2961
S'schoolbooks_NNS'
p2962
aS'girl_NN'
p2963
aS'pipe_NN'
p2964
aS'grandpa_NN'
p2965
aa(lp2966
S'schoolbooks_NNS'
p2967
aS'girl_NN'
p2968
aS'curlers_NNS'
p2969
aS'grandma_NN'
p2970
aa(lp2971
S'schoolbooks_NNS'
p2972
aS'girl_NN'
p2973
aS'pacifier_NN'
p2974
aS'baby_NN'
p2975
aa(lp2976
S'schoolbooks_NNS'
p2977
aS'girl_NN'
p2978
aS'cane_NN'
p2979
aS'grandpa_NN'
p2980
aa(lp2981
S'schoolbooks_NNS'
p2982
aS'girl_NN'
p2983
aS'keys_NNS'
p2984
aS'dad_NN'
p2985
aa(lp2986
S'schoolbooks_NNS'
p2987
aS'girl_NN'
p2988
aS'keys_NNS'
p2989
aS'mom_NN'
p2990
aa(lp2991
S'schoolbooks_NNS'
p2992
aS'girl_NN'
p2993
aS'glasses_NNS'
p2994
aS'grandma_NN'
p2995
aa(lp2996
S'schoolbooks_NNS'
p2997
aS'girl_NN'
p2998
aS'schoolbooks_NNS'
p2999
aS'boy_NN'
p3000
aa(lp3001
S'schoolbooks_NNS'
p3002
aS'girl_NN'
p3003
aS'backpack_NN'
p3004
aS'boy_NN'
p3005
aa(lp3006
S'schoolbooks_NNS'
p3007
aS'girl_NN'
p3008
aS'backpack_NN'
p3009
aS'girl_NN'
p3010
aa(lp3011
S'schoolbooks_NNS'
p3012
aS'girl_NN'
p3013
aS'rollerblades_NNS'
p3014
aS'girl_NN'
p3015
aa(lp3016
S'schoolbooks_NNS'
p3017
aS'girl_NN'
p3018
aS'rollerblades_NNS'
p3019
aS'boy_NN'
p3020
aa(lp3021
S'schoolbooks_NNS'
p3022
aS'girl_NN'
p3023
aS'stroller_NN'
p3024
aS'baby_NN'
p3025
aa(lp3026
S'schoolbooks_NNS'
p3027
aS'girl_NN'
p3028
aS'crib_NN'
p3029
aS'baby_NN'
p3030
aa(lp3031
S'schoolbooks_NNS'
p3032
aS'girl_NN'
p3033
aS'dentures_NNS'
p3034
aS'grandma_NN'
p3035
aa(lp3036
S'schoolbooks_NNS'
p3037
aS'girl_NN'
p3038
aS'dentures_NNS'
p3039
aS'grandpa_NN'
p3040
aa(lp3041
S'schoolbooks_NNS'
p3042
aS'girl_NN'
p3043
aS'heels_NNS'
p3044
aS'mom_NN'
p3045
aa(lp3046
S'backpack_NN'
p3047
aS'boy_NN'
p3048
aS'toy_NN'
p3049
aS'baby_NN'
p3050
aa(lp3051
S'backpack_NN'
p3052
aS'boy_NN'
p3053
aS'tie_NN'
p3054
aS'boy_NN'
p3055
aa(lp3056
S'backpack_NN'
p3057
aS'boy_NN'
p3058
aS'dress_NN'
p3059
aS'mom_NN'
p3060
aa(lp3061
S'backpack_NN'
p3062
aS'boy_NN'
p3063
aS'dress_NN'
p3064
aS'girl_NN'
p3065
aa(lp3066
S'backpack_NN'
p3067
aS'boy_NN'
p3068
aS'diaper_NN'
p3069
aS'baby_NN'
p3070
aa(lp3071
S'backpack_NN'
p3072
aS'boy_NN'
p3073
aS'headphones_NNS'
p3074
aS'teenager_NN'
p3075
aa(lp3076
S'backpack_NN'
p3077
aS'boy_NN'
p3078
aS'iphone_NNP'
p3079
aS'teenager_NN'
p3080
aa(lp3081
S'backpack_NN'
p3082
aS'boy_NN'
p3083
aS'jewelry_NN'
p3084
aS'mom_NN'
p3085
aa(lp3086
S'backpack_NN'
p3087
aS'boy_NN'
p3088
aS'wallet_NN'
p3089
aS'dad_NN'
p3090
aa(lp3091
S'backpack_NN'
p3092
aS'boy_NN'
p3093
aS'makeup_NN'
p3094
aS'mom_NN'
p3095
aa(lp3096
S'backpack_NN'
p3097
aS'boy_NN'
p3098
aS'purse_NN'
p3099
aS'mom_NN'
p3100
aa(lp3101
S'backpack_NN'
p3102
aS'boy_NN'
p3103
aS'rifle_NN'
p3104
aS'dad_NN'
p3105
aa(lp3106
S'backpack_NN'
p3107
aS'boy_NN'
p3108
aS'pipe_NN'
p3109
aS'grandpa_NN'
p3110
aa(lp3111
S'backpack_NN'
p3112
aS'boy_NN'
p3113
aS'curlers_NNS'
p3114
aS'grandma_NN'
p3115
aa(lp3116
S'backpack_NN'
p3117
aS'boy_NN'
p3118
aS'pacifier_NN'
p3119
aS'baby_NN'
p3120
aa(lp3121
S'backpack_NN'
p3122
aS'boy_NN'
p3123
aS'cane_NN'
p3124
aS'grandpa_NN'
p3125
aa(lp3126
S'backpack_NN'
p3127
aS'boy_NN'
p3128
aS'keys_NNS'
p3129
aS'dad_NN'
p3130
aa(lp3131
S'backpack_NN'
p3132
aS'boy_NN'
p3133
aS'keys_NNS'
p3134
aS'mom_NN'
p3135
aa(lp3136
S'backpack_NN'
p3137
aS'boy_NN'
p3138
aS'glasses_NNS'
p3139
aS'grandma_NN'
p3140
aa(lp3141
S'backpack_NN'
p3142
aS'boy_NN'
p3143
aS'schoolbooks_NNS'
p3144
aS'boy_NN'
p3145
aa(lp3146
S'backpack_NN'
p3147
aS'boy_NN'
p3148
aS'schoolbooks_NNS'
p3149
aS'girl_NN'
p3150
aa(lp3151
S'backpack_NN'
p3152
aS'boy_NN'
p3153
aS'backpack_NN'
p3154
aS'girl_NN'
p3155
aa(lp3156
S'backpack_NN'
p3157
aS'boy_NN'
p3158
aS'rollerblades_NNS'
p3159
aS'girl_NN'
p3160
aa(lp3161
S'backpack_NN'
p3162
aS'boy_NN'
p3163
aS'rollerblades_NNS'
p3164
aS'boy_NN'
p3165
aa(lp3166
S'backpack_NN'
p3167
aS'boy_NN'
p3168
aS'stroller_NN'
p3169
aS'baby_NN'
p3170
aa(lp3171
S'backpack_NN'
p3172
aS'boy_NN'
p3173
aS'crib_NN'
p3174
aS'baby_NN'
p3175
aa(lp3176
S'backpack_NN'
p3177
aS'boy_NN'
p3178
aS'dentures_NNS'
p3179
aS'grandma_NN'
p3180
aa(lp3181
S'backpack_NN'
p3182
aS'boy_NN'
p3183
aS'dentures_NNS'
p3184
aS'grandpa_NN'
p3185
aa(lp3186
S'backpack_NN'
p3187
aS'boy_NN'
p3188
aS'heels_NNS'
p3189
aS'mom_NN'
p3190
aa(lp3191
S'backpack_NN'
p3192
aS'girl_NN'
p3193
aS'toy_NN'
p3194
aS'baby_NN'
p3195
aa(lp3196
S'backpack_NN'
p3197
aS'girl_NN'
p3198
aS'tie_NN'
p3199
aS'boy_NN'
p3200
aa(lp3201
S'backpack_NN'
p3202
aS'girl_NN'
p3203
aS'dress_NN'
p3204
aS'mom_NN'
p3205
aa(lp3206
S'backpack_NN'
p3207
aS'girl_NN'
p3208
aS'dress_NN'
p3209
aS'girl_NN'
p3210
aa(lp3211
S'backpack_NN'
p3212
aS'girl_NN'
p3213
aS'diaper_NN'
p3214
aS'baby_NN'
p3215
aa(lp3216
S'backpack_NN'
p3217
aS'girl_NN'
p3218
aS'headphones_NNS'
p3219
aS'teenager_NN'
p3220
aa(lp3221
S'backpack_NN'
p3222
aS'girl_NN'
p3223
aS'iphone_NNP'
p3224
aS'teenager_NN'
p3225
aa(lp3226
S'backpack_NN'
p3227
aS'girl_NN'
p3228
aS'jewelry_NN'
p3229
aS'mom_NN'
p3230
aa(lp3231
S'backpack_NN'
p3232
aS'girl_NN'
p3233
aS'wallet_NN'
p3234
aS'dad_NN'
p3235
aa(lp3236
S'backpack_NN'
p3237
aS'girl_NN'
p3238
aS'makeup_NN'
p3239
aS'mom_NN'
p3240
aa(lp3241
S'backpack_NN'
p3242
aS'girl_NN'
p3243
aS'purse_NN'
p3244
aS'mom_NN'
p3245
aa(lp3246
S'backpack_NN'
p3247
aS'girl_NN'
p3248
aS'rifle_NN'
p3249
aS'dad_NN'
p3250
aa(lp3251
S'backpack_NN'
p3252
aS'girl_NN'
p3253
aS'pipe_NN'
p3254
aS'grandpa_NN'
p3255
aa(lp3256
S'backpack_NN'
p3257
aS'girl_NN'
p3258
aS'curlers_NNS'
p3259
aS'grandma_NN'
p3260
aa(lp3261
S'backpack_NN'
p3262
aS'girl_NN'
p3263
aS'pacifier_NN'
p3264
aS'baby_NN'
p3265
aa(lp3266
S'backpack_NN'
p3267
aS'girl_NN'
p3268
aS'cane_NN'
p3269
aS'grandpa_NN'
p3270
aa(lp3271
S'backpack_NN'
p3272
aS'girl_NN'
p3273
aS'keys_NNS'
p3274
aS'dad_NN'
p3275
aa(lp3276
S'backpack_NN'
p3277
aS'girl_NN'
p3278
aS'keys_NNS'
p3279
aS'mom_NN'
p3280
aa(lp3281
S'backpack_NN'
p3282
aS'girl_NN'
p3283
aS'glasses_NNS'
p3284
aS'grandma_NN'
p3285
aa(lp3286
S'backpack_NN'
p3287
aS'girl_NN'
p3288
aS'schoolbooks_NNS'
p3289
aS'boy_NN'
p3290
aa(lp3291
S'backpack_NN'
p3292
aS'girl_NN'
p3293
aS'schoolbooks_NNS'
p3294
aS'girl_NN'
p3295
aa(lp3296
S'backpack_NN'
p3297
aS'girl_NN'
p3298
aS'backpack_NN'
p3299
aS'boy_NN'
p3300
aa(lp3301
S'backpack_NN'
p3302
aS'girl_NN'
p3303
aS'rollerblades_NNS'
p3304
aS'girl_NN'
p3305
aa(lp3306
S'backpack_NN'
p3307
aS'girl_NN'
p3308
aS'rollerblades_NNS'
p3309
aS'boy_NN'
p3310
aa(lp3311
S'backpack_NN'
p3312
aS'girl_NN'
p3313
aS'stroller_NN'
p3314
aS'baby_NN'
p3315
aa(lp3316
S'backpack_NN'
p3317
aS'girl_NN'
p3318
aS'crib_NN'
p3319
aS'baby_NN'
p3320
aa(lp3321
S'backpack_NN'
p3322
aS'girl_NN'
p3323
aS'dentures_NNS'
p3324
aS'grandma_NN'
p3325
aa(lp3326
S'backpack_NN'
p3327
aS'girl_NN'
p3328
aS'dentures_NNS'
p3329
aS'grandpa_NN'
p3330
aa(lp3331
S'backpack_NN'
p3332
aS'girl_NN'
p3333
aS'heels_NNS'
p3334
aS'mom_NN'
p3335
aa(lp3336
S'rollerblades_NNS'
p3337
aS'girl_NN'
p3338
aS'toy_NN'
p3339
aS'baby_NN'
p3340
aa(lp3341
S'rollerblades_NNS'
p3342
aS'girl_NN'
p3343
aS'tie_NN'
p3344
aS'boy_NN'
p3345
aa(lp3346
S'rollerblades_NNS'
p3347
aS'girl_NN'
p3348
aS'dress_NN'
p3349
aS'mom_NN'
p3350
aa(lp3351
S'rollerblades_NNS'
p3352
aS'girl_NN'
p3353
aS'dress_NN'
p3354
aS'girl_NN'
p3355
aa(lp3356
S'rollerblades_NNS'
p3357
aS'girl_NN'
p3358
aS'diaper_NN'
p3359
aS'baby_NN'
p3360
aa(lp3361
S'rollerblades_NNS'
p3362
aS'girl_NN'
p3363
aS'headphones_NNS'
p3364
aS'teenager_NN'
p3365
aa(lp3366
S'rollerblades_NNS'
p3367
aS'girl_NN'
p3368
aS'iphone_NNP'
p3369
aS'teenager_NN'
p3370
aa(lp3371
S'rollerblades_NNS'
p3372
aS'girl_NN'
p3373
aS'jewelry_NN'
p3374
aS'mom_NN'
p3375
aa(lp3376
S'rollerblades_NNS'
p3377
aS'girl_NN'
p3378
aS'wallet_NN'
p3379
aS'dad_NN'
p3380
aa(lp3381
S'rollerblades_NNS'
p3382
aS'girl_NN'
p3383
aS'makeup_NN'
p3384
aS'mom_NN'
p3385
aa(lp3386
S'rollerblades_NNS'
p3387
aS'girl_NN'
p3388
aS'purse_NN'
p3389
aS'mom_NN'
p3390
aa(lp3391
S'rollerblades_NNS'
p3392
aS'girl_NN'
p3393
aS'rifle_NN'
p3394
aS'dad_NN'
p3395
aa(lp3396
S'rollerblades_NNS'
p3397
aS'girl_NN'
p3398
aS'pipe_NN'
p3399
aS'grandpa_NN'
p3400
aa(lp3401
S'rollerblades_NNS'
p3402
aS'girl_NN'
p3403
aS'curlers_NNS'
p3404
aS'grandma_NN'
p3405
aa(lp3406
S'rollerblades_NNS'
p3407
aS'girl_NN'
p3408
aS'pacifier_NN'
p3409
aS'baby_NN'
p3410
aa(lp3411
S'rollerblades_NNS'
p3412
aS'girl_NN'
p3413
aS'cane_NN'
p3414
aS'grandpa_NN'
p3415
aa(lp3416
S'rollerblades_NNS'
p3417
aS'girl_NN'
p3418
aS'keys_NNS'
p3419
aS'dad_NN'
p3420
aa(lp3421
S'rollerblades_NNS'
p3422
aS'girl_NN'
p3423
aS'keys_NNS'
p3424
aS'mom_NN'
p3425
aa(lp3426
S'rollerblades_NNS'
p3427
aS'girl_NN'
p3428
aS'glasses_NNS'
p3429
aS'grandma_NN'
p3430
aa(lp3431
S'rollerblades_NNS'
p3432
aS'girl_NN'
p3433
aS'schoolbooks_NNS'
p3434
aS'boy_NN'
p3435
aa(lp3436
S'rollerblades_NNS'
p3437
aS'girl_NN'
p3438
aS'schoolbooks_NNS'
p3439
aS'girl_NN'
p3440
aa(lp3441
S'rollerblades_NNS'
p3442
aS'girl_NN'
p3443
aS'backpack_NN'
p3444
aS'boy_NN'
p3445
aa(lp3446
S'rollerblades_NNS'
p3447
aS'girl_NN'
p3448
aS'backpack_NN'
p3449
aS'girl_NN'
p3450
aa(lp3451
S'rollerblades_NNS'
p3452
aS'girl_NN'
p3453
aS'rollerblades_NNS'
p3454
aS'boy_NN'
p3455
aa(lp3456
S'rollerblades_NNS'
p3457
aS'girl_NN'
p3458
aS'stroller_NN'
p3459
aS'baby_NN'
p3460
aa(lp3461
S'rollerblades_NNS'
p3462
aS'girl_NN'
p3463
aS'crib_NN'
p3464
aS'baby_NN'
p3465
aa(lp3466
S'rollerblades_NNS'
p3467
aS'girl_NN'
p3468
aS'dentures_NNS'
p3469
aS'grandma_NN'
p3470
aa(lp3471
S'rollerblades_NNS'
p3472
aS'girl_NN'
p3473
aS'dentures_NNS'
p3474
aS'grandpa_NN'
p3475
aa(lp3476
S'rollerblades_NNS'
p3477
aS'girl_NN'
p3478
aS'heels_NNS'
p3479
aS'mom_NN'
p3480
aa(lp3481
S'rollerblades_NNS'
p3482
aS'boy_NN'
p3483
aS'toy_NN'
p3484
aS'baby_NN'
p3485
aa(lp3486
S'rollerblades_NNS'
p3487
aS'boy_NN'
p3488
aS'tie_NN'
p3489
aS'boy_NN'
p3490
aa(lp3491
S'rollerblades_NNS'
p3492
aS'boy_NN'
p3493
aS'dress_NN'
p3494
aS'mom_NN'
p3495
aa(lp3496
S'rollerblades_NNS'
p3497
aS'boy_NN'
p3498
aS'dress_NN'
p3499
aS'girl_NN'
p3500
aa(lp3501
S'rollerblades_NNS'
p3502
aS'boy_NN'
p3503
aS'diaper_NN'
p3504
aS'baby_NN'
p3505
aa(lp3506
S'rollerblades_NNS'
p3507
aS'boy_NN'
p3508
aS'headphones_NNS'
p3509
aS'teenager_NN'
p3510
aa(lp3511
S'rollerblades_NNS'
p3512
aS'boy_NN'
p3513
aS'iphone_NNP'
p3514
aS'teenager_NN'
p3515
aa(lp3516
S'rollerblades_NNS'
p3517
aS'boy_NN'
p3518
aS'jewelry_NN'
p3519
aS'mom_NN'
p3520
aa(lp3521
S'rollerblades_NNS'
p3522
aS'boy_NN'
p3523
aS'wallet_NN'
p3524
aS'dad_NN'
p3525
aa(lp3526
S'rollerblades_NNS'
p3527
aS'boy_NN'
p3528
aS'makeup_NN'
p3529
aS'mom_NN'
p3530
aa(lp3531
S'rollerblades_NNS'
p3532
aS'boy_NN'
p3533
aS'purse_NN'
p3534
aS'mom_NN'
p3535
aa(lp3536
S'rollerblades_NNS'
p3537
aS'boy_NN'
p3538
aS'rifle_NN'
p3539
aS'dad_NN'
p3540
aa(lp3541
S'rollerblades_NNS'
p3542
aS'boy_NN'
p3543
aS'pipe_NN'
p3544
aS'grandpa_NN'
p3545
aa(lp3546
S'rollerblades_NNS'
p3547
aS'boy_NN'
p3548
aS'curlers_NNS'
p3549
aS'grandma_NN'
p3550
aa(lp3551
S'rollerblades_NNS'
p3552
aS'boy_NN'
p3553
aS'pacifier_NN'
p3554
aS'baby_NN'
p3555
aa(lp3556
S'rollerblades_NNS'
p3557
aS'boy_NN'
p3558
aS'cane_NN'
p3559
aS'grandpa_NN'
p3560
aa(lp3561
S'rollerblades_NNS'
p3562
aS'boy_NN'
p3563
aS'keys_NNS'
p3564
aS'dad_NN'
p3565
aa(lp3566
S'rollerblades_NNS'
p3567
aS'boy_NN'
p3568
aS'keys_NNS'
p3569
aS'mom_NN'
p3570
aa(lp3571
S'rollerblades_NNS'
p3572
aS'boy_NN'
p3573
aS'glasses_NNS'
p3574
aS'grandma_NN'
p3575
aa(lp3576
S'rollerblades_NNS'
p3577
aS'boy_NN'
p3578
aS'schoolbooks_NNS'
p3579
aS'boy_NN'
p3580
aa(lp3581
S'rollerblades_NNS'
p3582
aS'boy_NN'
p3583
aS'schoolbooks_NNS'
p3584
aS'girl_NN'
p3585
aa(lp3586
S'rollerblades_NNS'
p3587
aS'boy_NN'
p3588
aS'backpack_NN'
p3589
aS'boy_NN'
p3590
aa(lp3591
S'rollerblades_NNS'
p3592
aS'boy_NN'
p3593
aS'backpack_NN'
p3594
aS'girl_NN'
p3595
aa(lp3596
S'rollerblades_NNS'
p3597
aS'boy_NN'
p3598
aS'rollerblades_NNS'
p3599
aS'girl_NN'
p3600
aa(lp3601
S'rollerblades_NNS'
p3602
aS'boy_NN'
p3603
aS'stroller_NN'
p3604
aS'baby_NN'
p3605
aa(lp3606
S'rollerblades_NNS'
p3607
aS'boy_NN'
p3608
aS'crib_NN'
p3609
aS'baby_NN'
p3610
aa(lp3611
S'rollerblades_NNS'
p3612
aS'boy_NN'
p3613
aS'dentures_NNS'
p3614
aS'grandma_NN'
p3615
aa(lp3616
S'rollerblades_NNS'
p3617
aS'boy_NN'
p3618
aS'dentures_NNS'
p3619
aS'grandpa_NN'
p3620
aa(lp3621
S'rollerblades_NNS'
p3622
aS'boy_NN'
p3623
aS'heels_NNS'
p3624
aS'mom_NN'
p3625
aa(lp3626
S'stroller_NN'
p3627
aS'baby_NN'
p3628
aS'toy_NN'
p3629
aS'baby_NN'
p3630
aa(lp3631
S'stroller_NN'
p3632
aS'baby_NN'
p3633
aS'tie_NN'
p3634
aS'boy_NN'
p3635
aa(lp3636
S'stroller_NN'
p3637
aS'baby_NN'
p3638
aS'dress_NN'
p3639
aS'mom_NN'
p3640
aa(lp3641
S'stroller_NN'
p3642
aS'baby_NN'
p3643
aS'dress_NN'
p3644
aS'girl_NN'
p3645
aa(lp3646
S'stroller_NN'
p3647
aS'baby_NN'
p3648
aS'diaper_NN'
p3649
aS'baby_NN'
p3650
aa(lp3651
S'stroller_NN'
p3652
aS'baby_NN'
p3653
aS'headphones_NNS'
p3654
aS'teenager_NN'
p3655
aa(lp3656
S'stroller_NN'
p3657
aS'baby_NN'
p3658
aS'iphone_NNP'
p3659
aS'teenager_NN'
p3660
aa(lp3661
S'stroller_NN'
p3662
aS'baby_NN'
p3663
aS'jewelry_NN'
p3664
aS'mom_NN'
p3665
aa(lp3666
S'stroller_NN'
p3667
aS'baby_NN'
p3668
aS'wallet_NN'
p3669
aS'dad_NN'
p3670
aa(lp3671
S'stroller_NN'
p3672
aS'baby_NN'
p3673
aS'makeup_NN'
p3674
aS'mom_NN'
p3675
aa(lp3676
S'stroller_NN'
p3677
aS'baby_NN'
p3678
aS'purse_NN'
p3679
aS'mom_NN'
p3680
aa(lp3681
S'stroller_NN'
p3682
aS'baby_NN'
p3683
aS'rifle_NN'
p3684
aS'dad_NN'
p3685
aa(lp3686
S'stroller_NN'
p3687
aS'baby_NN'
p3688
aS'pipe_NN'
p3689
aS'grandpa_NN'
p3690
aa(lp3691
S'stroller_NN'
p3692
aS'baby_NN'
p3693
aS'curlers_NNS'
p3694
aS'grandma_NN'
p3695
aa(lp3696
S'stroller_NN'
p3697
aS'baby_NN'
p3698
aS'pacifier_NN'
p3699
aS'baby_NN'
p3700
aa(lp3701
S'stroller_NN'
p3702
aS'baby_NN'
p3703
aS'cane_NN'
p3704
aS'grandpa_NN'
p3705
aa(lp3706
S'stroller_NN'
p3707
aS'baby_NN'
p3708
aS'keys_NNS'
p3709
aS'dad_NN'
p3710
aa(lp3711
S'stroller_NN'
p3712
aS'baby_NN'
p3713
aS'keys_NNS'
p3714
aS'mom_NN'
p3715
aa(lp3716
S'stroller_NN'
p3717
aS'baby_NN'
p3718
aS'glasses_NNS'
p3719
aS'grandma_NN'
p3720
aa(lp3721
S'stroller_NN'
p3722
aS'baby_NN'
p3723
aS'schoolbooks_NNS'
p3724
aS'boy_NN'
p3725
aa(lp3726
S'stroller_NN'
p3727
aS'baby_NN'
p3728
aS'schoolbooks_NNS'
p3729
aS'girl_NN'
p3730
aa(lp3731
S'stroller_NN'
p3732
aS'baby_NN'
p3733
aS'backpack_NN'
p3734
aS'boy_NN'
p3735
aa(lp3736
S'stroller_NN'
p3737
aS'baby_NN'
p3738
aS'backpack_NN'
p3739
aS'girl_NN'
p3740
aa(lp3741
S'stroller_NN'
p3742
aS'baby_NN'
p3743
aS'rollerblades_NNS'
p3744
aS'girl_NN'
p3745
aa(lp3746
S'stroller_NN'
p3747
aS'baby_NN'
p3748
aS'rollerblades_NNS'
p3749
aS'boy_NN'
p3750
aa(lp3751
S'stroller_NN'
p3752
aS'baby_NN'
p3753
aS'crib_NN'
p3754
aS'baby_NN'
p3755
aa(lp3756
S'stroller_NN'
p3757
aS'baby_NN'
p3758
aS'dentures_NNS'
p3759
aS'grandma_NN'
p3760
aa(lp3761
S'stroller_NN'
p3762
aS'baby_NN'
p3763
aS'dentures_NNS'
p3764
aS'grandpa_NN'
p3765
aa(lp3766
S'stroller_NN'
p3767
aS'baby_NN'
p3768
aS'heels_NNS'
p3769
aS'mom_NN'
p3770
aa(lp3771
S'crib_NN'
p3772
aS'baby_NN'
p3773
aS'toy_NN'
p3774
aS'baby_NN'
p3775
aa(lp3776
S'crib_NN'
p3777
aS'baby_NN'
p3778
aS'tie_NN'
p3779
aS'boy_NN'
p3780
aa(lp3781
S'crib_NN'
p3782
aS'baby_NN'
p3783
aS'dress_NN'
p3784
aS'mom_NN'
p3785
aa(lp3786
S'crib_NN'
p3787
aS'baby_NN'
p3788
aS'dress_NN'
p3789
aS'girl_NN'
p3790
aa(lp3791
S'crib_NN'
p3792
aS'baby_NN'
p3793
aS'diaper_NN'
p3794
aS'baby_NN'
p3795
aa(lp3796
S'crib_NN'
p3797
aS'baby_NN'
p3798
aS'headphones_NNS'
p3799
aS'teenager_NN'
p3800
aa(lp3801
S'crib_NN'
p3802
aS'baby_NN'
p3803
aS'iphone_NNP'
p3804
aS'teenager_NN'
p3805
aa(lp3806
S'crib_NN'
p3807
aS'baby_NN'
p3808
aS'jewelry_NN'
p3809
aS'mom_NN'
p3810
aa(lp3811
S'crib_NN'
p3812
aS'baby_NN'
p3813
aS'wallet_NN'
p3814
aS'dad_NN'
p3815
aa(lp3816
S'crib_NN'
p3817
aS'baby_NN'
p3818
aS'makeup_NN'
p3819
aS'mom_NN'
p3820
aa(lp3821
S'crib_NN'
p3822
aS'baby_NN'
p3823
aS'purse_NN'
p3824
aS'mom_NN'
p3825
aa(lp3826
S'crib_NN'
p3827
aS'baby_NN'
p3828
aS'rifle_NN'
p3829
aS'dad_NN'
p3830
aa(lp3831
S'crib_NN'
p3832
aS'baby_NN'
p3833
aS'pipe_NN'
p3834
aS'grandpa_NN'
p3835
aa(lp3836
S'crib_NN'
p3837
aS'baby_NN'
p3838
aS'curlers_NNS'
p3839
aS'grandma_NN'
p3840
aa(lp3841
S'crib_NN'
p3842
aS'baby_NN'
p3843
aS'pacifier_NN'
p3844
aS'baby_NN'
p3845
aa(lp3846
S'crib_NN'
p3847
aS'baby_NN'
p3848
aS'cane_NN'
p3849
aS'grandpa_NN'
p3850
aa(lp3851
S'crib_NN'
p3852
aS'baby_NN'
p3853
aS'keys_NNS'
p3854
aS'dad_NN'
p3855
aa(lp3856
S'crib_NN'
p3857
aS'baby_NN'
p3858
aS'keys_NNS'
p3859
aS'mom_NN'
p3860
aa(lp3861
S'crib_NN'
p3862
aS'baby_NN'
p3863
aS'glasses_NNS'
p3864
aS'grandma_NN'
p3865
aa(lp3866
S'crib_NN'
p3867
aS'baby_NN'
p3868
aS'schoolbooks_NNS'
p3869
aS'boy_NN'
p3870
aa(lp3871
S'crib_NN'
p3872
aS'baby_NN'
p3873
aS'schoolbooks_NNS'
p3874
aS'girl_NN'
p3875
aa(lp3876
S'crib_NN'
p3877
aS'baby_NN'
p3878
aS'backpack_NN'
p3879
aS'boy_NN'
p3880
aa(lp3881
S'crib_NN'
p3882
aS'baby_NN'
p3883
aS'backpack_NN'
p3884
aS'girl_NN'
p3885
aa(lp3886
S'crib_NN'
p3887
aS'baby_NN'
p3888
aS'rollerblades_NNS'
p3889
aS'girl_NN'
p3890
aa(lp3891
S'crib_NN'
p3892
aS'baby_NN'
p3893
aS'rollerblades_NNS'
p3894
aS'boy_NN'
p3895
aa(lp3896
S'crib_NN'
p3897
aS'baby_NN'
p3898
aS'stroller_NN'
p3899
aS'baby_NN'
p3900
aa(lp3901
S'crib_NN'
p3902
aS'baby_NN'
p3903
aS'dentures_NNS'
p3904
aS'grandma_NN'
p3905
aa(lp3906
S'crib_NN'
p3907
aS'baby_NN'
p3908
aS'dentures_NNS'
p3909
aS'grandpa_NN'
p3910
aa(lp3911
S'crib_NN'
p3912
aS'baby_NN'
p3913
aS'heels_NNS'
p3914
aS'mom_NN'
p3915
aa(lp3916
S'dentures_NNS'
p3917
aS'grandma_NN'
p3918
aS'toy_NN'
p3919
aS'baby_NN'
p3920
aa(lp3921
S'dentures_NNS'
p3922
aS'grandma_NN'
p3923
aS'tie_NN'
p3924
aS'boy_NN'
p3925
aa(lp3926
S'dentures_NNS'
p3927
aS'grandma_NN'
p3928
aS'dress_NN'
p3929
aS'mom_NN'
p3930
aa(lp3931
S'dentures_NNS'
p3932
aS'grandma_NN'
p3933
aS'dress_NN'
p3934
aS'girl_NN'
p3935
aa(lp3936
S'dentures_NNS'
p3937
aS'grandma_NN'
p3938
aS'diaper_NN'
p3939
aS'baby_NN'
p3940
aa(lp3941
S'dentures_NNS'
p3942
aS'grandma_NN'
p3943
aS'headphones_NNS'
p3944
aS'teenager_NN'
p3945
aa(lp3946
S'dentures_NNS'
p3947
aS'grandma_NN'
p3948
aS'iphone_NNP'
p3949
aS'teenager_NN'
p3950
aa(lp3951
S'dentures_NNS'
p3952
aS'grandma_NN'
p3953
aS'jewelry_NN'
p3954
aS'mom_NN'
p3955
aa(lp3956
S'dentures_NNS'
p3957
aS'grandma_NN'
p3958
aS'wallet_NN'
p3959
aS'dad_NN'
p3960
aa(lp3961
S'dentures_NNS'
p3962
aS'grandma_NN'
p3963
aS'makeup_NN'
p3964
aS'mom_NN'
p3965
aa(lp3966
S'dentures_NNS'
p3967
aS'grandma_NN'
p3968
aS'purse_NN'
p3969
aS'mom_NN'
p3970
aa(lp3971
S'dentures_NNS'
p3972
aS'grandma_NN'
p3973
aS'rifle_NN'
p3974
aS'dad_NN'
p3975
aa(lp3976
S'dentures_NNS'
p3977
aS'grandma_NN'
p3978
aS'pipe_NN'
p3979
aS'grandpa_NN'
p3980
aa(lp3981
S'dentures_NNS'
p3982
aS'grandma_NN'
p3983
aS'curlers_NNS'
p3984
aS'grandma_NN'
p3985
aa(lp3986
S'dentures_NNS'
p3987
aS'grandma_NN'
p3988
aS'pacifier_NN'
p3989
aS'baby_NN'
p3990
aa(lp3991
S'dentures_NNS'
p3992
aS'grandma_NN'
p3993
aS'cane_NN'
p3994
aS'grandpa_NN'
p3995
aa(lp3996
S'dentures_NNS'
p3997
aS'grandma_NN'
p3998
aS'keys_NNS'
p3999
aS'dad_NN'
p4000
aa(lp4001
S'dentures_NNS'
p4002
aS'grandma_NN'
p4003
aS'keys_NNS'
p4004
aS'mom_NN'
p4005
aa(lp4006
S'dentures_NNS'
p4007
aS'grandma_NN'
p4008
aS'glasses_NNS'
p4009
aS'grandma_NN'
p4010
aa(lp4011
S'dentures_NNS'
p4012
aS'grandma_NN'
p4013
aS'schoolbooks_NNS'
p4014
aS'boy_NN'
p4015
aa(lp4016
S'dentures_NNS'
p4017
aS'grandma_NN'
p4018
aS'schoolbooks_NNS'
p4019
aS'girl_NN'
p4020
aa(lp4021
S'dentures_NNS'
p4022
aS'grandma_NN'
p4023
aS'backpack_NN'
p4024
aS'boy_NN'
p4025
aa(lp4026
S'dentures_NNS'
p4027
aS'grandma_NN'
p4028
aS'backpack_NN'
p4029
aS'girl_NN'
p4030
aa(lp4031
S'dentures_NNS'
p4032
aS'grandma_NN'
p4033
aS'rollerblades_NNS'
p4034
aS'girl_NN'
p4035
aa(lp4036
S'dentures_NNS'
p4037
aS'grandma_NN'
p4038
aS'rollerblades_NNS'
p4039
aS'boy_NN'
p4040
aa(lp4041
S'dentures_NNS'
p4042
aS'grandma_NN'
p4043
aS'stroller_NN'
p4044
aS'baby_NN'
p4045
aa(lp4046
S'dentures_NNS'
p4047
aS'grandma_NN'
p4048
aS'crib_NN'
p4049
aS'baby_NN'
p4050
aa(lp4051
S'dentures_NNS'
p4052
aS'grandma_NN'
p4053
aS'dentures_NNS'
p4054
aS'grandpa_NN'
p4055
aa(lp4056
S'dentures_NNS'
p4057
aS'grandma_NN'
p4058
aS'heels_NNS'
p4059
aS'mom_NN'
p4060
aa(lp4061
S'dentures_NNS'
p4062
aS'grandpa_NN'
p4063
aS'toy_NN'
p4064
aS'baby_NN'
p4065
aa(lp4066
S'dentures_NNS'
p4067
aS'grandpa_NN'
p4068
aS'tie_NN'
p4069
aS'boy_NN'
p4070
aa(lp4071
S'dentures_NNS'
p4072
aS'grandpa_NN'
p4073
aS'dress_NN'
p4074
aS'mom_NN'
p4075
aa(lp4076
S'dentures_NNS'
p4077
aS'grandpa_NN'
p4078
aS'dress_NN'
p4079
aS'girl_NN'
p4080
aa(lp4081
S'dentures_NNS'
p4082
aS'grandpa_NN'
p4083
aS'diaper_NN'
p4084
aS'baby_NN'
p4085
aa(lp4086
S'dentures_NNS'
p4087
aS'grandpa_NN'
p4088
aS'headphones_NNS'
p4089
aS'teenager_NN'
p4090
aa(lp4091
S'dentures_NNS'
p4092
aS'grandpa_NN'
p4093
aS'iphone_NNP'
p4094
aS'teenager_NN'
p4095
aa(lp4096
S'dentures_NNS'
p4097
aS'grandpa_NN'
p4098
aS'jewelry_NN'
p4099
aS'mom_NN'
p4100
aa(lp4101
S'dentures_NNS'
p4102
aS'grandpa_NN'
p4103
aS'wallet_NN'
p4104
aS'dad_NN'
p4105
aa(lp4106
S'dentures_NNS'
p4107
aS'grandpa_NN'
p4108
aS'makeup_NN'
p4109
aS'mom_NN'
p4110
aa(lp4111
S'dentures_NNS'
p4112
aS'grandpa_NN'
p4113
aS'purse_NN'
p4114
aS'mom_NN'
p4115
aa(lp4116
S'dentures_NNS'
p4117
aS'grandpa_NN'
p4118
aS'rifle_NN'
p4119
aS'dad_NN'
p4120
aa(lp4121
S'dentures_NNS'
p4122
aS'grandpa_NN'
p4123
aS'pipe_NN'
p4124
aS'grandpa_NN'
p4125
aa(lp4126
S'dentures_NNS'
p4127
aS'grandpa_NN'
p4128
aS'curlers_NNS'
p4129
aS'grandma_NN'
p4130
aa(lp4131
S'dentures_NNS'
p4132
aS'grandpa_NN'
p4133
aS'pacifier_NN'
p4134
aS'baby_NN'
p4135
aa(lp4136
S'dentures_NNS'
p4137
aS'grandpa_NN'
p4138
aS'cane_NN'
p4139
aS'grandpa_NN'
p4140
aa(lp4141
S'dentures_NNS'
p4142
aS'grandpa_NN'
p4143
aS'keys_NNS'
p4144
aS'dad_NN'
p4145
aa(lp4146
S'dentures_NNS'
p4147
aS'grandpa_NN'
p4148
aS'keys_NNS'
p4149
aS'mom_NN'
p4150
aa(lp4151
S'dentures_NNS'
p4152
aS'grandpa_NN'
p4153
aS'glasses_NNS'
p4154
aS'grandma_NN'
p4155
aa(lp4156
S'dentures_NNS'
p4157
aS'grandpa_NN'
p4158
aS'schoolbooks_NNS'
p4159
aS'boy_NN'
p4160
aa(lp4161
S'dentures_NNS'
p4162
aS'grandpa_NN'
p4163
aS'schoolbooks_NNS'
p4164
aS'girl_NN'
p4165
aa(lp4166
S'dentures_NNS'
p4167
aS'grandpa_NN'
p4168
aS'backpack_NN'
p4169
aS'boy_NN'
p4170
aa(lp4171
S'dentures_NNS'
p4172
aS'grandpa_NN'
p4173
aS'backpack_NN'
p4174
aS'girl_NN'
p4175
aa(lp4176
S'dentures_NNS'
p4177
aS'grandpa_NN'
p4178
aS'rollerblades_NNS'
p4179
aS'girl_NN'
p4180
aa(lp4181
S'dentures_NNS'
p4182
aS'grandpa_NN'
p4183
aS'rollerblades_NNS'
p4184
aS'boy_NN'
p4185
aa(lp4186
S'dentures_NNS'
p4187
aS'grandpa_NN'
p4188
aS'stroller_NN'
p4189
aS'baby_NN'
p4190
aa(lp4191
S'dentures_NNS'
p4192
aS'grandpa_NN'
p4193
aS'crib_NN'
p4194
aS'baby_NN'
p4195
aa(lp4196
S'dentures_NNS'
p4197
aS'grandpa_NN'
p4198
aS'dentures_NNS'
p4199
aS'grandma_NN'
p4200
aa(lp4201
S'dentures_NNS'
p4202
aS'grandpa_NN'
p4203
aS'heels_NNS'
p4204
aS'mom_NN'
p4205
aa(lp4206
S'heels_NNS'
p4207
aS'mom_NN'
p4208
aS'toy_NN'
p4209
aS'baby_NN'
p4210
aa(lp4211
S'heels_NNS'
p4212
aS'mom_NN'
p4213
aS'tie_NN'
p4214
aS'boy_NN'
p4215
aa(lp4216
S'heels_NNS'
p4217
aS'mom_NN'
p4218
aS'dress_NN'
p4219
aS'mom_NN'
p4220
aa(lp4221
S'heels_NNS'
p4222
aS'mom_NN'
p4223
aS'dress_NN'
p4224
aS'girl_NN'
p4225
aa(lp4226
S'heels_NNS'
p4227
aS'mom_NN'
p4228
aS'diaper_NN'
p4229
aS'baby_NN'
p4230
aa(lp4231
S'heels_NNS'
p4232
aS'mom_NN'
p4233
aS'headphones_NNS'
p4234
aS'teenager_NN'
p4235
aa(lp4236
S'heels_NNS'
p4237
aS'mom_NN'
p4238
aS'iphone_NNP'
p4239
aS'teenager_NN'
p4240
aa(lp4241
S'heels_NNS'
p4242
aS'mom_NN'
p4243
aS'jewelry_NN'
p4244
aS'mom_NN'
p4245
aa(lp4246
S'heels_NNS'
p4247
aS'mom_NN'
p4248
aS'wallet_NN'
p4249
aS'dad_NN'
p4250
aa(lp4251
S'heels_NNS'
p4252
aS'mom_NN'
p4253
aS'makeup_NN'
p4254
aS'mom_NN'
p4255
aa(lp4256
S'heels_NNS'
p4257
aS'mom_NN'
p4258
aS'purse_NN'
p4259
aS'mom_NN'
p4260
aa(lp4261
S'heels_NNS'
p4262
aS'mom_NN'
p4263
aS'rifle_NN'
p4264
aS'dad_NN'
p4265
aa(lp4266
S'heels_NNS'
p4267
aS'mom_NN'
p4268
aS'pipe_NN'
p4269
aS'grandpa_NN'
p4270
aa(lp4271
S'heels_NNS'
p4272
aS'mom_NN'
p4273
aS'curlers_NNS'
p4274
aS'grandma_NN'
p4275
aa(lp4276
S'heels_NNS'
p4277
aS'mom_NN'
p4278
aS'pacifier_NN'
p4279
aS'baby_NN'
p4280
aa(lp4281
S'heels_NNS'
p4282
aS'mom_NN'
p4283
aS'cane_NN'
p4284
aS'grandpa_NN'
p4285
aa(lp4286
S'heels_NNS'
p4287
aS'mom_NN'
p4288
aS'keys_NNS'
p4289
aS'dad_NN'
p4290
aa(lp4291
S'heels_NNS'
p4292
aS'mom_NN'
p4293
aS'keys_NNS'
p4294
aS'mom_NN'
p4295
aa(lp4296
S'heels_NNS'
p4297
aS'mom_NN'
p4298
aS'glasses_NNS'
p4299
aS'grandma_NN'
p4300
aa(lp4301
S'heels_NNS'
p4302
aS'mom_NN'
p4303
aS'schoolbooks_NNS'
p4304
aS'boy_NN'
p4305
aa(lp4306
S'heels_NNS'
p4307
aS'mom_NN'
p4308
aS'schoolbooks_NNS'
p4309
aS'girl_NN'
p4310
aa(lp4311
S'heels_NNS'
p4312
aS'mom_NN'
p4313
aS'backpack_NN'
p4314
aS'boy_NN'
p4315
aa(lp4316
S'heels_NNS'
p4317
aS'mom_NN'
p4318
aS'backpack_NN'
p4319
aS'girl_NN'
p4320
aa(lp4321
S'heels_NNS'
p4322
aS'mom_NN'
p4323
aS'rollerblades_NNS'
p4324
aS'girl_NN'
p4325
aa(lp4326
S'heels_NNS'
p4327
aS'mom_NN'
p4328
aS'rollerblades_NNS'
p4329
aS'boy_NN'
p4330
aa(lp4331
S'heels_NNS'
p4332
aS'mom_NN'
p4333
aS'stroller_NN'
p4334
aS'baby_NN'
p4335
aa(lp4336
S'heels_NNS'
p4337
aS'mom_NN'
p4338
aS'crib_NN'
p4339
aS'baby_NN'
p4340
aa(lp4341
S'heels_NNS'
p4342
aS'mom_NN'
p4343
aS'dentures_NNS'
p4344
aS'grandma_NN'
p4345
aa(lp4346
S'heels_NNS'
p4347
aS'mom_NN'
p4348
aS'dentures_NNS'
p4349
aS'grandpa_NN'
p4350
aa.