(lp0
(lp1
S'baby_NN'
p2
aS'toy_NN'
p3
aS'dad_NN'
p4
aS'tie_NN'
p5
aa(lp6
g2
ag3
aS'mom_NN'
p7
aS'dress_NN'
p8
aa(lp9
g2
ag3
aS'sister_NN'
p10
aS'dress_NN'
p11
aa(lp12
g2
ag3
aS'baby_NN'
p13
aS'diaper_NN'
p14
aa(lp15
g2
ag3
aS'brother_NN'
p16
aS'headphones_NNS'
p17
aa(lp18
g2
ag3
aS'sister_NN'
p19
aS'headphones_NNS'
p20
aa(lp21
g2
ag3
aS'mom_NN'
p22
aS'jewelry_NN'
p23
aa(lp24
g2
ag3
aS'dad_NN'
p25
aS'wallet_NN'
p26
aa(lp27
g2
ag3
aS'mom_NN'
p28
aS'makeup_NN'
p29
aa(lp30
g2
ag3
aS'mom_NN'
p31
aS'purse_NN'
p32
aa(lp33
g2
ag3
aS'dad_NN'
p34
aS'rifle_NN'
p35
aa(lp36
g2
ag3
aS'grandpa_NN'
p37
aS'pipe_NN'
p38
aa(lp39
g2
ag3
aS'grandma_NN'
p40
aS'curlers_NNS'
p41
aa(lp42
g2
ag3
aS'baby_NN'
p43
aS'pacifier_NN'
p44
aa(lp45
g2
ag3
aS'grandpa_NN'
p46
aS'cane_NN'
p47
aa(lp48
g2
ag3
aS'grandma_NN'
p49
aS'dentures_NNS'
p50
aa(lp51
g2
ag3
aS'grandpa_NN'
p52
aS'dentures_NNS'
p53
aa(lp54
g2
ag3
aS'dad_NN'
p55
aS'keys_NNS'
p56
aa(lp57
g2
ag3
aS'mom_NN'
p58
aS'keys_NNS'
p59
aa(lp60
g2
ag3
aS'brother_NN'
p61
aS'schoolbooks_NNS'
p62
aa(lp63
g2
ag3
aS'sister_NN'
p64
aS'schoolbooks_NNS'
p65
aa(lp66
g2
ag3
aS'brother_NN'
p67
aS'backpack_NN'
p68
aa(lp69
g2
ag3
aS'sister_NN'
p70
aS'backpack_NN'
p71
aa(lp72
g2
ag3
aS'sister_NN'
p73
aS'rollerblades_NNS'
p74
aa(lp75
g2
ag3
aS'brother_NN'
p76
aS'rollerblades_NNS'
p77
aa(lp78
g2
ag3
aS'baby_NN'
p79
aS'stroller_NN'
p80
aa(lp81
g2
ag3
aS'baby_NN'
p82
aS'crib_NN'
p83
aa(lp84
g2
ag3
aS'sister_NN'
p85
aS'bike_NN'
p86
aa(lp87
g2
ag3
aS'brother_NN'
p88
aS'bike_NN'
p89
aa(lp90
g2
ag3
aS'mom_NN'
p91
aS'earrings_NNS'
p92
aa(lp93
g2
ag3
aS'sister_NN'
p94
aS'earrings_NNS'
p95
aa(lp96
g4
ag5
ag2
ag3
aa(lp97
g4
ag5
ag7
ag8
aa(lp98
g4
ag5
ag10
ag11
aa(lp99
g4
ag5
ag13
ag14
aa(lp100
g4
ag5
ag16
ag17
aa(lp101
g4
ag5
ag19
ag20
aa(lp102
g4
ag5
ag22
ag23
aa(lp103
g4
ag5
ag25
ag26
aa(lp104
g4
ag5
ag28
ag29
aa(lp105
g4
ag5
ag31
ag32
aa(lp106
g4
ag5
ag34
ag35
aa(lp107
g4
ag5
ag37
ag38
aa(lp108
g4
ag5
ag40
ag41
aa(lp109
g4
ag5
ag43
ag44
aa(lp110
g4
ag5
ag46
ag47
aa(lp111
g4
ag5
ag49
ag50
aa(lp112
g4
ag5
ag52
ag53
aa(lp113
g4
ag5
ag55
ag56
aa(lp114
g4
ag5
ag58
ag59
aa(lp115
g4
ag5
ag61
ag62
aa(lp116
g4
ag5
ag64
ag65
aa(lp117
g4
ag5
ag67
ag68
aa(lp118
g4
ag5
ag70
ag71
aa(lp119
g4
ag5
ag73
ag74
aa(lp120
g4
ag5
ag76
ag77
aa(lp121
g4
ag5
ag79
ag80
aa(lp122
g4
ag5
ag82
ag83
aa(lp123
g4
ag5
ag85
ag86
aa(lp124
g4
ag5
ag88
ag89
aa(lp125
g4
ag5
ag91
ag92
aa(lp126
g4
ag5
ag94
ag95
aa(lp127
g7
ag8
ag2
ag3
aa(lp128
g7
ag8
ag4
ag5
aa(lp129
g7
ag8
ag10
ag11
aa(lp130
g7
ag8
ag13
ag14
aa(lp131
g7
ag8
ag16
ag17
aa(lp132
g7
ag8
ag19
ag20
aa(lp133
g7
ag8
ag22
ag23
aa(lp134
g7
ag8
ag25
ag26
aa(lp135
g7
ag8
ag28
ag29
aa(lp136
g7
ag8
ag31
ag32
aa(lp137
g7
ag8
ag34
ag35
aa(lp138
g7
ag8
ag37
ag38
aa(lp139
g7
ag8
ag40
ag41
aa(lp140
g7
ag8
ag43
ag44
aa(lp141
g7
ag8
ag46
ag47
aa(lp142
g7
ag8
ag49
ag50
aa(lp143
g7
ag8
ag52
ag53
aa(lp144
g7
ag8
ag55
ag56
aa(lp145
g7
ag8
ag58
ag59
aa(lp146
g7
ag8
ag61
ag62
aa(lp147
g7
ag8
ag64
ag65
aa(lp148
g7
ag8
ag67
ag68
aa(lp149
g7
ag8
ag70
ag71
aa(lp150
g7
ag8
ag73
ag74
aa(lp151
g7
ag8
ag76
ag77
aa(lp152
g7
ag8
ag79
ag80
aa(lp153
g7
ag8
ag82
ag83
aa(lp154
g7
ag8
ag85
ag86
aa(lp155
g7
ag8
ag88
ag89
aa(lp156
g7
ag8
ag91
ag92
aa(lp157
g7
ag8
ag94
ag95
aa(lp158
g10
ag11
ag2
ag3
aa(lp159
g10
ag11
ag4
ag5
aa(lp160
g10
ag11
ag7
ag8
aa(lp161
g10
ag11
ag13
ag14
aa(lp162
g10
ag11
ag16
ag17
aa(lp163
g10
ag11
ag19
ag20
aa(lp164
g10
ag11
ag22
ag23
aa(lp165
g10
ag11
ag25
ag26
aa(lp166
g10
ag11
ag28
ag29
aa(lp167
g10
ag11
ag31
ag32
aa(lp168
g10
ag11
ag34
ag35
aa(lp169
g10
ag11
ag37
ag38
aa(lp170
g10
ag11
ag40
ag41
aa(lp171
g10
ag11
ag43
ag44
aa(lp172
g10
ag11
ag46
ag47
aa(lp173
g10
ag11
ag49
ag50
aa(lp174
g10
ag11
ag52
ag53
aa(lp175
g10
ag11
ag55
ag56
aa(lp176
g10
ag11
ag58
ag59
aa(lp177
g10
ag11
ag61
ag62
aa(lp178
g10
ag11
ag64
ag65
aa(lp179
g10
ag11
ag67
ag68
aa(lp180
g10
ag11
ag70
ag71
aa(lp181
g10
ag11
ag73
ag74
aa(lp182
g10
ag11
ag76
ag77
aa(lp183
g10
ag11
ag79
ag80
aa(lp184
g10
ag11
ag82
ag83
aa(lp185
g10
ag11
ag85
ag86
aa(lp186
g10
ag11
ag88
ag89
aa(lp187
g10
ag11
ag91
ag92
aa(lp188
g10
ag11
ag94
ag95
aa(lp189
g13
ag14
ag2
ag3
aa(lp190
g13
ag14
ag4
ag5
aa(lp191
g13
ag14
ag7
ag8
aa(lp192
g13
ag14
ag10
ag11
aa(lp193
g13
ag14
ag16
ag17
aa(lp194
g13
ag14
ag19
ag20
aa(lp195
g13
ag14
ag22
ag23
aa(lp196
g13
ag14
ag25
ag26
aa(lp197
g13
ag14
ag28
ag29
aa(lp198
g13
ag14
ag31
ag32
aa(lp199
g13
ag14
ag34
ag35
aa(lp200
g13
ag14
ag37
ag38
aa(lp201
g13
ag14
ag40
ag41
aa(lp202
g13
ag14
ag43
ag44
aa(lp203
g13
ag14
ag46
ag47
aa(lp204
g13
ag14
ag49
ag50
aa(lp205
g13
ag14
ag52
ag53
aa(lp206
g13
ag14
ag55
ag56
aa(lp207
g13
ag14
ag58
ag59
aa(lp208
g13
ag14
ag61
ag62
aa(lp209
g13
ag14
ag64
ag65
aa(lp210
g13
ag14
ag67
ag68
aa(lp211
g13
ag14
ag70
ag71
aa(lp212
g13
ag14
ag73
ag74
aa(lp213
g13
ag14
ag76
ag77
aa(lp214
g13
ag14
ag79
ag80
aa(lp215
g13
ag14
ag82
ag83
aa(lp216
g13
ag14
ag85
ag86
aa(lp217
g13
ag14
ag88
ag89
aa(lp218
g13
ag14
ag91
ag92
aa(lp219
g13
ag14
ag94
ag95
aa(lp220
g16
ag17
ag2
ag3
aa(lp221
g16
ag17
ag4
ag5
aa(lp222
g16
ag17
ag7
ag8
aa(lp223
g16
ag17
ag10
ag11
aa(lp224
g16
ag17
ag13
ag14
aa(lp225
g16
ag17
ag19
ag20
aa(lp226
g16
ag17
ag22
ag23
aa(lp227
g16
ag17
ag25
ag26
aa(lp228
g16
ag17
ag28
ag29
aa(lp229
g16
ag17
ag31
ag32
aa(lp230
g16
ag17
ag34
ag35
aa(lp231
g16
ag17
ag37
ag38
aa(lp232
g16
ag17
ag40
ag41
aa(lp233
g16
ag17
ag43
ag44
aa(lp234
g16
ag17
ag46
ag47
aa(lp235
g16
ag17
ag49
ag50
aa(lp236
g16
ag17
ag52
ag53
aa(lp237
g16
ag17
ag55
ag56
aa(lp238
g16
ag17
ag58
ag59
aa(lp239
g16
ag17
ag61
ag62
aa(lp240
g16
ag17
ag64
ag65
aa(lp241
g16
ag17
ag67
ag68
aa(lp242
g16
ag17
ag70
ag71
aa(lp243
g16
ag17
ag73
ag74
aa(lp244
g16
ag17
ag76
ag77
aa(lp245
g16
ag17
ag79
ag80
aa(lp246
g16
ag17
ag82
ag83
aa(lp247
g16
ag17
ag85
ag86
aa(lp248
g16
ag17
ag88
ag89
aa(lp249
g16
ag17
ag91
ag92
aa(lp250
g16
ag17
ag94
ag95
aa(lp251
g19
ag20
ag2
ag3
aa(lp252
g19
ag20
ag4
ag5
aa(lp253
g19
ag20
ag7
ag8
aa(lp254
g19
ag20
ag10
ag11
aa(lp255
g19
ag20
ag13
ag14
aa(lp256
g19
ag20
ag16
ag17
aa(lp257
g19
ag20
ag22
ag23
aa(lp258
g19
ag20
ag25
ag26
aa(lp259
g19
ag20
ag28
ag29
aa(lp260
g19
ag20
ag31
ag32
aa(lp261
g19
ag20
ag34
ag35
aa(lp262
g19
ag20
ag37
ag38
aa(lp263
g19
ag20
ag40
ag41
aa(lp264
g19
ag20
ag43
ag44
aa(lp265
g19
ag20
ag46
ag47
aa(lp266
g19
ag20
ag49
ag50
aa(lp267
g19
ag20
ag52
ag53
aa(lp268
g19
ag20
ag55
ag56
aa(lp269
g19
ag20
ag58
ag59
aa(lp270
g19
ag20
ag61
ag62
aa(lp271
g19
ag20
ag64
ag65
aa(lp272
g19
ag20
ag67
ag68
aa(lp273
g19
ag20
ag70
ag71
aa(lp274
g19
ag20
ag73
ag74
aa(lp275
g19
ag20
ag76
ag77
aa(lp276
g19
ag20
ag79
ag80
aa(lp277
g19
ag20
ag82
ag83
aa(lp278
g19
ag20
ag85
ag86
aa(lp279
g19
ag20
ag88
ag89
aa(lp280
g19
ag20
ag91
ag92
aa(lp281
g19
ag20
ag94
ag95
aa(lp282
g22
ag23
ag2
ag3
aa(lp283
g22
ag23
ag4
ag5
aa(lp284
g22
ag23
ag7
ag8
aa(lp285
g22
ag23
ag10
ag11
aa(lp286
g22
ag23
ag13
ag14
aa(lp287
g22
ag23
ag16
ag17
aa(lp288
g22
ag23
ag19
ag20
aa(lp289
g22
ag23
ag25
ag26
aa(lp290
g22
ag23
ag28
ag29
aa(lp291
g22
ag23
ag31
ag32
aa(lp292
g22
ag23
ag34
ag35
aa(lp293
g22
ag23
ag37
ag38
aa(lp294
g22
ag23
ag40
ag41
aa(lp295
g22
ag23
ag43
ag44
aa(lp296
g22
ag23
ag46
ag47
aa(lp297
g22
ag23
ag49
ag50
aa(lp298
g22
ag23
ag52
ag53
aa(lp299
g22
ag23
ag55
ag56
aa(lp300
g22
ag23
ag58
ag59
aa(lp301
g22
ag23
ag61
ag62
aa(lp302
g22
ag23
ag64
ag65
aa(lp303
g22
ag23
ag67
ag68
aa(lp304
g22
ag23
ag70
ag71
aa(lp305
g22
ag23
ag73
ag74
aa(lp306
g22
ag23
ag76
ag77
aa(lp307
g22
ag23
ag79
ag80
aa(lp308
g22
ag23
ag82
ag83
aa(lp309
g22
ag23
ag85
ag86
aa(lp310
g22
ag23
ag88
ag89
aa(lp311
g22
ag23
ag91
ag92
aa(lp312
g22
ag23
ag94
ag95
aa(lp313
g25
ag26
ag2
ag3
aa(lp314
g25
ag26
ag4
ag5
aa(lp315
g25
ag26
ag7
ag8
aa(lp316
g25
ag26
ag10
ag11
aa(lp317
g25
ag26
ag13
ag14
aa(lp318
g25
ag26
ag16
ag17
aa(lp319
g25
ag26
ag19
ag20
aa(lp320
g25
ag26
ag22
ag23
aa(lp321
g25
ag26
ag28
ag29
aa(lp322
g25
ag26
ag31
ag32
aa(lp323
g25
ag26
ag34
ag35
aa(lp324
g25
ag26
ag37
ag38
aa(lp325
g25
ag26
ag40
ag41
aa(lp326
g25
ag26
ag43
ag44
aa(lp327
g25
ag26
ag46
ag47
aa(lp328
g25
ag26
ag49
ag50
aa(lp329
g25
ag26
ag52
ag53
aa(lp330
g25
ag26
ag55
ag56
aa(lp331
g25
ag26
ag58
ag59
aa(lp332
g25
ag26
ag61
ag62
aa(lp333
g25
ag26
ag64
ag65
aa(lp334
g25
ag26
ag67
ag68
aa(lp335
g25
ag26
ag70
ag71
aa(lp336
g25
ag26
ag73
ag74
aa(lp337
g25
ag26
ag76
ag77
aa(lp338
g25
ag26
ag79
ag80
aa(lp339
g25
ag26
ag82
ag83
aa(lp340
g25
ag26
ag85
ag86
aa(lp341
g25
ag26
ag88
ag89
aa(lp342
g25
ag26
ag91
ag92
aa(lp343
g25
ag26
ag94
ag95
aa(lp344
g28
ag29
ag2
ag3
aa(lp345
g28
ag29
ag4
ag5
aa(lp346
g28
ag29
ag7
ag8
aa(lp347
g28
ag29
ag10
ag11
aa(lp348
g28
ag29
ag13
ag14
aa(lp349
g28
ag29
ag16
ag17
aa(lp350
g28
ag29
ag19
ag20
aa(lp351
g28
ag29
ag22
ag23
aa(lp352
g28
ag29
ag25
ag26
aa(lp353
g28
ag29
ag31
ag32
aa(lp354
g28
ag29
ag34
ag35
aa(lp355
g28
ag29
ag37
ag38
aa(lp356
g28
ag29
ag40
ag41
aa(lp357
g28
ag29
ag43
ag44
aa(lp358
g28
ag29
ag46
ag47
aa(lp359
g28
ag29
ag49
ag50
aa(lp360
g28
ag29
ag52
ag53
aa(lp361
g28
ag29
ag55
ag56
aa(lp362
g28
ag29
ag58
ag59
aa(lp363
g28
ag29
ag61
ag62
aa(lp364
g28
ag29
ag64
ag65
aa(lp365
g28
ag29
ag67
ag68
aa(lp366
g28
ag29
ag70
ag71
aa(lp367
g28
ag29
ag73
ag74
aa(lp368
g28
ag29
ag76
ag77
aa(lp369
g28
ag29
ag79
ag80
aa(lp370
g28
ag29
ag82
ag83
aa(lp371
g28
ag29
ag85
ag86
aa(lp372
g28
ag29
ag88
ag89
aa(lp373
g28
ag29
ag91
ag92
aa(lp374
g28
ag29
ag94
ag95
aa(lp375
g31
ag32
ag2
ag3
aa(lp376
g31
ag32
ag4
ag5
aa(lp377
g31
ag32
ag7
ag8
aa(lp378
g31
ag32
ag10
ag11
aa(lp379
g31
ag32
ag13
ag14
aa(lp380
g31
ag32
ag16
ag17
aa(lp381
g31
ag32
ag19
ag20
aa(lp382
g31
ag32
ag22
ag23
aa(lp383
g31
ag32
ag25
ag26
aa(lp384
g31
ag32
ag28
ag29
aa(lp385
g31
ag32
ag34
ag35
aa(lp386
g31
ag32
ag37
ag38
aa(lp387
g31
ag32
ag40
ag41
aa(lp388
g31
ag32
ag43
ag44
aa(lp389
g31
ag32
ag46
ag47
aa(lp390
g31
ag32
ag49
ag50
aa(lp391
g31
ag32
ag52
ag53
aa(lp392
g31
ag32
ag55
ag56
aa(lp393
g31
ag32
ag58
ag59
aa(lp394
g31
ag32
ag61
ag62
aa(lp395
g31
ag32
ag64
ag65
aa(lp396
g31
ag32
ag67
ag68
aa(lp397
g31
ag32
ag70
ag71
aa(lp398
g31
ag32
ag73
ag74
aa(lp399
g31
ag32
ag76
ag77
aa(lp400
g31
ag32
ag79
ag80
aa(lp401
g31
ag32
ag82
ag83
aa(lp402
g31
ag32
ag85
ag86
aa(lp403
g31
ag32
ag88
ag89
aa(lp404
g31
ag32
ag91
ag92
aa(lp405
g31
ag32
ag94
ag95
aa(lp406
g34
ag35
ag2
ag3
aa(lp407
g34
ag35
ag4
ag5
aa(lp408
g34
ag35
ag7
ag8
aa(lp409
g34
ag35
ag10
ag11
aa(lp410
g34
ag35
ag13
ag14
aa(lp411
g34
ag35
ag16
ag17
aa(lp412
g34
ag35
ag19
ag20
aa(lp413
g34
ag35
ag22
ag23
aa(lp414
g34
ag35
ag25
ag26
aa(lp415
g34
ag35
ag28
ag29
aa(lp416
g34
ag35
ag31
ag32
aa(lp417
g34
ag35
ag37
ag38
aa(lp418
g34
ag35
ag40
ag41
aa(lp419
g34
ag35
ag43
ag44
aa(lp420
g34
ag35
ag46
ag47
aa(lp421
g34
ag35
ag49
ag50
aa(lp422
g34
ag35
ag52
ag53
aa(lp423
g34
ag35
ag55
ag56
aa(lp424
g34
ag35
ag58
ag59
aa(lp425
g34
ag35
ag61
ag62
aa(lp426
g34
ag35
ag64
ag65
aa(lp427
g34
ag35
ag67
ag68
aa(lp428
g34
ag35
ag70
ag71
aa(lp429
g34
ag35
ag73
ag74
aa(lp430
g34
ag35
ag76
ag77
aa(lp431
g34
ag35
ag79
ag80
aa(lp432
g34
ag35
ag82
ag83
aa(lp433
g34
ag35
ag85
ag86
aa(lp434
g34
ag35
ag88
ag89
aa(lp435
g34
ag35
ag91
ag92
aa(lp436
g34
ag35
ag94
ag95
aa(lp437
g37
ag38
ag2
ag3
aa(lp438
g37
ag38
ag4
ag5
aa(lp439
g37
ag38
ag7
ag8
aa(lp440
g37
ag38
ag10
ag11
aa(lp441
g37
ag38
ag13
ag14
aa(lp442
g37
ag38
ag16
ag17
aa(lp443
g37
ag38
ag19
ag20
aa(lp444
g37
ag38
ag22
ag23
aa(lp445
g37
ag38
ag25
ag26
aa(lp446
g37
ag38
ag28
ag29
aa(lp447
g37
ag38
ag31
ag32
aa(lp448
g37
ag38
ag34
ag35
aa(lp449
g37
ag38
ag40
ag41
aa(lp450
g37
ag38
ag43
ag44
aa(lp451
g37
ag38
ag46
ag47
aa(lp452
g37
ag38
ag49
ag50
aa(lp453
g37
ag38
ag52
ag53
aa(lp454
g37
ag38
ag55
ag56
aa(lp455
g37
ag38
ag58
ag59
aa(lp456
g37
ag38
ag61
ag62
aa(lp457
g37
ag38
ag64
ag65
aa(lp458
g37
ag38
ag67
ag68
aa(lp459
g37
ag38
ag70
ag71
aa(lp460
g37
ag38
ag73
ag74
aa(lp461
g37
ag38
ag76
ag77
aa(lp462
g37
ag38
ag79
ag80
aa(lp463
g37
ag38
ag82
ag83
aa(lp464
g37
ag38
ag85
ag86
aa(lp465
g37
ag38
ag88
ag89
aa(lp466
g37
ag38
ag91
ag92
aa(lp467
g37
ag38
ag94
ag95
aa(lp468
g40
ag41
ag2
ag3
aa(lp469
g40
ag41
ag4
ag5
aa(lp470
g40
ag41
ag7
ag8
aa(lp471
g40
ag41
ag10
ag11
aa(lp472
g40
ag41
ag13
ag14
aa(lp473
g40
ag41
ag16
ag17
aa(lp474
g40
ag41
ag19
ag20
aa(lp475
g40
ag41
ag22
ag23
aa(lp476
g40
ag41
ag25
ag26
aa(lp477
g40
ag41
ag28
ag29
aa(lp478
g40
ag41
ag31
ag32
aa(lp479
g40
ag41
ag34
ag35
aa(lp480
g40
ag41
ag37
ag38
aa(lp481
g40
ag41
ag43
ag44
aa(lp482
g40
ag41
ag46
ag47
aa(lp483
g40
ag41
ag49
ag50
aa(lp484
g40
ag41
ag52
ag53
aa(lp485
g40
ag41
ag55
ag56
aa(lp486
g40
ag41
ag58
ag59
aa(lp487
g40
ag41
ag61
ag62
aa(lp488
g40
ag41
ag64
ag65
aa(lp489
g40
ag41
ag67
ag68
aa(lp490
g40
ag41
ag70
ag71
aa(lp491
g40
ag41
ag73
ag74
aa(lp492
g40
ag41
ag76
ag77
aa(lp493
g40
ag41
ag79
ag80
aa(lp494
g40
ag41
ag82
ag83
aa(lp495
g40
ag41
ag85
ag86
aa(lp496
g40
ag41
ag88
ag89
aa(lp497
g40
ag41
ag91
ag92
aa(lp498
g40
ag41
ag94
ag95
aa(lp499
g43
ag44
ag2
ag3
aa(lp500
g43
ag44
ag4
ag5
aa(lp501
g43
ag44
ag7
ag8
aa(lp502
g43
ag44
ag10
ag11
aa(lp503
g43
ag44
ag13
ag14
aa(lp504
g43
ag44
ag16
ag17
aa(lp505
g43
ag44
ag19
ag20
aa(lp506
g43
ag44
ag22
ag23
aa(lp507
g43
ag44
ag25
ag26
aa(lp508
g43
ag44
ag28
ag29
aa(lp509
g43
ag44
ag31
ag32
aa(lp510
g43
ag44
ag34
ag35
aa(lp511
g43
ag44
ag37
ag38
aa(lp512
g43
ag44
ag40
ag41
aa(lp513
g43
ag44
ag46
ag47
aa(lp514
g43
ag44
ag49
ag50
aa(lp515
g43
ag44
ag52
ag53
aa(lp516
g43
ag44
ag55
ag56
aa(lp517
g43
ag44
ag58
ag59
aa(lp518
g43
ag44
ag61
ag62
aa(lp519
g43
ag44
ag64
ag65
aa(lp520
g43
ag44
ag67
ag68
aa(lp521
g43
ag44
ag70
ag71
aa(lp522
g43
ag44
ag73
ag74
aa(lp523
g43
ag44
ag76
ag77
aa(lp524
g43
ag44
ag79
ag80
aa(lp525
g43
ag44
ag82
ag83
aa(lp526
g43
ag44
ag85
ag86
aa(lp527
g43
ag44
ag88
ag89
aa(lp528
g43
ag44
ag91
ag92
aa(lp529
g43
ag44
ag94
ag95
aa(lp530
g46
ag47
ag2
ag3
aa(lp531
g46
ag47
ag4
ag5
aa(lp532
g46
ag47
ag7
ag8
aa(lp533
g46
ag47
ag10
ag11
aa(lp534
g46
ag47
ag13
ag14
aa(lp535
g46
ag47
ag16
ag17
aa(lp536
g46
ag47
ag19
ag20
aa(lp537
g46
ag47
ag22
ag23
aa(lp538
g46
ag47
ag25
ag26
aa(lp539
g46
ag47
ag28
ag29
aa(lp540
g46
ag47
ag31
ag32
aa(lp541
g46
ag47
ag34
ag35
aa(lp542
g46
ag47
ag37
ag38
aa(lp543
g46
ag47
ag40
ag41
aa(lp544
g46
ag47
ag43
ag44
aa(lp545
g46
ag47
ag49
ag50
aa(lp546
g46
ag47
ag52
ag53
aa(lp547
g46
ag47
ag55
ag56
aa(lp548
g46
ag47
ag58
ag59
aa(lp549
g46
ag47
ag61
ag62
aa(lp550
g46
ag47
ag64
ag65
aa(lp551
g46
ag47
ag67
ag68
aa(lp552
g46
ag47
ag70
ag71
aa(lp553
g46
ag47
ag73
ag74
aa(lp554
g46
ag47
ag76
ag77
aa(lp555
g46
ag47
ag79
ag80
aa(lp556
g46
ag47
ag82
ag83
aa(lp557
g46
ag47
ag85
ag86
aa(lp558
g46
ag47
ag88
ag89
aa(lp559
g46
ag47
ag91
ag92
aa(lp560
g46
ag47
ag94
ag95
aa(lp561
g49
ag50
ag2
ag3
aa(lp562
g49
ag50
ag4
ag5
aa(lp563
g49
ag50
ag7
ag8
aa(lp564
g49
ag50
ag10
ag11
aa(lp565
g49
ag50
ag13
ag14
aa(lp566
g49
ag50
ag16
ag17
aa(lp567
g49
ag50
ag19
ag20
aa(lp568
g49
ag50
ag22
ag23
aa(lp569
g49
ag50
ag25
ag26
aa(lp570
g49
ag50
ag28
ag29
aa(lp571
g49
ag50
ag31
ag32
aa(lp572
g49
ag50
ag34
ag35
aa(lp573
g49
ag50
ag37
ag38
aa(lp574
g49
ag50
ag40
ag41
aa(lp575
g49
ag50
ag43
ag44
aa(lp576
g49
ag50
ag46
ag47
aa(lp577
g49
ag50
ag52
ag53
aa(lp578
g49
ag50
ag55
ag56
aa(lp579
g49
ag50
ag58
ag59
aa(lp580
g49
ag50
ag61
ag62
aa(lp581
g49
ag50
ag64
ag65
aa(lp582
g49
ag50
ag67
ag68
aa(lp583
g49
ag50
ag70
ag71
aa(lp584
g49
ag50
ag73
ag74
aa(lp585
g49
ag50
ag76
ag77
aa(lp586
g49
ag50
ag79
ag80
aa(lp587
g49
ag50
ag82
ag83
aa(lp588
g49
ag50
ag85
ag86
aa(lp589
g49
ag50
ag88
ag89
aa(lp590
g49
ag50
ag91
ag92
aa(lp591
g49
ag50
ag94
ag95
aa(lp592
g52
ag53
ag2
ag3
aa(lp593
g52
ag53
ag4
ag5
aa(lp594
g52
ag53
ag7
ag8
aa(lp595
g52
ag53
ag10
ag11
aa(lp596
g52
ag53
ag13
ag14
aa(lp597
g52
ag53
ag16
ag17
aa(lp598
g52
ag53
ag19
ag20
aa(lp599
g52
ag53
ag22
ag23
aa(lp600
g52
ag53
ag25
ag26
aa(lp601
g52
ag53
ag28
ag29
aa(lp602
g52
ag53
ag31
ag32
aa(lp603
g52
ag53
ag34
ag35
aa(lp604
g52
ag53
ag37
ag38
aa(lp605
g52
ag53
ag40
ag41
aa(lp606
g52
ag53
ag43
ag44
aa(lp607
g52
ag53
ag46
ag47
aa(lp608
g52
ag53
ag49
ag50
aa(lp609
g52
ag53
ag55
ag56
aa(lp610
g52
ag53
ag58
ag59
aa(lp611
g52
ag53
ag61
ag62
aa(lp612
g52
ag53
ag64
ag65
aa(lp613
g52
ag53
ag67
ag68
aa(lp614
g52
ag53
ag70
ag71
aa(lp615
g52
ag53
ag73
ag74
aa(lp616
g52
ag53
ag76
ag77
aa(lp617
g52
ag53
ag79
ag80
aa(lp618
g52
ag53
ag82
ag83
aa(lp619
g52
ag53
ag85
ag86
aa(lp620
g52
ag53
ag88
ag89
aa(lp621
g52
ag53
ag91
ag92
aa(lp622
g52
ag53
ag94
ag95
aa(lp623
g55
ag56
ag2
ag3
aa(lp624
g55
ag56
ag4
ag5
aa(lp625
g55
ag56
ag7
ag8
aa(lp626
g55
ag56
ag10
ag11
aa(lp627
g55
ag56
ag13
ag14
aa(lp628
g55
ag56
ag16
ag17
aa(lp629
g55
ag56
ag19
ag20
aa(lp630
g55
ag56
ag22
ag23
aa(lp631
g55
ag56
ag25
ag26
aa(lp632
g55
ag56
ag28
ag29
aa(lp633
g55
ag56
ag31
ag32
aa(lp634
g55
ag56
ag34
ag35
aa(lp635
g55
ag56
ag37
ag38
aa(lp636
g55
ag56
ag40
ag41
aa(lp637
g55
ag56
ag43
ag44
aa(lp638
g55
ag56
ag46
ag47
aa(lp639
g55
ag56
ag49
ag50
aa(lp640
g55
ag56
ag52
ag53
aa(lp641
g55
ag56
ag58
ag59
aa(lp642
g55
ag56
ag61
ag62
aa(lp643
g55
ag56
ag64
ag65
aa(lp644
g55
ag56
ag67
ag68
aa(lp645
g55
ag56
ag70
ag71
aa(lp646
g55
ag56
ag73
ag74
aa(lp647
g55
ag56
ag76
ag77
aa(lp648
g55
ag56
ag79
ag80
aa(lp649
g55
ag56
ag82
ag83
aa(lp650
g55
ag56
ag85
ag86
aa(lp651
g55
ag56
ag88
ag89
aa(lp652
g55
ag56
ag91
ag92
aa(lp653
g55
ag56
ag94
ag95
aa(lp654
g58
ag59
ag2
ag3
aa(lp655
g58
ag59
ag4
ag5
aa(lp656
g58
ag59
ag7
ag8
aa(lp657
g58
ag59
ag10
ag11
aa(lp658
g58
ag59
ag13
ag14
aa(lp659
g58
ag59
ag16
ag17
aa(lp660
g58
ag59
ag19
ag20
aa(lp661
g58
ag59
ag22
ag23
aa(lp662
g58
ag59
ag25
ag26
aa(lp663
g58
ag59
ag28
ag29
aa(lp664
g58
ag59
ag31
ag32
aa(lp665
g58
ag59
ag34
ag35
aa(lp666
g58
ag59
ag37
ag38
aa(lp667
g58
ag59
ag40
ag41
aa(lp668
g58
ag59
ag43
ag44
aa(lp669
g58
ag59
ag46
ag47
aa(lp670
g58
ag59
ag49
ag50
aa(lp671
g58
ag59
ag52
ag53
aa(lp672
g58
ag59
ag55
ag56
aa(lp673
g58
ag59
ag61
ag62
aa(lp674
g58
ag59
ag64
ag65
aa(lp675
g58
ag59
ag67
ag68
aa(lp676
g58
ag59
ag70
ag71
aa(lp677
g58
ag59
ag73
ag74
aa(lp678
g58
ag59
ag76
ag77
aa(lp679
g58
ag59
ag79
ag80
aa(lp680
g58
ag59
ag82
ag83
aa(lp681
g58
ag59
ag85
ag86
aa(lp682
g58
ag59
ag88
ag89
aa(lp683
g58
ag59
ag91
ag92
aa(lp684
g58
ag59
ag94
ag95
aa(lp685
g61
ag62
ag2
ag3
aa(lp686
g61
ag62
ag4
ag5
aa(lp687
g61
ag62
ag7
ag8
aa(lp688
g61
ag62
ag10
ag11
aa(lp689
g61
ag62
ag13
ag14
aa(lp690
g61
ag62
ag16
ag17
aa(lp691
g61
ag62
ag19
ag20
aa(lp692
g61
ag62
ag22
ag23
aa(lp693
g61
ag62
ag25
ag26
aa(lp694
g61
ag62
ag28
ag29
aa(lp695
g61
ag62
ag31
ag32
aa(lp696
g61
ag62
ag34
ag35
aa(lp697
g61
ag62
ag37
ag38
aa(lp698
g61
ag62
ag40
ag41
aa(lp699
g61
ag62
ag43
ag44
aa(lp700
g61
ag62
ag46
ag47
aa(lp701
g61
ag62
ag49
ag50
aa(lp702
g61
ag62
ag52
ag53
aa(lp703
g61
ag62
ag55
ag56
aa(lp704
g61
ag62
ag58
ag59
aa(lp705
g61
ag62
ag64
ag65
aa(lp706
g61
ag62
ag67
ag68
aa(lp707
g61
ag62
ag70
ag71
aa(lp708
g61
ag62
ag73
ag74
aa(lp709
g61
ag62
ag76
ag77
aa(lp710
g61
ag62
ag79
ag80
aa(lp711
g61
ag62
ag82
ag83
aa(lp712
g61
ag62
ag85
ag86
aa(lp713
g61
ag62
ag88
ag89
aa(lp714
g61
ag62
ag91
ag92
aa(lp715
g61
ag62
ag94
ag95
aa(lp716
g64
ag65
ag2
ag3
aa(lp717
g64
ag65
ag4
ag5
aa(lp718
g64
ag65
ag7
ag8
aa(lp719
g64
ag65
ag10
ag11
aa(lp720
g64
ag65
ag13
ag14
aa(lp721
g64
ag65
ag16
ag17
aa(lp722
g64
ag65
ag19
ag20
aa(lp723
g64
ag65
ag22
ag23
aa(lp724
g64
ag65
ag25
ag26
aa(lp725
g64
ag65
ag28
ag29
aa(lp726
g64
ag65
ag31
ag32
aa(lp727
g64
ag65
ag34
ag35
aa(lp728
g64
ag65
ag37
ag38
aa(lp729
g64
ag65
ag40
ag41
aa(lp730
g64
ag65
ag43
ag44
aa(lp731
g64
ag65
ag46
ag47
aa(lp732
g64
ag65
ag49
ag50
aa(lp733
g64
ag65
ag52
ag53
aa(lp734
g64
ag65
ag55
ag56
aa(lp735
g64
ag65
ag58
ag59
aa(lp736
g64
ag65
ag61
ag62
aa(lp737
g64
ag65
ag67
ag68
aa(lp738
g64
ag65
ag70
ag71
aa(lp739
g64
ag65
ag73
ag74
aa(lp740
g64
ag65
ag76
ag77
aa(lp741
g64
ag65
ag79
ag80
aa(lp742
g64
ag65
ag82
ag83
aa(lp743
g64
ag65
ag85
ag86
aa(lp744
g64
ag65
ag88
ag89
aa(lp745
g64
ag65
ag91
ag92
aa(lp746
g64
ag65
ag94
ag95
aa(lp747
g67
ag68
ag2
ag3
aa(lp748
g67
ag68
ag4
ag5
aa(lp749
g67
ag68
ag7
ag8
aa(lp750
g67
ag68
ag10
ag11
aa(lp751
g67
ag68
ag13
ag14
aa(lp752
g67
ag68
ag16
ag17
aa(lp753
g67
ag68
ag19
ag20
aa(lp754
g67
ag68
ag22
ag23
aa(lp755
g67
ag68
ag25
ag26
aa(lp756
g67
ag68
ag28
ag29
aa(lp757
g67
ag68
ag31
ag32
aa(lp758
g67
ag68
ag34
ag35
aa(lp759
g67
ag68
ag37
ag38
aa(lp760
g67
ag68
ag40
ag41
aa(lp761
g67
ag68
ag43
ag44
aa(lp762
g67
ag68
ag46
ag47
aa(lp763
g67
ag68
ag49
ag50
aa(lp764
g67
ag68
ag52
ag53
aa(lp765
g67
ag68
ag55
ag56
aa(lp766
g67
ag68
ag58
ag59
aa(lp767
g67
ag68
ag61
ag62
aa(lp768
g67
ag68
ag64
ag65
aa(lp769
g67
ag68
ag70
ag71
aa(lp770
g67
ag68
ag73
ag74
aa(lp771
g67
ag68
ag76
ag77
aa(lp772
g67
ag68
ag79
ag80
aa(lp773
g67
ag68
ag82
ag83
aa(lp774
g67
ag68
ag85
ag86
aa(lp775
g67
ag68
ag88
ag89
aa(lp776
g67
ag68
ag91
ag92
aa(lp777
g67
ag68
ag94
ag95
aa(lp778
g70
ag71
ag2
ag3
aa(lp779
g70
ag71
ag4
ag5
aa(lp780
g70
ag71
ag7
ag8
aa(lp781
g70
ag71
ag10
ag11
aa(lp782
g70
ag71
ag13
ag14
aa(lp783
g70
ag71
ag16
ag17
aa(lp784
g70
ag71
ag19
ag20
aa(lp785
g70
ag71
ag22
ag23
aa(lp786
g70
ag71
ag25
ag26
aa(lp787
g70
ag71
ag28
ag29
aa(lp788
g70
ag71
ag31
ag32
aa(lp789
g70
ag71
ag34
ag35
aa(lp790
g70
ag71
ag37
ag38
aa(lp791
g70
ag71
ag40
ag41
aa(lp792
g70
ag71
ag43
ag44
aa(lp793
g70
ag71
ag46
ag47
aa(lp794
g70
ag71
ag49
ag50
aa(lp795
g70
ag71
ag52
ag53
aa(lp796
g70
ag71
ag55
ag56
aa(lp797
g70
ag71
ag58
ag59
aa(lp798
g70
ag71
ag61
ag62
aa(lp799
g70
ag71
ag64
ag65
aa(lp800
g70
ag71
ag67
ag68
aa(lp801
g70
ag71
ag73
ag74
aa(lp802
g70
ag71
ag76
ag77
aa(lp803
g70
ag71
ag79
ag80
aa(lp804
g70
ag71
ag82
ag83
aa(lp805
g70
ag71
ag85
ag86
aa(lp806
g70
ag71
ag88
ag89
aa(lp807
g70
ag71
ag91
ag92
aa(lp808
g70
ag71
ag94
ag95
aa(lp809
g73
ag74
ag2
ag3
aa(lp810
g73
ag74
ag4
ag5
aa(lp811
g73
ag74
ag7
ag8
aa(lp812
g73
ag74
ag10
ag11
aa(lp813
g73
ag74
ag13
ag14
aa(lp814
g73
ag74
ag16
ag17
aa(lp815
g73
ag74
ag19
ag20
aa(lp816
g73
ag74
ag22
ag23
aa(lp817
g73
ag74
ag25
ag26
aa(lp818
g73
ag74
ag28
ag29
aa(lp819
g73
ag74
ag31
ag32
aa(lp820
g73
ag74
ag34
ag35
aa(lp821
g73
ag74
ag37
ag38
aa(lp822
g73
ag74
ag40
ag41
aa(lp823
g73
ag74
ag43
ag44
aa(lp824
g73
ag74
ag46
ag47
aa(lp825
g73
ag74
ag49
ag50
aa(lp826
g73
ag74
ag52
ag53
aa(lp827
g73
ag74
ag55
ag56
aa(lp828
g73
ag74
ag58
ag59
aa(lp829
g73
ag74
ag61
ag62
aa(lp830
g73
ag74
ag64
ag65
aa(lp831
g73
ag74
ag67
ag68
aa(lp832
g73
ag74
ag70
ag71
aa(lp833
g73
ag74
ag76
ag77
aa(lp834
g73
ag74
ag79
ag80
aa(lp835
g73
ag74
ag82
ag83
aa(lp836
g73
ag74
ag85
ag86
aa(lp837
g73
ag74
ag88
ag89
aa(lp838
g73
ag74
ag91
ag92
aa(lp839
g73
ag74
ag94
ag95
aa(lp840
g76
ag77
ag2
ag3
aa(lp841
g76
ag77
ag4
ag5
aa(lp842
g76
ag77
ag7
ag8
aa(lp843
g76
ag77
ag10
ag11
aa(lp844
g76
ag77
ag13
ag14
aa(lp845
g76
ag77
ag16
ag17
aa(lp846
g76
ag77
ag19
ag20
aa(lp847
g76
ag77
ag22
ag23
aa(lp848
g76
ag77
ag25
ag26
aa(lp849
g76
ag77
ag28
ag29
aa(lp850
g76
ag77
ag31
ag32
aa(lp851
g76
ag77
ag34
ag35
aa(lp852
g76
ag77
ag37
ag38
aa(lp853
g76
ag77
ag40
ag41
aa(lp854
g76
ag77
ag43
ag44
aa(lp855
g76
ag77
ag46
ag47
aa(lp856
g76
ag77
ag49
ag50
aa(lp857
g76
ag77
ag52
ag53
aa(lp858
g76
ag77
ag55
ag56
aa(lp859
g76
ag77
ag58
ag59
aa(lp860
g76
ag77
ag61
ag62
aa(lp861
g76
ag77
ag64
ag65
aa(lp862
g76
ag77
ag67
ag68
aa(lp863
g76
ag77
ag70
ag71
aa(lp864
g76
ag77
ag73
ag74
aa(lp865
g76
ag77
ag79
ag80
aa(lp866
g76
ag77
ag82
ag83
aa(lp867
g76
ag77
ag85
ag86
aa(lp868
g76
ag77
ag88
ag89
aa(lp869
g76
ag77
ag91
ag92
aa(lp870
g76
ag77
ag94
ag95
aa(lp871
g79
ag80
ag2
ag3
aa(lp872
g79
ag80
ag4
ag5
aa(lp873
g79
ag80
ag7
ag8
aa(lp874
g79
ag80
ag10
ag11
aa(lp875
g79
ag80
ag13
ag14
aa(lp876
g79
ag80
ag16
ag17
aa(lp877
g79
ag80
ag19
ag20
aa(lp878
g79
ag80
ag22
ag23
aa(lp879
g79
ag80
ag25
ag26
aa(lp880
g79
ag80
ag28
ag29
aa(lp881
g79
ag80
ag31
ag32
aa(lp882
g79
ag80
ag34
ag35
aa(lp883
g79
ag80
ag37
ag38
aa(lp884
g79
ag80
ag40
ag41
aa(lp885
g79
ag80
ag43
ag44
aa(lp886
g79
ag80
ag46
ag47
aa(lp887
g79
ag80
ag49
ag50
aa(lp888
g79
ag80
ag52
ag53
aa(lp889
g79
ag80
ag55
ag56
aa(lp890
g79
ag80
ag58
ag59
aa(lp891
g79
ag80
ag61
ag62
aa(lp892
g79
ag80
ag64
ag65
aa(lp893
g79
ag80
ag67
ag68
aa(lp894
g79
ag80
ag70
ag71
aa(lp895
g79
ag80
ag73
ag74
aa(lp896
g79
ag80
ag76
ag77
aa(lp897
g79
ag80
ag82
ag83
aa(lp898
g79
ag80
ag85
ag86
aa(lp899
g79
ag80
ag88
ag89
aa(lp900
g79
ag80
ag91
ag92
aa(lp901
g79
ag80
ag94
ag95
aa(lp902
g82
ag83
ag2
ag3
aa(lp903
g82
ag83
ag4
ag5
aa(lp904
g82
ag83
ag7
ag8
aa(lp905
g82
ag83
ag10
ag11
aa(lp906
g82
ag83
ag13
ag14
aa(lp907
g82
ag83
ag16
ag17
aa(lp908
g82
ag83
ag19
ag20
aa(lp909
g82
ag83
ag22
ag23
aa(lp910
g82
ag83
ag25
ag26
aa(lp911
g82
ag83
ag28
ag29
aa(lp912
g82
ag83
ag31
ag32
aa(lp913
g82
ag83
ag34
ag35
aa(lp914
g82
ag83
ag37
ag38
aa(lp915
g82
ag83
ag40
ag41
aa(lp916
g82
ag83
ag43
ag44
aa(lp917
g82
ag83
ag46
ag47
aa(lp918
g82
ag83
ag49
ag50
aa(lp919
g82
ag83
ag52
ag53
aa(lp920
g82
ag83
ag55
ag56
aa(lp921
g82
ag83
ag58
ag59
aa(lp922
g82
ag83
ag61
ag62
aa(lp923
g82
ag83
ag64
ag65
aa(lp924
g82
ag83
ag67
ag68
aa(lp925
g82
ag83
ag70
ag71
aa(lp926
g82
ag83
ag73
ag74
aa(lp927
g82
ag83
ag76
ag77
aa(lp928
g82
ag83
ag79
ag80
aa(lp929
g82
ag83
ag85
ag86
aa(lp930
g82
ag83
ag88
ag89
aa(lp931
g82
ag83
ag91
ag92
aa(lp932
g82
ag83
ag94
ag95
aa(lp933
g85
ag86
ag2
ag3
aa(lp934
g85
ag86
ag4
ag5
aa(lp935
g85
ag86
ag7
ag8
aa(lp936
g85
ag86
ag10
ag11
aa(lp937
g85
ag86
ag13
ag14
aa(lp938
g85
ag86
ag16
ag17
aa(lp939
g85
ag86
ag19
ag20
aa(lp940
g85
ag86
ag22
ag23
aa(lp941
g85
ag86
ag25
ag26
aa(lp942
g85
ag86
ag28
ag29
aa(lp943
g85
ag86
ag31
ag32
aa(lp944
g85
ag86
ag34
ag35
aa(lp945
g85
ag86
ag37
ag38
aa(lp946
g85
ag86
ag40
ag41
aa(lp947
g85
ag86
ag43
ag44
aa(lp948
g85
ag86
ag46
ag47
aa(lp949
g85
ag86
ag49
ag50
aa(lp950
g85
ag86
ag52
ag53
aa(lp951
g85
ag86
ag55
ag56
aa(lp952
g85
ag86
ag58
ag59
aa(lp953
g85
ag86
ag61
ag62
aa(lp954
g85
ag86
ag64
ag65
aa(lp955
g85
ag86
ag67
ag68
aa(lp956
g85
ag86
ag70
ag71
aa(lp957
g85
ag86
ag73
ag74
aa(lp958
g85
ag86
ag76
ag77
aa(lp959
g85
ag86
ag79
ag80
aa(lp960
g85
ag86
ag82
ag83
aa(lp961
g85
ag86
ag88
ag89
aa(lp962
g85
ag86
ag91
ag92
aa(lp963
g85
ag86
ag94
ag95
aa(lp964
g88
ag89
ag2
ag3
aa(lp965
g88
ag89
ag4
ag5
aa(lp966
g88
ag89
ag7
ag8
aa(lp967
g88
ag89
ag10
ag11
aa(lp968
g88
ag89
ag13
ag14
aa(lp969
g88
ag89
ag16
ag17
aa(lp970
g88
ag89
ag19
ag20
aa(lp971
g88
ag89
ag22
ag23
aa(lp972
g88
ag89
ag25
ag26
aa(lp973
g88
ag89
ag28
ag29
aa(lp974
g88
ag89
ag31
ag32
aa(lp975
g88
ag89
ag34
ag35
aa(lp976
g88
ag89
ag37
ag38
aa(lp977
g88
ag89
ag40
ag41
aa(lp978
g88
ag89
ag43
ag44
aa(lp979
g88
ag89
ag46
ag47
aa(lp980
g88
ag89
ag49
ag50
aa(lp981
g88
ag89
ag52
ag53
aa(lp982
g88
ag89
ag55
ag56
aa(lp983
g88
ag89
ag58
ag59
aa(lp984
g88
ag89
ag61
ag62
aa(lp985
g88
ag89
ag64
ag65
aa(lp986
g88
ag89
ag67
ag68
aa(lp987
g88
ag89
ag70
ag71
aa(lp988
g88
ag89
ag73
ag74
aa(lp989
g88
ag89
ag76
ag77
aa(lp990
g88
ag89
ag79
ag80
aa(lp991
g88
ag89
ag82
ag83
aa(lp992
g88
ag89
ag85
ag86
aa(lp993
g88
ag89
ag91
ag92
aa(lp994
g88
ag89
ag94
ag95
aa(lp995
g91
ag92
ag2
ag3
aa(lp996
g91
ag92
ag4
ag5
aa(lp997
g91
ag92
ag7
ag8
aa(lp998
g91
ag92
ag10
ag11
aa(lp999
g91
ag92
ag13
ag14
aa(lp1000
g91
ag92
ag16
ag17
aa(lp1001
g91
ag92
ag19
ag20
aa(lp1002
g91
ag92
ag22
ag23
aa(lp1003
g91
ag92
ag25
ag26
aa(lp1004
g91
ag92
ag28
ag29
aa(lp1005
g91
ag92
ag31
ag32
aa(lp1006
g91
ag92
ag34
ag35
aa(lp1007
g91
ag92
ag37
ag38
aa(lp1008
g91
ag92
ag40
ag41
aa(lp1009
g91
ag92
ag43
ag44
aa(lp1010
g91
ag92
ag46
ag47
aa(lp1011
g91
ag92
ag49
ag50
aa(lp1012
g91
ag92
ag52
ag53
aa(lp1013
g91
ag92
ag55
ag56
aa(lp1014
g91
ag92
ag58
ag59
aa(lp1015
g91
ag92
ag61
ag62
aa(lp1016
g91
ag92
ag64
ag65
aa(lp1017
g91
ag92
ag67
ag68
aa(lp1018
g91
ag92
ag70
ag71
aa(lp1019
g91
ag92
ag73
ag74
aa(lp1020
g91
ag92
ag76
ag77
aa(lp1021
g91
ag92
ag79
ag80
aa(lp1022
g91
ag92
ag82
ag83
aa(lp1023
g91
ag92
ag85
ag86
aa(lp1024
g91
ag92
ag88
ag89
aa(lp1025
g91
ag92
ag94
ag95
aa(lp1026
g94
ag95
ag2
ag3
aa(lp1027
g94
ag95
ag4
ag5
aa(lp1028
g94
ag95
ag7
ag8
aa(lp1029
g94
ag95
ag10
ag11
aa(lp1030
g94
ag95
ag13
ag14
aa(lp1031
g94
ag95
ag16
ag17
aa(lp1032
g94
ag95
ag19
ag20
aa(lp1033
g94
ag95
ag22
ag23
aa(lp1034
g94
ag95
ag25
ag26
aa(lp1035
g94
ag95
ag28
ag29
aa(lp1036
g94
ag95
ag31
ag32
aa(lp1037
g94
ag95
ag34
ag35
aa(lp1038
g94
ag95
ag37
ag38
aa(lp1039
g94
ag95
ag40
ag41
aa(lp1040
g94
ag95
ag43
ag44
aa(lp1041
g94
ag95
ag46
ag47
aa(lp1042
g94
ag95
ag49
ag50
aa(lp1043
g94
ag95
ag52
ag53
aa(lp1044
g94
ag95
ag55
ag56
aa(lp1045
g94
ag95
ag58
ag59
aa(lp1046
g94
ag95
ag61
ag62
aa(lp1047
g94
ag95
ag64
ag65
aa(lp1048
g94
ag95
ag67
ag68
aa(lp1049
g94
ag95
ag70
ag71
aa(lp1050
g94
ag95
ag73
ag74
aa(lp1051
g94
ag95
ag76
ag77
aa(lp1052
g94
ag95
ag79
ag80
aa(lp1053
g94
ag95
ag82
ag83
aa(lp1054
g94
ag95
ag85
ag86
aa(lp1055
g94
ag95
ag88
ag89
aa(lp1056
g94
ag95
ag91
ag92
aa.