(lp0
(lp1
S'drop_NN'
p2
aS'fall_NN'
p3
aS'cut_VBN'
p4
aS'bleed_VB'
p5
aa(lp6
S'drop_NN'
p7
aS'fall_NN'
p8
aS'nourish_VB'
p9
aS'grow_VB'
p10
aa(lp11
S'drop_NN'
p12
aS'fall_NN'
p13
aS'crush_NN'
p14
aS'break_VB'
p15
aa(lp16
S'drop_NN'
p17
aS'fall_NN'
p18
aS'kill_VB'
p19
aS'die_VB'
p20
aa(lp21
S'drop_NN'
p22
aS'fall_NN'
p23
aS'ignite_VB'
p24
aS'burn_VB'
p25
aa(lp26
S'drop_NN'
p27
aS'fall_NN'
p28
aS'trip_NN'
p29
aS'stumble_VB'
p30
aa(lp31
S'drop_NN'
p32
aS'fall_NN'
p33
aS'watch_VB'
p34
aS'see_VB'
p35
aa(lp36
S'drop_NN'
p37
aS'fall_NN'
p38
aS'listen_VB'
p39
aS'hear_VB'
p40
aa(lp41
S'drop_NN'
p42
aS'fall_NN'
p43
aS'pursue_VB'
p44
aS'catch_VB'
p45
aa(lp46
S'drop_NN'
p47
aS'fall_NN'
p48
aS'aspire_VB'
p49
aS'attain_VB'
p50
aa(lp51
S'drop_NN'
p52
aS'fall_NN'
p53
aS'fear_NN'
p54
aS'flee_VB'
p55
aa(lp56
S'drop_NN'
p57
aS'fall_NN'
p58
aS'travel_NN'
p59
aS'arrive_VB'
p60
aa(lp61
S'drop_NN'
p62
aS'fall_NN'
p63
aS'wash_NN'
p64
aS'clean_JJ'
p65
aa(lp66
S'drop_NN'
p67
aS'fall_NN'
p68
aS'throw_VB'
p69
aS'flies_VBZ'
p70
aa(lp71
S'cut_VBN'
p72
aS'bleed_VB'
p73
aS'drop_NN'
p74
aS'fall_NN'
p75
aa(lp76
S'cut_VBN'
p77
aS'bleed_VB'
p78
aS'nourish_VB'
p79
aS'grow_VB'
p80
aa(lp81
S'cut_VBN'
p82
aS'bleed_VB'
p83
aS'crush_NN'
p84
aS'break_VB'
p85
aa(lp86
S'cut_VBN'
p87
aS'bleed_VB'
p88
aS'kill_VB'
p89
aS'die_VB'
p90
aa(lp91
S'cut_VBN'
p92
aS'bleed_VB'
p93
aS'ignite_VB'
p94
aS'burn_VB'
p95
aa(lp96
S'cut_VBN'
p97
aS'bleed_VB'
p98
aS'trip_NN'
p99
aS'stumble_VB'
p100
aa(lp101
S'cut_VBN'
p102
aS'bleed_VB'
p103
aS'watch_VB'
p104
aS'see_VB'
p105
aa(lp106
S'cut_VBN'
p107
aS'bleed_VB'
p108
aS'listen_VB'
p109
aS'hear_VB'
p110
aa(lp111
S'cut_VBN'
p112
aS'bleed_VB'
p113
aS'pursue_VB'
p114
aS'catch_VB'
p115
aa(lp116
S'cut_VBN'
p117
aS'bleed_VB'
p118
aS'aspire_VB'
p119
aS'attain_VB'
p120
aa(lp121
S'cut_VBN'
p122
aS'bleed_VB'
p123
aS'fear_NN'
p124
aS'flee_VB'
p125
aa(lp126
S'cut_VBN'
p127
aS'bleed_VB'
p128
aS'travel_NN'
p129
aS'arrive_VB'
p130
aa(lp131
S'cut_VBN'
p132
aS'bleed_VB'
p133
aS'wash_NN'
p134
aS'clean_JJ'
p135
aa(lp136
S'cut_VBN'
p137
aS'bleed_VB'
p138
aS'throw_VB'
p139
aS'flies_VBZ'
p140
aa(lp141
S'nourish_VB'
p142
aS'grow_VB'
p143
aS'drop_NN'
p144
aS'fall_NN'
p145
aa(lp146
S'nourish_VB'
p147
aS'grow_VB'
p148
aS'cut_VBN'
p149
aS'bleed_VB'
p150
aa(lp151
S'nourish_VB'
p152
aS'grow_VB'
p153
aS'crush_NN'
p154
aS'break_VB'
p155
aa(lp156
S'nourish_VB'
p157
aS'grow_VB'
p158
aS'kill_VB'
p159
aS'die_VB'
p160
aa(lp161
S'nourish_VB'
p162
aS'grow_VB'
p163
aS'ignite_VB'
p164
aS'burn_VB'
p165
aa(lp166
S'nourish_VB'
p167
aS'grow_VB'
p168
aS'trip_NN'
p169
aS'stumble_VB'
p170
aa(lp171
S'nourish_VB'
p172
aS'grow_VB'
p173
aS'watch_VB'
p174
aS'see_VB'
p175
aa(lp176
S'nourish_VB'
p177
aS'grow_VB'
p178
aS'listen_VB'
p179
aS'hear_VB'
p180
aa(lp181
S'nourish_VB'
p182
aS'grow_VB'
p183
aS'pursue_VB'
p184
aS'catch_VB'
p185
aa(lp186
S'nourish_VB'
p187
aS'grow_VB'
p188
aS'aspire_VB'
p189
aS'attain_VB'
p190
aa(lp191
S'nourish_VB'
p192
aS'grow_VB'
p193
aS'fear_NN'
p194
aS'flee_VB'
p195
aa(lp196
S'nourish_VB'
p197
aS'grow_VB'
p198
aS'travel_NN'
p199
aS'arrive_VB'
p200
aa(lp201
S'nourish_VB'
p202
aS'grow_VB'
p203
aS'wash_NN'
p204
aS'clean_JJ'
p205
aa(lp206
S'nourish_VB'
p207
aS'grow_VB'
p208
aS'throw_VB'
p209
aS'flies_VBZ'
p210
aa(lp211
S'crush_NN'
p212
aS'break_VB'
p213
aS'drop_NN'
p214
aS'fall_NN'
p215
aa(lp216
S'crush_NN'
p217
aS'break_VB'
p218
aS'cut_VBN'
p219
aS'bleed_VB'
p220
aa(lp221
S'crush_NN'
p222
aS'break_VB'
p223
aS'nourish_VB'
p224
aS'grow_VB'
p225
aa(lp226
S'crush_NN'
p227
aS'break_VB'
p228
aS'kill_VB'
p229
aS'die_VB'
p230
aa(lp231
S'crush_NN'
p232
aS'break_VB'
p233
aS'ignite_VB'
p234
aS'burn_VB'
p235
aa(lp236
S'crush_NN'
p237
aS'break_VB'
p238
aS'trip_NN'
p239
aS'stumble_VB'
p240
aa(lp241
S'crush_NN'
p242
aS'break_VB'
p243
aS'watch_VB'
p244
aS'see_VB'
p245
aa(lp246
S'crush_NN'
p247
aS'break_VB'
p248
aS'listen_VB'
p249
aS'hear_VB'
p250
aa(lp251
S'crush_NN'
p252
aS'break_VB'
p253
aS'pursue_VB'
p254
aS'catch_VB'
p255
aa(lp256
S'crush_NN'
p257
aS'break_VB'
p258
aS'aspire_VB'
p259
aS'attain_VB'
p260
aa(lp261
S'crush_NN'
p262
aS'break_VB'
p263
aS'fear_NN'
p264
aS'flee_VB'
p265
aa(lp266
S'crush_NN'
p267
aS'break_VB'
p268
aS'travel_NN'
p269
aS'arrive_VB'
p270
aa(lp271
S'crush_NN'
p272
aS'break_VB'
p273
aS'wash_NN'
p274
aS'clean_JJ'
p275
aa(lp276
S'crush_NN'
p277
aS'break_VB'
p278
aS'throw_VB'
p279
aS'flies_VBZ'
p280
aa(lp281
S'kill_VB'
p282
aS'die_VB'
p283
aS'drop_NN'
p284
aS'fall_NN'
p285
aa(lp286
S'kill_VB'
p287
aS'die_VB'
p288
aS'cut_VBN'
p289
aS'bleed_VB'
p290
aa(lp291
S'kill_VB'
p292
aS'die_VB'
p293
aS'nourish_VB'
p294
aS'grow_VB'
p295
aa(lp296
S'kill_VB'
p297
aS'die_VB'
p298
aS'crush_NN'
p299
aS'break_VB'
p300
aa(lp301
S'kill_VB'
p302
aS'die_VB'
p303
aS'ignite_VB'
p304
aS'burn_VB'
p305
aa(lp306
S'kill_VB'
p307
aS'die_VB'
p308
aS'trip_NN'
p309
aS'stumble_VB'
p310
aa(lp311
S'kill_VB'
p312
aS'die_VB'
p313
aS'watch_VB'
p314
aS'see_VB'
p315
aa(lp316
S'kill_VB'
p317
aS'die_VB'
p318
aS'listen_VB'
p319
aS'hear_VB'
p320
aa(lp321
S'kill_VB'
p322
aS'die_VB'
p323
aS'pursue_VB'
p324
aS'catch_VB'
p325
aa(lp326
S'kill_VB'
p327
aS'die_VB'
p328
aS'aspire_VB'
p329
aS'attain_VB'
p330
aa(lp331
S'kill_VB'
p332
aS'die_VB'
p333
aS'fear_NN'
p334
aS'flee_VB'
p335
aa(lp336
S'kill_VB'
p337
aS'die_VB'
p338
aS'travel_NN'
p339
aS'arrive_VB'
p340
aa(lp341
S'kill_VB'
p342
aS'die_VB'
p343
aS'wash_NN'
p344
aS'clean_JJ'
p345
aa(lp346
S'kill_VB'
p347
aS'die_VB'
p348
aS'throw_VB'
p349
aS'flies_VBZ'
p350
aa(lp351
S'ignite_VB'
p352
aS'burn_VB'
p353
aS'drop_NN'
p354
aS'fall_NN'
p355
aa(lp356
S'ignite_VB'
p357
aS'burn_VB'
p358
aS'cut_VBN'
p359
aS'bleed_VB'
p360
aa(lp361
S'ignite_VB'
p362
aS'burn_VB'
p363
aS'nourish_VB'
p364
aS'grow_VB'
p365
aa(lp366
S'ignite_VB'
p367
aS'burn_VB'
p368
aS'crush_NN'
p369
aS'break_VB'
p370
aa(lp371
S'ignite_VB'
p372
aS'burn_VB'
p373
aS'kill_VB'
p374
aS'die_VB'
p375
aa(lp376
S'ignite_VB'
p377
aS'burn_VB'
p378
aS'trip_NN'
p379
aS'stumble_VB'
p380
aa(lp381
S'ignite_VB'
p382
aS'burn_VB'
p383
aS'watch_VB'
p384
aS'see_VB'
p385
aa(lp386
S'ignite_VB'
p387
aS'burn_VB'
p388
aS'listen_VB'
p389
aS'hear_VB'
p390
aa(lp391
S'ignite_VB'
p392
aS'burn_VB'
p393
aS'pursue_VB'
p394
aS'catch_VB'
p395
aa(lp396
S'ignite_VB'
p397
aS'burn_VB'
p398
aS'aspire_VB'
p399
aS'attain_VB'
p400
aa(lp401
S'ignite_VB'
p402
aS'burn_VB'
p403
aS'fear_NN'
p404
aS'flee_VB'
p405
aa(lp406
S'ignite_VB'
p407
aS'burn_VB'
p408
aS'travel_NN'
p409
aS'arrive_VB'
p410
aa(lp411
S'ignite_VB'
p412
aS'burn_VB'
p413
aS'wash_NN'
p414
aS'clean_JJ'
p415
aa(lp416
S'ignite_VB'
p417
aS'burn_VB'
p418
aS'throw_VB'
p419
aS'flies_VBZ'
p420
aa(lp421
S'trip_NN'
p422
aS'stumble_VB'
p423
aS'drop_NN'
p424
aS'fall_NN'
p425
aa(lp426
S'trip_NN'
p427
aS'stumble_VB'
p428
aS'cut_VBN'
p429
aS'bleed_VB'
p430
aa(lp431
S'trip_NN'
p432
aS'stumble_VB'
p433
aS'nourish_VB'
p434
aS'grow_VB'
p435
aa(lp436
S'trip_NN'
p437
aS'stumble_VB'
p438
aS'crush_NN'
p439
aS'break_VB'
p440
aa(lp441
S'trip_NN'
p442
aS'stumble_VB'
p443
aS'kill_VB'
p444
aS'die_VB'
p445
aa(lp446
S'trip_NN'
p447
aS'stumble_VB'
p448
aS'ignite_VB'
p449
aS'burn_VB'
p450
aa(lp451
S'trip_NN'
p452
aS'stumble_VB'
p453
aS'watch_VB'
p454
aS'see_VB'
p455
aa(lp456
S'trip_NN'
p457
aS'stumble_VB'
p458
aS'listen_VB'
p459
aS'hear_VB'
p460
aa(lp461
S'trip_NN'
p462
aS'stumble_VB'
p463
aS'pursue_VB'
p464
aS'catch_VB'
p465
aa(lp466
S'trip_NN'
p467
aS'stumble_VB'
p468
aS'aspire_VB'
p469
aS'attain_VB'
p470
aa(lp471
S'trip_NN'
p472
aS'stumble_VB'
p473
aS'fear_NN'
p474
aS'flee_VB'
p475
aa(lp476
S'trip_NN'
p477
aS'stumble_VB'
p478
aS'travel_NN'
p479
aS'arrive_VB'
p480
aa(lp481
S'trip_NN'
p482
aS'stumble_VB'
p483
aS'wash_NN'
p484
aS'clean_JJ'
p485
aa(lp486
S'trip_NN'
p487
aS'stumble_VB'
p488
aS'throw_VB'
p489
aS'flies_VBZ'
p490
aa(lp491
S'watch_VB'
p492
aS'see_VB'
p493
aS'drop_NN'
p494
aS'fall_NN'
p495
aa(lp496
S'watch_VB'
p497
aS'see_VB'
p498
aS'cut_VBN'
p499
aS'bleed_VB'
p500
aa(lp501
S'watch_VB'
p502
aS'see_VB'
p503
aS'nourish_VB'
p504
aS'grow_VB'
p505
aa(lp506
S'watch_VB'
p507
aS'see_VB'
p508
aS'crush_NN'
p509
aS'break_VB'
p510
aa(lp511
S'watch_VB'
p512
aS'see_VB'
p513
aS'kill_VB'
p514
aS'die_VB'
p515
aa(lp516
S'watch_VB'
p517
aS'see_VB'
p518
aS'ignite_VB'
p519
aS'burn_VB'
p520
aa(lp521
S'watch_VB'
p522
aS'see_VB'
p523
aS'trip_NN'
p524
aS'stumble_VB'
p525
aa(lp526
S'watch_VB'
p527
aS'see_VB'
p528
aS'listen_VB'
p529
aS'hear_VB'
p530
aa(lp531
S'watch_VB'
p532
aS'see_VB'
p533
aS'pursue_VB'
p534
aS'catch_VB'
p535
aa(lp536
S'watch_VB'
p537
aS'see_VB'
p538
aS'aspire_VB'
p539
aS'attain_VB'
p540
aa(lp541
S'watch_VB'
p542
aS'see_VB'
p543
aS'fear_NN'
p544
aS'flee_VB'
p545
aa(lp546
S'watch_VB'
p547
aS'see_VB'
p548
aS'travel_NN'
p549
aS'arrive_VB'
p550
aa(lp551
S'watch_VB'
p552
aS'see_VB'
p553
aS'wash_NN'
p554
aS'clean_JJ'
p555
aa(lp556
S'watch_VB'
p557
aS'see_VB'
p558
aS'throw_VB'
p559
aS'flies_VBZ'
p560
aa(lp561
S'listen_VB'
p562
aS'hear_VB'
p563
aS'drop_NN'
p564
aS'fall_NN'
p565
aa(lp566
S'listen_VB'
p567
aS'hear_VB'
p568
aS'cut_VBN'
p569
aS'bleed_VB'
p570
aa(lp571
S'listen_VB'
p572
aS'hear_VB'
p573
aS'nourish_VB'
p574
aS'grow_VB'
p575
aa(lp576
S'listen_VB'
p577
aS'hear_VB'
p578
aS'crush_NN'
p579
aS'break_VB'
p580
aa(lp581
S'listen_VB'
p582
aS'hear_VB'
p583
aS'kill_VB'
p584
aS'die_VB'
p585
aa(lp586
S'listen_VB'
p587
aS'hear_VB'
p588
aS'ignite_VB'
p589
aS'burn_VB'
p590
aa(lp591
S'listen_VB'
p592
aS'hear_VB'
p593
aS'trip_NN'
p594
aS'stumble_VB'
p595
aa(lp596
S'listen_VB'
p597
aS'hear_VB'
p598
aS'watch_VB'
p599
aS'see_VB'
p600
aa(lp601
S'listen_VB'
p602
aS'hear_VB'
p603
aS'pursue_VB'
p604
aS'catch_VB'
p605
aa(lp606
S'listen_VB'
p607
aS'hear_VB'
p608
aS'aspire_VB'
p609
aS'attain_VB'
p610
aa(lp611
S'listen_VB'
p612
aS'hear_VB'
p613
aS'fear_NN'
p614
aS'flee_VB'
p615
aa(lp616
S'listen_VB'
p617
aS'hear_VB'
p618
aS'travel_NN'
p619
aS'arrive_VB'
p620
aa(lp621
S'listen_VB'
p622
aS'hear_VB'
p623
aS'wash_NN'
p624
aS'clean_JJ'
p625
aa(lp626
S'listen_VB'
p627
aS'hear_VB'
p628
aS'throw_VB'
p629
aS'flies_VBZ'
p630
aa(lp631
S'pursue_VB'
p632
aS'catch_VB'
p633
aS'drop_NN'
p634
aS'fall_NN'
p635
aa(lp636
S'pursue_VB'
p637
aS'catch_VB'
p638
aS'cut_VBN'
p639
aS'bleed_VB'
p640
aa(lp641
S'pursue_VB'
p642
aS'catch_VB'
p643
aS'nourish_VB'
p644
aS'grow_VB'
p645
aa(lp646
S'pursue_VB'
p647
aS'catch_VB'
p648
aS'crush_NN'
p649
aS'break_VB'
p650
aa(lp651
S'pursue_VB'
p652
aS'catch_VB'
p653
aS'kill_VB'
p654
aS'die_VB'
p655
aa(lp656
S'pursue_VB'
p657
aS'catch_VB'
p658
aS'ignite_VB'
p659
aS'burn_VB'
p660
aa(lp661
S'pursue_VB'
p662
aS'catch_VB'
p663
aS'trip_NN'
p664
aS'stumble_VB'
p665
aa(lp666
S'pursue_VB'
p667
aS'catch_VB'
p668
aS'watch_VB'
p669
aS'see_VB'
p670
aa(lp671
S'pursue_VB'
p672
aS'catch_VB'
p673
aS'listen_VB'
p674
aS'hear_VB'
p675
aa(lp676
S'pursue_VB'
p677
aS'catch_VB'
p678
aS'aspire_VB'
p679
aS'attain_VB'
p680
aa(lp681
S'pursue_VB'
p682
aS'catch_VB'
p683
aS'fear_NN'
p684
aS'flee_VB'
p685
aa(lp686
S'pursue_VB'
p687
aS'catch_VB'
p688
aS'travel_NN'
p689
aS'arrive_VB'
p690
aa(lp691
S'pursue_VB'
p692
aS'catch_VB'
p693
aS'wash_NN'
p694
aS'clean_JJ'
p695
aa(lp696
S'pursue_VB'
p697
aS'catch_VB'
p698
aS'throw_VB'
p699
aS'flies_VBZ'
p700
aa(lp701
S'aspire_VB'
p702
aS'attain_VB'
p703
aS'drop_NN'
p704
aS'fall_NN'
p705
aa(lp706
S'aspire_VB'
p707
aS'attain_VB'
p708
aS'cut_VBN'
p709
aS'bleed_VB'
p710
aa(lp711
S'aspire_VB'
p712
aS'attain_VB'
p713
aS'nourish_VB'
p714
aS'grow_VB'
p715
aa(lp716
S'aspire_VB'
p717
aS'attain_VB'
p718
aS'crush_NN'
p719
aS'break_VB'
p720
aa(lp721
S'aspire_VB'
p722
aS'attain_VB'
p723
aS'kill_VB'
p724
aS'die_VB'
p725
aa(lp726
S'aspire_VB'
p727
aS'attain_VB'
p728
aS'ignite_VB'
p729
aS'burn_VB'
p730
aa(lp731
S'aspire_VB'
p732
aS'attain_VB'
p733
aS'trip_NN'
p734
aS'stumble_VB'
p735
aa(lp736
S'aspire_VB'
p737
aS'attain_VB'
p738
aS'watch_VB'
p739
aS'see_VB'
p740
aa(lp741
S'aspire_VB'
p742
aS'attain_VB'
p743
aS'listen_VB'
p744
aS'hear_VB'
p745
aa(lp746
S'aspire_VB'
p747
aS'attain_VB'
p748
aS'pursue_VB'
p749
aS'catch_VB'
p750
aa(lp751
S'aspire_VB'
p752
aS'attain_VB'
p753
aS'fear_NN'
p754
aS'flee_VB'
p755
aa(lp756
S'aspire_VB'
p757
aS'attain_VB'
p758
aS'travel_NN'
p759
aS'arrive_VB'
p760
aa(lp761
S'aspire_VB'
p762
aS'attain_VB'
p763
aS'wash_NN'
p764
aS'clean_JJ'
p765
aa(lp766
S'aspire_VB'
p767
aS'attain_VB'
p768
aS'throw_VB'
p769
aS'flies_VBZ'
p770
aa(lp771
S'fear_NN'
p772
aS'flee_VB'
p773
aS'drop_NN'
p774
aS'fall_NN'
p775
aa(lp776
S'fear_NN'
p777
aS'flee_VB'
p778
aS'cut_VBN'
p779
aS'bleed_VB'
p780
aa(lp781
S'fear_NN'
p782
aS'flee_VB'
p783
aS'nourish_VB'
p784
aS'grow_VB'
p785
aa(lp786
S'fear_NN'
p787
aS'flee_VB'
p788
aS'crush_NN'
p789
aS'break_VB'
p790
aa(lp791
S'fear_NN'
p792
aS'flee_VB'
p793
aS'kill_VB'
p794
aS'die_VB'
p795
aa(lp796
S'fear_NN'
p797
aS'flee_VB'
p798
aS'ignite_VB'
p799
aS'burn_VB'
p800
aa(lp801
S'fear_NN'
p802
aS'flee_VB'
p803
aS'trip_NN'
p804
aS'stumble_VB'
p805
aa(lp806
S'fear_NN'
p807
aS'flee_VB'
p808
aS'watch_VB'
p809
aS'see_VB'
p810
aa(lp811
S'fear_NN'
p812
aS'flee_VB'
p813
aS'listen_VB'
p814
aS'hear_VB'
p815
aa(lp816
S'fear_NN'
p817
aS'flee_VB'
p818
aS'pursue_VB'
p819
aS'catch_VB'
p820
aa(lp821
S'fear_NN'
p822
aS'flee_VB'
p823
aS'aspire_VB'
p824
aS'attain_VB'
p825
aa(lp826
S'fear_NN'
p827
aS'flee_VB'
p828
aS'travel_NN'
p829
aS'arrive_VB'
p830
aa(lp831
S'fear_NN'
p832
aS'flee_VB'
p833
aS'wash_NN'
p834
aS'clean_JJ'
p835
aa(lp836
S'fear_NN'
p837
aS'flee_VB'
p838
aS'throw_VB'
p839
aS'flies_VBZ'
p840
aa(lp841
S'travel_NN'
p842
aS'arrive_VB'
p843
aS'drop_NN'
p844
aS'fall_NN'
p845
aa(lp846
S'travel_NN'
p847
aS'arrive_VB'
p848
aS'cut_VBN'
p849
aS'bleed_VB'
p850
aa(lp851
S'travel_NN'
p852
aS'arrive_VB'
p853
aS'nourish_VB'
p854
aS'grow_VB'
p855
aa(lp856
S'travel_NN'
p857
aS'arrive_VB'
p858
aS'crush_NN'
p859
aS'break_VB'
p860
aa(lp861
S'travel_NN'
p862
aS'arrive_VB'
p863
aS'kill_VB'
p864
aS'die_VB'
p865
aa(lp866
S'travel_NN'
p867
aS'arrive_VB'
p868
aS'ignite_VB'
p869
aS'burn_VB'
p870
aa(lp871
S'travel_NN'
p872
aS'arrive_VB'
p873
aS'trip_NN'
p874
aS'stumble_VB'
p875
aa(lp876
S'travel_NN'
p877
aS'arrive_VB'
p878
aS'watch_VB'
p879
aS'see_VB'
p880
aa(lp881
S'travel_NN'
p882
aS'arrive_VB'
p883
aS'listen_VB'
p884
aS'hear_VB'
p885
aa(lp886
S'travel_NN'
p887
aS'arrive_VB'
p888
aS'pursue_VB'
p889
aS'catch_VB'
p890
aa(lp891
S'travel_NN'
p892
aS'arrive_VB'
p893
aS'aspire_VB'
p894
aS'attain_VB'
p895
aa(lp896
S'travel_NN'
p897
aS'arrive_VB'
p898
aS'fear_NN'
p899
aS'flee_VB'
p900
aa(lp901
S'travel_NN'
p902
aS'arrive_VB'
p903
aS'wash_NN'
p904
aS'clean_JJ'
p905
aa(lp906
S'travel_NN'
p907
aS'arrive_VB'
p908
aS'throw_VB'
p909
aS'flies_VBZ'
p910
aa(lp911
S'wash_NN'
p912
aS'clean_JJ'
p913
aS'drop_NN'
p914
aS'fall_NN'
p915
aa(lp916
S'wash_NN'
p917
aS'clean_JJ'
p918
aS'cut_VBN'
p919
aS'bleed_VB'
p920
aa(lp921
S'wash_NN'
p922
aS'clean_JJ'
p923
aS'nourish_VB'
p924
aS'grow_VB'
p925
aa(lp926
S'wash_NN'
p927
aS'clean_JJ'
p928
aS'crush_NN'
p929
aS'break_VB'
p930
aa(lp931
S'wash_NN'
p932
aS'clean_JJ'
p933
aS'kill_VB'
p934
aS'die_VB'
p935
aa(lp936
S'wash_NN'
p937
aS'clean_JJ'
p938
aS'ignite_VB'
p939
aS'burn_VB'
p940
aa(lp941
S'wash_NN'
p942
aS'clean_JJ'
p943
aS'trip_NN'
p944
aS'stumble_VB'
p945
aa(lp946
S'wash_NN'
p947
aS'clean_JJ'
p948
aS'watch_VB'
p949
aS'see_VB'
p950
aa(lp951
S'wash_NN'
p952
aS'clean_JJ'
p953
aS'listen_VB'
p954
aS'hear_VB'
p955
aa(lp956
S'wash_NN'
p957
aS'clean_JJ'
p958
aS'pursue_VB'
p959
aS'catch_VB'
p960
aa(lp961
S'wash_NN'
p962
aS'clean_JJ'
p963
aS'aspire_VB'
p964
aS'attain_VB'
p965
aa(lp966
S'wash_NN'
p967
aS'clean_JJ'
p968
aS'fear_NN'
p969
aS'flee_VB'
p970
aa(lp971
S'wash_NN'
p972
aS'clean_JJ'
p973
aS'travel_NN'
p974
aS'arrive_VB'
p975
aa(lp976
S'wash_NN'
p977
aS'clean_JJ'
p978
aS'throw_VB'
p979
aS'flies_VBZ'
p980
aa(lp981
S'throw_VB'
p982
aS'flies_VBZ'
p983
aS'drop_NN'
p984
aS'fall_NN'
p985
aa(lp986
S'throw_VB'
p987
aS'flies_VBZ'
p988
aS'cut_VBN'
p989
aS'bleed_VB'
p990
aa(lp991
S'throw_VB'
p992
aS'flies_VBZ'
p993
aS'nourish_VB'
p994
aS'grow_VB'
p995
aa(lp996
S'throw_VB'
p997
aS'flies_VBZ'
p998
aS'crush_NN'
p999
aS'break_VB'
p1000
aa(lp1001
S'throw_VB'
p1002
aS'flies_VBZ'
p1003
aS'kill_VB'
p1004
aS'die_VB'
p1005
aa(lp1006
S'throw_VB'
p1007
aS'flies_VBZ'
p1008
aS'ignite_VB'
p1009
aS'burn_VB'
p1010
aa(lp1011
S'throw_VB'
p1012
aS'flies_VBZ'
p1013
aS'trip_NN'
p1014
aS'stumble_VB'
p1015
aa(lp1016
S'throw_VB'
p1017
aS'flies_VBZ'
p1018
aS'watch_VB'
p1019
aS'see_VB'
p1020
aa(lp1021
S'throw_VB'
p1022
aS'flies_VBZ'
p1023
aS'listen_VB'
p1024
aS'hear_VB'
p1025
aa(lp1026
S'throw_VB'
p1027
aS'flies_VBZ'
p1028
aS'pursue_VB'
p1029
aS'catch_VB'
p1030
aa(lp1031
S'throw_VB'
p1032
aS'flies_VBZ'
p1033
aS'aspire_VB'
p1034
aS'attain_VB'
p1035
aa(lp1036
S'throw_VB'
p1037
aS'flies_VBZ'
p1038
aS'fear_NN'
p1039
aS'flee_VB'
p1040
aa(lp1041
S'throw_VB'
p1042
aS'flies_VBZ'
p1043
aS'travel_NN'
p1044
aS'arrive_VB'
p1045
aa(lp1046
S'throw_VB'
p1047
aS'flies_VBZ'
p1048
aS'wash_NN'
p1049
aS'clean_JJ'
p1050
aa.