(lp0
(lp1
S'jam_NN'
p2
aS'jar_NN'
p3
aS'potatoes_NNS'
p4
aS'sack_NN'
p5
aa(lp6
g2
ag3
aS'cereal_NN'
p7
aS'box_NN'
p8
aa(lp9
g2
ag3
aS'chips_NNS'
p10
aS'bag_NN'
p11
aa(lp12
g2
ag3
aS'carrots_NNS'
p13
aS'bag_NN'
p14
aa(lp15
g2
ag3
aS'pickles_NNS'
p16
aS'jar_NN'
p17
aa(lp18
g2
ag3
aS'ketchup_NN'
p19
aS'bottle_NN'
p20
aa(lp21
g2
ag3
aS'milk_NN'
p22
aS'jug_NN'
p23
aa(lp24
g2
ag3
aS'milk_NN'
p25
aS'bottle_NN'
p26
aa(lp27
g2
ag3
aS'honey_NN'
p28
aS'jar_NN'
p29
aa(lp30
g2
ag3
aS'honey_NN'
p31
aS'bottle_NN'
p32
aa(lp33
g2
ag3
aS'soda_NN'
p34
aS'can_NN'
p35
aa(lp36
g2
ag3
aS'soda_NN'
p37
aS'bottle_NN'
p38
aa(lp39
g2
ag3
aS'game_NN'
p40
aS'box_BB'
p41
aa(lp42
g2
ag3
aS'vitamins_NNS'
p43
aS'bottle_NN'
p44
aa(lp45
g2
ag3
aS'detergent_NN'
p46
aS'bottle_NN'
p47
aa(lp48
g2
ag3
aS'diapers_NNS'
p49
aS'box_NN'
p50
aa(lp51
g2
ag3
aS'diapers_NNS'
p52
aS'bag_NN'
p53
aa(lp54
g2
ag3
aS'water_NN'
p55
aS'bottle_NN'
p56
aa(lp57
g2
ag3
aS'money_NN'
p58
aS'wallet_NN'
p59
aa(lp60
g2
ag3
aS'trash_NN'
p61
aS'can_NN'
p62
aa(lp63
g2
ag3
aS'kleenex_NN'
p64
aS'box_NN'
p65
aa(lp66
g2
ag3
aS'poster_NN'
p67
aS'tube_NN'
p68
aa(lp69
g2
ag3
aS'picture_NN'
p70
aS'frame_NN'
p71
aa(lp72
g2
ag3
aS'silverware_NN'
p73
aS'drawer_NN'
p74
aa(lp75
g2
ag3
aS'socks_NNS'
p76
aS'drawer_NN'
p77
aa(lp78
g2
ag3
aS'coat_NN'
p79
aS'closet_NN'
p80
aa(lp81
g2
ag3
aS'clothes_NNS'
p82
aS'dresser_NN'
p83
aa(lp84
g2
ag3
aS'plates_NNS'
p85
aS'cupboard_NN'
p86
aa(lp87
g4
ag5
ag2
ag3
aa(lp88
g4
ag5
ag7
ag8
aa(lp89
g4
ag5
ag10
ag11
aa(lp90
g4
ag5
ag13
ag14
aa(lp91
g4
ag5
ag16
ag17
aa(lp92
g4
ag5
ag19
ag20
aa(lp93
g4
ag5
ag22
ag23
aa(lp94
g4
ag5
ag25
ag26
aa(lp95
g4
ag5
ag28
ag29
aa(lp96
g4
ag5
ag31
ag32
aa(lp97
g4
ag5
ag34
ag35
aa(lp98
g4
ag5
ag37
ag38
aa(lp99
g4
ag5
ag40
ag41
aa(lp100
g4
ag5
ag43
ag44
aa(lp101
g4
ag5
ag46
ag47
aa(lp102
g4
ag5
ag49
ag50
aa(lp103
g4
ag5
ag52
ag53
aa(lp104
g4
ag5
ag55
ag56
aa(lp105
g4
ag5
ag58
ag59
aa(lp106
g4
ag5
ag61
ag62
aa(lp107
g4
ag5
ag64
ag65
aa(lp108
g4
ag5
ag67
ag68
aa(lp109
g4
ag5
ag70
ag71
aa(lp110
g4
ag5
ag73
ag74
aa(lp111
g4
ag5
ag76
ag77
aa(lp112
g4
ag5
ag79
ag80
aa(lp113
g4
ag5
ag82
ag83
aa(lp114
g4
ag5
ag85
ag86
aa(lp115
g7
ag8
ag2
ag3
aa(lp116
g7
ag8
ag4
ag5
aa(lp117
g7
ag8
ag10
ag11
aa(lp118
g7
ag8
ag13
ag14
aa(lp119
g7
ag8
ag16
ag17
aa(lp120
g7
ag8
ag19
ag20
aa(lp121
g7
ag8
ag22
ag23
aa(lp122
g7
ag8
ag25
ag26
aa(lp123
g7
ag8
ag28
ag29
aa(lp124
g7
ag8
ag31
ag32
aa(lp125
g7
ag8
ag34
ag35
aa(lp126
g7
ag8
ag37
ag38
aa(lp127
g7
ag8
ag40
ag41
aa(lp128
g7
ag8
ag43
ag44
aa(lp129
g7
ag8
ag46
ag47
aa(lp130
g7
ag8
ag49
ag50
aa(lp131
g7
ag8
ag52
ag53
aa(lp132
g7
ag8
ag55
ag56
aa(lp133
g7
ag8
ag58
ag59
aa(lp134
g7
ag8
ag61
ag62
aa(lp135
g7
ag8
ag64
ag65
aa(lp136
g7
ag8
ag67
ag68
aa(lp137
g7
ag8
ag70
ag71
aa(lp138
g7
ag8
ag73
ag74
aa(lp139
g7
ag8
ag76
ag77
aa(lp140
g7
ag8
ag79
ag80
aa(lp141
g7
ag8
ag82
ag83
aa(lp142
g7
ag8
ag85
ag86
aa(lp143
g10
ag11
ag2
ag3
aa(lp144
g10
ag11
ag4
ag5
aa(lp145
g10
ag11
ag7
ag8
aa(lp146
g10
ag11
ag13
ag14
aa(lp147
g10
ag11
ag16
ag17
aa(lp148
g10
ag11
ag19
ag20
aa(lp149
g10
ag11
ag22
ag23
aa(lp150
g10
ag11
ag25
ag26
aa(lp151
g10
ag11
ag28
ag29
aa(lp152
g10
ag11
ag31
ag32
aa(lp153
g10
ag11
ag34
ag35
aa(lp154
g10
ag11
ag37
ag38
aa(lp155
g10
ag11
ag40
ag41
aa(lp156
g10
ag11
ag43
ag44
aa(lp157
g10
ag11
ag46
ag47
aa(lp158
g10
ag11
ag49
ag50
aa(lp159
g10
ag11
ag52
ag53
aa(lp160
g10
ag11
ag55
ag56
aa(lp161
g10
ag11
ag58
ag59
aa(lp162
g10
ag11
ag61
ag62
aa(lp163
g10
ag11
ag64
ag65
aa(lp164
g10
ag11
ag67
ag68
aa(lp165
g10
ag11
ag70
ag71
aa(lp166
g10
ag11
ag73
ag74
aa(lp167
g10
ag11
ag76
ag77
aa(lp168
g10
ag11
ag79
ag80
aa(lp169
g10
ag11
ag82
ag83
aa(lp170
g10
ag11
ag85
ag86
aa(lp171
g13
ag14
ag2
ag3
aa(lp172
g13
ag14
ag4
ag5
aa(lp173
g13
ag14
ag7
ag8
aa(lp174
g13
ag14
ag10
ag11
aa(lp175
g13
ag14
ag16
ag17
aa(lp176
g13
ag14
ag19
ag20
aa(lp177
g13
ag14
ag22
ag23
aa(lp178
g13
ag14
ag25
ag26
aa(lp179
g13
ag14
ag28
ag29
aa(lp180
g13
ag14
ag31
ag32
aa(lp181
g13
ag14
ag34
ag35
aa(lp182
g13
ag14
ag37
ag38
aa(lp183
g13
ag14
ag40
ag41
aa(lp184
g13
ag14
ag43
ag44
aa(lp185
g13
ag14
ag46
ag47
aa(lp186
g13
ag14
ag49
ag50
aa(lp187
g13
ag14
ag52
ag53
aa(lp188
g13
ag14
ag55
ag56
aa(lp189
g13
ag14
ag58
ag59
aa(lp190
g13
ag14
ag61
ag62
aa(lp191
g13
ag14
ag64
ag65
aa(lp192
g13
ag14
ag67
ag68
aa(lp193
g13
ag14
ag70
ag71
aa(lp194
g13
ag14
ag73
ag74
aa(lp195
g13
ag14
ag76
ag77
aa(lp196
g13
ag14
ag79
ag80
aa(lp197
g13
ag14
ag82
ag83
aa(lp198
g13
ag14
ag85
ag86
aa(lp199
g16
ag17
ag2
ag3
aa(lp200
g16
ag17
ag4
ag5
aa(lp201
g16
ag17
ag7
ag8
aa(lp202
g16
ag17
ag10
ag11
aa(lp203
g16
ag17
ag13
ag14
aa(lp204
g16
ag17
ag19
ag20
aa(lp205
g16
ag17
ag22
ag23
aa(lp206
g16
ag17
ag25
ag26
aa(lp207
g16
ag17
ag28
ag29
aa(lp208
g16
ag17
ag31
ag32
aa(lp209
g16
ag17
ag34
ag35
aa(lp210
g16
ag17
ag37
ag38
aa(lp211
g16
ag17
ag40
ag41
aa(lp212
g16
ag17
ag43
ag44
aa(lp213
g16
ag17
ag46
ag47
aa(lp214
g16
ag17
ag49
ag50
aa(lp215
g16
ag17
ag52
ag53
aa(lp216
g16
ag17
ag55
ag56
aa(lp217
g16
ag17
ag58
ag59
aa(lp218
g16
ag17
ag61
ag62
aa(lp219
g16
ag17
ag64
ag65
aa(lp220
g16
ag17
ag67
ag68
aa(lp221
g16
ag17
ag70
ag71
aa(lp222
g16
ag17
ag73
ag74
aa(lp223
g16
ag17
ag76
ag77
aa(lp224
g16
ag17
ag79
ag80
aa(lp225
g16
ag17
ag82
ag83
aa(lp226
g16
ag17
ag85
ag86
aa(lp227
g19
ag20
ag2
ag3
aa(lp228
g19
ag20
ag4
ag5
aa(lp229
g19
ag20
ag7
ag8
aa(lp230
g19
ag20
ag10
ag11
aa(lp231
g19
ag20
ag13
ag14
aa(lp232
g19
ag20
ag16
ag17
aa(lp233
g19
ag20
ag22
ag23
aa(lp234
g19
ag20
ag25
ag26
aa(lp235
g19
ag20
ag28
ag29
aa(lp236
g19
ag20
ag31
ag32
aa(lp237
g19
ag20
ag34
ag35
aa(lp238
g19
ag20
ag37
ag38
aa(lp239
g19
ag20
ag40
ag41
aa(lp240
g19
ag20
ag43
ag44
aa(lp241
g19
ag20
ag46
ag47
aa(lp242
g19
ag20
ag49
ag50
aa(lp243
g19
ag20
ag52
ag53
aa(lp244
g19
ag20
ag55
ag56
aa(lp245
g19
ag20
ag58
ag59
aa(lp246
g19
ag20
ag61
ag62
aa(lp247
g19
ag20
ag64
ag65
aa(lp248
g19
ag20
ag67
ag68
aa(lp249
g19
ag20
ag70
ag71
aa(lp250
g19
ag20
ag73
ag74
aa(lp251
g19
ag20
ag76
ag77
aa(lp252
g19
ag20
ag79
ag80
aa(lp253
g19
ag20
ag82
ag83
aa(lp254
g19
ag20
ag85
ag86
aa(lp255
g22
ag23
ag2
ag3
aa(lp256
g22
ag23
ag4
ag5
aa(lp257
g22
ag23
ag7
ag8
aa(lp258
g22
ag23
ag10
ag11
aa(lp259
g22
ag23
ag13
ag14
aa(lp260
g22
ag23
ag16
ag17
aa(lp261
g22
ag23
ag19
ag20
aa(lp262
g22
ag23
ag25
ag26
aa(lp263
g22
ag23
ag28
ag29
aa(lp264
g22
ag23
ag31
ag32
aa(lp265
g22
ag23
ag34
ag35
aa(lp266
g22
ag23
ag37
ag38
aa(lp267
g22
ag23
ag40
ag41
aa(lp268
g22
ag23
ag43
ag44
aa(lp269
g22
ag23
ag46
ag47
aa(lp270
g22
ag23
ag49
ag50
aa(lp271
g22
ag23
ag52
ag53
aa(lp272
g22
ag23
ag55
ag56
aa(lp273
g22
ag23
ag58
ag59
aa(lp274
g22
ag23
ag61
ag62
aa(lp275
g22
ag23
ag64
ag65
aa(lp276
g22
ag23
ag67
ag68
aa(lp277
g22
ag23
ag70
ag71
aa(lp278
g22
ag23
ag73
ag74
aa(lp279
g22
ag23
ag76
ag77
aa(lp280
g22
ag23
ag79
ag80
aa(lp281
g22
ag23
ag82
ag83
aa(lp282
g22
ag23
ag85
ag86
aa(lp283
g25
ag26
ag2
ag3
aa(lp284
g25
ag26
ag4
ag5
aa(lp285
g25
ag26
ag7
ag8
aa(lp286
g25
ag26
ag10
ag11
aa(lp287
g25
ag26
ag13
ag14
aa(lp288
g25
ag26
ag16
ag17
aa(lp289
g25
ag26
ag19
ag20
aa(lp290
g25
ag26
ag22
ag23
aa(lp291
g25
ag26
ag28
ag29
aa(lp292
g25
ag26
ag31
ag32
aa(lp293
g25
ag26
ag34
ag35
aa(lp294
g25
ag26
ag37
ag38
aa(lp295
g25
ag26
ag40
ag41
aa(lp296
g25
ag26
ag43
ag44
aa(lp297
g25
ag26
ag46
ag47
aa(lp298
g25
ag26
ag49
ag50
aa(lp299
g25
ag26
ag52
ag53
aa(lp300
g25
ag26
ag55
ag56
aa(lp301
g25
ag26
ag58
ag59
aa(lp302
g25
ag26
ag61
ag62
aa(lp303
g25
ag26
ag64
ag65
aa(lp304
g25
ag26
ag67
ag68
aa(lp305
g25
ag26
ag70
ag71
aa(lp306
g25
ag26
ag73
ag74
aa(lp307
g25
ag26
ag76
ag77
aa(lp308
g25
ag26
ag79
ag80
aa(lp309
g25
ag26
ag82
ag83
aa(lp310
g25
ag26
ag85
ag86
aa(lp311
g28
ag29
ag2
ag3
aa(lp312
g28
ag29
ag4
ag5
aa(lp313
g28
ag29
ag7
ag8
aa(lp314
g28
ag29
ag10
ag11
aa(lp315
g28
ag29
ag13
ag14
aa(lp316
g28
ag29
ag16
ag17
aa(lp317
g28
ag29
ag19
ag20
aa(lp318
g28
ag29
ag22
ag23
aa(lp319
g28
ag29
ag25
ag26
aa(lp320
g28
ag29
ag31
ag32
aa(lp321
g28
ag29
ag34
ag35
aa(lp322
g28
ag29
ag37
ag38
aa(lp323
g28
ag29
ag40
ag41
aa(lp324
g28
ag29
ag43
ag44
aa(lp325
g28
ag29
ag46
ag47
aa(lp326
g28
ag29
ag49
ag50
aa(lp327
g28
ag29
ag52
ag53
aa(lp328
g28
ag29
ag55
ag56
aa(lp329
g28
ag29
ag58
ag59
aa(lp330
g28
ag29
ag61
ag62
aa(lp331
g28
ag29
ag64
ag65
aa(lp332
g28
ag29
ag67
ag68
aa(lp333
g28
ag29
ag70
ag71
aa(lp334
g28
ag29
ag73
ag74
aa(lp335
g28
ag29
ag76
ag77
aa(lp336
g28
ag29
ag79
ag80
aa(lp337
g28
ag29
ag82
ag83
aa(lp338
g28
ag29
ag85
ag86
aa(lp339
g31
ag32
ag2
ag3
aa(lp340
g31
ag32
ag4
ag5
aa(lp341
g31
ag32
ag7
ag8
aa(lp342
g31
ag32
ag10
ag11
aa(lp343
g31
ag32
ag13
ag14
aa(lp344
g31
ag32
ag16
ag17
aa(lp345
g31
ag32
ag19
ag20
aa(lp346
g31
ag32
ag22
ag23
aa(lp347
g31
ag32
ag25
ag26
aa(lp348
g31
ag32
ag28
ag29
aa(lp349
g31
ag32
ag34
ag35
aa(lp350
g31
ag32
ag37
ag38
aa(lp351
g31
ag32
ag40
ag41
aa(lp352
g31
ag32
ag43
ag44
aa(lp353
g31
ag32
ag46
ag47
aa(lp354
g31
ag32
ag49
ag50
aa(lp355
g31
ag32
ag52
ag53
aa(lp356
g31
ag32
ag55
ag56
aa(lp357
g31
ag32
ag58
ag59
aa(lp358
g31
ag32
ag61
ag62
aa(lp359
g31
ag32
ag64
ag65
aa(lp360
g31
ag32
ag67
ag68
aa(lp361
g31
ag32
ag70
ag71
aa(lp362
g31
ag32
ag73
ag74
aa(lp363
g31
ag32
ag76
ag77
aa(lp364
g31
ag32
ag79
ag80
aa(lp365
g31
ag32
ag82
ag83
aa(lp366
g31
ag32
ag85
ag86
aa(lp367
g34
ag35
ag2
ag3
aa(lp368
g34
ag35
ag4
ag5
aa(lp369
g34
ag35
ag7
ag8
aa(lp370
g34
ag35
ag10
ag11
aa(lp371
g34
ag35
ag13
ag14
aa(lp372
g34
ag35
ag16
ag17
aa(lp373
g34
ag35
ag19
ag20
aa(lp374
g34
ag35
ag22
ag23
aa(lp375
g34
ag35
ag25
ag26
aa(lp376
g34
ag35
ag28
ag29
aa(lp377
g34
ag35
ag31
ag32
aa(lp378
g34
ag35
ag37
ag38
aa(lp379
g34
ag35
ag40
ag41
aa(lp380
g34
ag35
ag43
ag44
aa(lp381
g34
ag35
ag46
ag47
aa(lp382
g34
ag35
ag49
ag50
aa(lp383
g34
ag35
ag52
ag53
aa(lp384
g34
ag35
ag55
ag56
aa(lp385
g34
ag35
ag58
ag59
aa(lp386
g34
ag35
ag61
ag62
aa(lp387
g34
ag35
ag64
ag65
aa(lp388
g34
ag35
ag67
ag68
aa(lp389
g34
ag35
ag70
ag71
aa(lp390
g34
ag35
ag73
ag74
aa(lp391
g34
ag35
ag76
ag77
aa(lp392
g34
ag35
ag79
ag80
aa(lp393
g34
ag35
ag82
ag83
aa(lp394
g34
ag35
ag85
ag86
aa(lp395
g37
ag38
ag2
ag3
aa(lp396
g37
ag38
ag4
ag5
aa(lp397
g37
ag38
ag7
ag8
aa(lp398
g37
ag38
ag10
ag11
aa(lp399
g37
ag38
ag13
ag14
aa(lp400
g37
ag38
ag16
ag17
aa(lp401
g37
ag38
ag19
ag20
aa(lp402
g37
ag38
ag22
ag23
aa(lp403
g37
ag38
ag25
ag26
aa(lp404
g37
ag38
ag28
ag29
aa(lp405
g37
ag38
ag31
ag32
aa(lp406
g37
ag38
ag34
ag35
aa(lp407
g37
ag38
ag40
ag41
aa(lp408
g37
ag38
ag43
ag44
aa(lp409
g37
ag38
ag46
ag47
aa(lp410
g37
ag38
ag49
ag50
aa(lp411
g37
ag38
ag52
ag53
aa(lp412
g37
ag38
ag55
ag56
aa(lp413
g37
ag38
ag58
ag59
aa(lp414
g37
ag38
ag61
ag62
aa(lp415
g37
ag38
ag64
ag65
aa(lp416
g37
ag38
ag67
ag68
aa(lp417
g37
ag38
ag70
ag71
aa(lp418
g37
ag38
ag73
ag74
aa(lp419
g37
ag38
ag76
ag77
aa(lp420
g37
ag38
ag79
ag80
aa(lp421
g37
ag38
ag82
ag83
aa(lp422
g37
ag38
ag85
ag86
aa(lp423
g40
ag41
ag2
ag3
aa(lp424
g40
ag41
ag4
ag5
aa(lp425
g40
ag41
ag7
ag8
aa(lp426
g40
ag41
ag10
ag11
aa(lp427
g40
ag41
ag13
ag14
aa(lp428
g40
ag41
ag16
ag17
aa(lp429
g40
ag41
ag19
ag20
aa(lp430
g40
ag41
ag22
ag23
aa(lp431
g40
ag41
ag25
ag26
aa(lp432
g40
ag41
ag28
ag29
aa(lp433
g40
ag41
ag31
ag32
aa(lp434
g40
ag41
ag34
ag35
aa(lp435
g40
ag41
ag37
ag38
aa(lp436
g40
ag41
ag43
ag44
aa(lp437
g40
ag41
ag46
ag47
aa(lp438
g40
ag41
ag49
ag50
aa(lp439
g40
ag41
ag52
ag53
aa(lp440
g40
ag41
ag55
ag56
aa(lp441
g40
ag41
ag58
ag59
aa(lp442
g40
ag41
ag61
ag62
aa(lp443
g40
ag41
ag64
ag65
aa(lp444
g40
ag41
ag67
ag68
aa(lp445
g40
ag41
ag70
ag71
aa(lp446
g40
ag41
ag73
ag74
aa(lp447
g40
ag41
ag76
ag77
aa(lp448
g40
ag41
ag79
ag80
aa(lp449
g40
ag41
ag82
ag83
aa(lp450
g40
ag41
ag85
ag86
aa(lp451
g43
ag44
ag2
ag3
aa(lp452
g43
ag44
ag4
ag5
aa(lp453
g43
ag44
ag7
ag8
aa(lp454
g43
ag44
ag10
ag11
aa(lp455
g43
ag44
ag13
ag14
aa(lp456
g43
ag44
ag16
ag17
aa(lp457
g43
ag44
ag19
ag20
aa(lp458
g43
ag44
ag22
ag23
aa(lp459
g43
ag44
ag25
ag26
aa(lp460
g43
ag44
ag28
ag29
aa(lp461
g43
ag44
ag31
ag32
aa(lp462
g43
ag44
ag34
ag35
aa(lp463
g43
ag44
ag37
ag38
aa(lp464
g43
ag44
ag40
ag41
aa(lp465
g43
ag44
ag46
ag47
aa(lp466
g43
ag44
ag49
ag50
aa(lp467
g43
ag44
ag52
ag53
aa(lp468
g43
ag44
ag55
ag56
aa(lp469
g43
ag44
ag58
ag59
aa(lp470
g43
ag44
ag61
ag62
aa(lp471
g43
ag44
ag64
ag65
aa(lp472
g43
ag44
ag67
ag68
aa(lp473
g43
ag44
ag70
ag71
aa(lp474
g43
ag44
ag73
ag74
aa(lp475
g43
ag44
ag76
ag77
aa(lp476
g43
ag44
ag79
ag80
aa(lp477
g43
ag44
ag82
ag83
aa(lp478
g43
ag44
ag85
ag86
aa(lp479
g46
ag47
ag2
ag3
aa(lp480
g46
ag47
ag4
ag5
aa(lp481
g46
ag47
ag7
ag8
aa(lp482
g46
ag47
ag10
ag11
aa(lp483
g46
ag47
ag13
ag14
aa(lp484
g46
ag47
ag16
ag17
aa(lp485
g46
ag47
ag19
ag20
aa(lp486
g46
ag47
ag22
ag23
aa(lp487
g46
ag47
ag25
ag26
aa(lp488
g46
ag47
ag28
ag29
aa(lp489
g46
ag47
ag31
ag32
aa(lp490
g46
ag47
ag34
ag35
aa(lp491
g46
ag47
ag37
ag38
aa(lp492
g46
ag47
ag40
ag41
aa(lp493
g46
ag47
ag43
ag44
aa(lp494
g46
ag47
ag49
ag50
aa(lp495
g46
ag47
ag52
ag53
aa(lp496
g46
ag47
ag55
ag56
aa(lp497
g46
ag47
ag58
ag59
aa(lp498
g46
ag47
ag61
ag62
aa(lp499
g46
ag47
ag64
ag65
aa(lp500
g46
ag47
ag67
ag68
aa(lp501
g46
ag47
ag70
ag71
aa(lp502
g46
ag47
ag73
ag74
aa(lp503
g46
ag47
ag76
ag77
aa(lp504
g46
ag47
ag79
ag80
aa(lp505
g46
ag47
ag82
ag83
aa(lp506
g46
ag47
ag85
ag86
aa(lp507
g49
ag50
ag2
ag3
aa(lp508
g49
ag50
ag4
ag5
aa(lp509
g49
ag50
ag7
ag8
aa(lp510
g49
ag50
ag10
ag11
aa(lp511
g49
ag50
ag13
ag14
aa(lp512
g49
ag50
ag16
ag17
aa(lp513
g49
ag50
ag19
ag20
aa(lp514
g49
ag50
ag22
ag23
aa(lp515
g49
ag50
ag25
ag26
aa(lp516
g49
ag50
ag28
ag29
aa(lp517
g49
ag50
ag31
ag32
aa(lp518
g49
ag50
ag34
ag35
aa(lp519
g49
ag50
ag37
ag38
aa(lp520
g49
ag50
ag40
ag41
aa(lp521
g49
ag50
ag43
ag44
aa(lp522
g49
ag50
ag46
ag47
aa(lp523
g49
ag50
ag52
ag53
aa(lp524
g49
ag50
ag55
ag56
aa(lp525
g49
ag50
ag58
ag59
aa(lp526
g49
ag50
ag61
ag62
aa(lp527
g49
ag50
ag64
ag65
aa(lp528
g49
ag50
ag67
ag68
aa(lp529
g49
ag50
ag70
ag71
aa(lp530
g49
ag50
ag73
ag74
aa(lp531
g49
ag50
ag76
ag77
aa(lp532
g49
ag50
ag79
ag80
aa(lp533
g49
ag50
ag82
ag83
aa(lp534
g49
ag50
ag85
ag86
aa(lp535
g52
ag53
ag2
ag3
aa(lp536
g52
ag53
ag4
ag5
aa(lp537
g52
ag53
ag7
ag8
aa(lp538
g52
ag53
ag10
ag11
aa(lp539
g52
ag53
ag13
ag14
aa(lp540
g52
ag53
ag16
ag17
aa(lp541
g52
ag53
ag19
ag20
aa(lp542
g52
ag53
ag22
ag23
aa(lp543
g52
ag53
ag25
ag26
aa(lp544
g52
ag53
ag28
ag29
aa(lp545
g52
ag53
ag31
ag32
aa(lp546
g52
ag53
ag34
ag35
aa(lp547
g52
ag53
ag37
ag38
aa(lp548
g52
ag53
ag40
ag41
aa(lp549
g52
ag53
ag43
ag44
aa(lp550
g52
ag53
ag46
ag47
aa(lp551
g52
ag53
ag49
ag50
aa(lp552
g52
ag53
ag55
ag56
aa(lp553
g52
ag53
ag58
ag59
aa(lp554
g52
ag53
ag61
ag62
aa(lp555
g52
ag53
ag64
ag65
aa(lp556
g52
ag53
ag67
ag68
aa(lp557
g52
ag53
ag70
ag71
aa(lp558
g52
ag53
ag73
ag74
aa(lp559
g52
ag53
ag76
ag77
aa(lp560
g52
ag53
ag79
ag80
aa(lp561
g52
ag53
ag82
ag83
aa(lp562
g52
ag53
ag85
ag86
aa(lp563
g55
ag56
ag2
ag3
aa(lp564
g55
ag56
ag4
ag5
aa(lp565
g55
ag56
ag7
ag8
aa(lp566
g55
ag56
ag10
ag11
aa(lp567
g55
ag56
ag13
ag14
aa(lp568
g55
ag56
ag16
ag17
aa(lp569
g55
ag56
ag19
ag20
aa(lp570
g55
ag56
ag22
ag23
aa(lp571
g55
ag56
ag25
ag26
aa(lp572
g55
ag56
ag28
ag29
aa(lp573
g55
ag56
ag31
ag32
aa(lp574
g55
ag56
ag34
ag35
aa(lp575
g55
ag56
ag37
ag38
aa(lp576
g55
ag56
ag40
ag41
aa(lp577
g55
ag56
ag43
ag44
aa(lp578
g55
ag56
ag46
ag47
aa(lp579
g55
ag56
ag49
ag50
aa(lp580
g55
ag56
ag52
ag53
aa(lp581
g55
ag56
ag58
ag59
aa(lp582
g55
ag56
ag61
ag62
aa(lp583
g55
ag56
ag64
ag65
aa(lp584
g55
ag56
ag67
ag68
aa(lp585
g55
ag56
ag70
ag71
aa(lp586
g55
ag56
ag73
ag74
aa(lp587
g55
ag56
ag76
ag77
aa(lp588
g55
ag56
ag79
ag80
aa(lp589
g55
ag56
ag82
ag83
aa(lp590
g55
ag56
ag85
ag86
aa(lp591
g58
ag59
ag2
ag3
aa(lp592
g58
ag59
ag4
ag5
aa(lp593
g58
ag59
ag7
ag8
aa(lp594
g58
ag59
ag10
ag11
aa(lp595
g58
ag59
ag13
ag14
aa(lp596
g58
ag59
ag16
ag17
aa(lp597
g58
ag59
ag19
ag20
aa(lp598
g58
ag59
ag22
ag23
aa(lp599
g58
ag59
ag25
ag26
aa(lp600
g58
ag59
ag28
ag29
aa(lp601
g58
ag59
ag31
ag32
aa(lp602
g58
ag59
ag34
ag35
aa(lp603
g58
ag59
ag37
ag38
aa(lp604
g58
ag59
ag40
ag41
aa(lp605
g58
ag59
ag43
ag44
aa(lp606
g58
ag59
ag46
ag47
aa(lp607
g58
ag59
ag49
ag50
aa(lp608
g58
ag59
ag52
ag53
aa(lp609
g58
ag59
ag55
ag56
aa(lp610
g58
ag59
ag61
ag62
aa(lp611
g58
ag59
ag64
ag65
aa(lp612
g58
ag59
ag67
ag68
aa(lp613
g58
ag59
ag70
ag71
aa(lp614
g58
ag59
ag73
ag74
aa(lp615
g58
ag59
ag76
ag77
aa(lp616
g58
ag59
ag79
ag80
aa(lp617
g58
ag59
ag82
ag83
aa(lp618
g58
ag59
ag85
ag86
aa(lp619
g61
ag62
ag2
ag3
aa(lp620
g61
ag62
ag4
ag5
aa(lp621
g61
ag62
ag7
ag8
aa(lp622
g61
ag62
ag10
ag11
aa(lp623
g61
ag62
ag13
ag14
aa(lp624
g61
ag62
ag16
ag17
aa(lp625
g61
ag62
ag19
ag20
aa(lp626
g61
ag62
ag22
ag23
aa(lp627
g61
ag62
ag25
ag26
aa(lp628
g61
ag62
ag28
ag29
aa(lp629
g61
ag62
ag31
ag32
aa(lp630
g61
ag62
ag34
ag35
aa(lp631
g61
ag62
ag37
ag38
aa(lp632
g61
ag62
ag40
ag41
aa(lp633
g61
ag62
ag43
ag44
aa(lp634
g61
ag62
ag46
ag47
aa(lp635
g61
ag62
ag49
ag50
aa(lp636
g61
ag62
ag52
ag53
aa(lp637
g61
ag62
ag55
ag56
aa(lp638
g61
ag62
ag58
ag59
aa(lp639
g61
ag62
ag64
ag65
aa(lp640
g61
ag62
ag67
ag68
aa(lp641
g61
ag62
ag70
ag71
aa(lp642
g61
ag62
ag73
ag74
aa(lp643
g61
ag62
ag76
ag77
aa(lp644
g61
ag62
ag79
ag80
aa(lp645
g61
ag62
ag82
ag83
aa(lp646
g61
ag62
ag85
ag86
aa(lp647
g64
ag65
ag2
ag3
aa(lp648
g64
ag65
ag4
ag5
aa(lp649
g64
ag65
ag7
ag8
aa(lp650
g64
ag65
ag10
ag11
aa(lp651
g64
ag65
ag13
ag14
aa(lp652
g64
ag65
ag16
ag17
aa(lp653
g64
ag65
ag19
ag20
aa(lp654
g64
ag65
ag22
ag23
aa(lp655
g64
ag65
ag25
ag26
aa(lp656
g64
ag65
ag28
ag29
aa(lp657
g64
ag65
ag31
ag32
aa(lp658
g64
ag65
ag34
ag35
aa(lp659
g64
ag65
ag37
ag38
aa(lp660
g64
ag65
ag40
ag41
aa(lp661
g64
ag65
ag43
ag44
aa(lp662
g64
ag65
ag46
ag47
aa(lp663
g64
ag65
ag49
ag50
aa(lp664
g64
ag65
ag52
ag53
aa(lp665
g64
ag65
ag55
ag56
aa(lp666
g64
ag65
ag58
ag59
aa(lp667
g64
ag65
ag61
ag62
aa(lp668
g64
ag65
ag67
ag68
aa(lp669
g64
ag65
ag70
ag71
aa(lp670
g64
ag65
ag73
ag74
aa(lp671
g64
ag65
ag76
ag77
aa(lp672
g64
ag65
ag79
ag80
aa(lp673
g64
ag65
ag82
ag83
aa(lp674
g64
ag65
ag85
ag86
aa(lp675
g67
ag68
ag2
ag3
aa(lp676
g67
ag68
ag4
ag5
aa(lp677
g67
ag68
ag7
ag8
aa(lp678
g67
ag68
ag10
ag11
aa(lp679
g67
ag68
ag13
ag14
aa(lp680
g67
ag68
ag16
ag17
aa(lp681
g67
ag68
ag19
ag20
aa(lp682
g67
ag68
ag22
ag23
aa(lp683
g67
ag68
ag25
ag26
aa(lp684
g67
ag68
ag28
ag29
aa(lp685
g67
ag68
ag31
ag32
aa(lp686
g67
ag68
ag34
ag35
aa(lp687
g67
ag68
ag37
ag38
aa(lp688
g67
ag68
ag40
ag41
aa(lp689
g67
ag68
ag43
ag44
aa(lp690
g67
ag68
ag46
ag47
aa(lp691
g67
ag68
ag49
ag50
aa(lp692
g67
ag68
ag52
ag53
aa(lp693
g67
ag68
ag55
ag56
aa(lp694
g67
ag68
ag58
ag59
aa(lp695
g67
ag68
ag61
ag62
aa(lp696
g67
ag68
ag64
ag65
aa(lp697
g67
ag68
ag70
ag71
aa(lp698
g67
ag68
ag73
ag74
aa(lp699
g67
ag68
ag76
ag77
aa(lp700
g67
ag68
ag79
ag80
aa(lp701
g67
ag68
ag82
ag83
aa(lp702
g67
ag68
ag85
ag86
aa(lp703
g70
ag71
ag2
ag3
aa(lp704
g70
ag71
ag4
ag5
aa(lp705
g70
ag71
ag7
ag8
aa(lp706
g70
ag71
ag10
ag11
aa(lp707
g70
ag71
ag13
ag14
aa(lp708
g70
ag71
ag16
ag17
aa(lp709
g70
ag71
ag19
ag20
aa(lp710
g70
ag71
ag22
ag23
aa(lp711
g70
ag71
ag25
ag26
aa(lp712
g70
ag71
ag28
ag29
aa(lp713
g70
ag71
ag31
ag32
aa(lp714
g70
ag71
ag34
ag35
aa(lp715
g70
ag71
ag37
ag38
aa(lp716
g70
ag71
ag40
ag41
aa(lp717
g70
ag71
ag43
ag44
aa(lp718
g70
ag71
ag46
ag47
aa(lp719
g70
ag71
ag49
ag50
aa(lp720
g70
ag71
ag52
ag53
aa(lp721
g70
ag71
ag55
ag56
aa(lp722
g70
ag71
ag58
ag59
aa(lp723
g70
ag71
ag61
ag62
aa(lp724
g70
ag71
ag64
ag65
aa(lp725
g70
ag71
ag67
ag68
aa(lp726
g70
ag71
ag73
ag74
aa(lp727
g70
ag71
ag76
ag77
aa(lp728
g70
ag71
ag79
ag80
aa(lp729
g70
ag71
ag82
ag83
aa(lp730
g70
ag71
ag85
ag86
aa(lp731
g73
ag74
ag2
ag3
aa(lp732
g73
ag74
ag4
ag5
aa(lp733
g73
ag74
ag7
ag8
aa(lp734
g73
ag74
ag10
ag11
aa(lp735
g73
ag74
ag13
ag14
aa(lp736
g73
ag74
ag16
ag17
aa(lp737
g73
ag74
ag19
ag20
aa(lp738
g73
ag74
ag22
ag23
aa(lp739
g73
ag74
ag25
ag26
aa(lp740
g73
ag74
ag28
ag29
aa(lp741
g73
ag74
ag31
ag32
aa(lp742
g73
ag74
ag34
ag35
aa(lp743
g73
ag74
ag37
ag38
aa(lp744
g73
ag74
ag40
ag41
aa(lp745
g73
ag74
ag43
ag44
aa(lp746
g73
ag74
ag46
ag47
aa(lp747
g73
ag74
ag49
ag50
aa(lp748
g73
ag74
ag52
ag53
aa(lp749
g73
ag74
ag55
ag56
aa(lp750
g73
ag74
ag58
ag59
aa(lp751
g73
ag74
ag61
ag62
aa(lp752
g73
ag74
ag64
ag65
aa(lp753
g73
ag74
ag67
ag68
aa(lp754
g73
ag74
ag70
ag71
aa(lp755
g73
ag74
ag76
ag77
aa(lp756
g73
ag74
ag79
ag80
aa(lp757
g73
ag74
ag82
ag83
aa(lp758
g73
ag74
ag85
ag86
aa(lp759
g76
ag77
ag2
ag3
aa(lp760
g76
ag77
ag4
ag5
aa(lp761
g76
ag77
ag7
ag8
aa(lp762
g76
ag77
ag10
ag11
aa(lp763
g76
ag77
ag13
ag14
aa(lp764
g76
ag77
ag16
ag17
aa(lp765
g76
ag77
ag19
ag20
aa(lp766
g76
ag77
ag22
ag23
aa(lp767
g76
ag77
ag25
ag26
aa(lp768
g76
ag77
ag28
ag29
aa(lp769
g76
ag77
ag31
ag32
aa(lp770
g76
ag77
ag34
ag35
aa(lp771
g76
ag77
ag37
ag38
aa(lp772
g76
ag77
ag40
ag41
aa(lp773
g76
ag77
ag43
ag44
aa(lp774
g76
ag77
ag46
ag47
aa(lp775
g76
ag77
ag49
ag50
aa(lp776
g76
ag77
ag52
ag53
aa(lp777
g76
ag77
ag55
ag56
aa(lp778
g76
ag77
ag58
ag59
aa(lp779
g76
ag77
ag61
ag62
aa(lp780
g76
ag77
ag64
ag65
aa(lp781
g76
ag77
ag67
ag68
aa(lp782
g76
ag77
ag70
ag71
aa(lp783
g76
ag77
ag73
ag74
aa(lp784
g76
ag77
ag79
ag80
aa(lp785
g76
ag77
ag82
ag83
aa(lp786
g76
ag77
ag85
ag86
aa(lp787
g79
ag80
ag2
ag3
aa(lp788
g79
ag80
ag4
ag5
aa(lp789
g79
ag80
ag7
ag8
aa(lp790
g79
ag80
ag10
ag11
aa(lp791
g79
ag80
ag13
ag14
aa(lp792
g79
ag80
ag16
ag17
aa(lp793
g79
ag80
ag19
ag20
aa(lp794
g79
ag80
ag22
ag23
aa(lp795
g79
ag80
ag25
ag26
aa(lp796
g79
ag80
ag28
ag29
aa(lp797
g79
ag80
ag31
ag32
aa(lp798
g79
ag80
ag34
ag35
aa(lp799
g79
ag80
ag37
ag38
aa(lp800
g79
ag80
ag40
ag41
aa(lp801
g79
ag80
ag43
ag44
aa(lp802
g79
ag80
ag46
ag47
aa(lp803
g79
ag80
ag49
ag50
aa(lp804
g79
ag80
ag52
ag53
aa(lp805
g79
ag80
ag55
ag56
aa(lp806
g79
ag80
ag58
ag59
aa(lp807
g79
ag80
ag61
ag62
aa(lp808
g79
ag80
ag64
ag65
aa(lp809
g79
ag80
ag67
ag68
aa(lp810
g79
ag80
ag70
ag71
aa(lp811
g79
ag80
ag73
ag74
aa(lp812
g79
ag80
ag76
ag77
aa(lp813
g79
ag80
ag82
ag83
aa(lp814
g79
ag80
ag85
ag86
aa(lp815
g82
ag83
ag2
ag3
aa(lp816
g82
ag83
ag4
ag5
aa(lp817
g82
ag83
ag7
ag8
aa(lp818
g82
ag83
ag10
ag11
aa(lp819
g82
ag83
ag13
ag14
aa(lp820
g82
ag83
ag16
ag17
aa(lp821
g82
ag83
ag19
ag20
aa(lp822
g82
ag83
ag22
ag23
aa(lp823
g82
ag83
ag25
ag26
aa(lp824
g82
ag83
ag28
ag29
aa(lp825
g82
ag83
ag31
ag32
aa(lp826
g82
ag83
ag34
ag35
aa(lp827
g82
ag83
ag37
ag38
aa(lp828
g82
ag83
ag40
ag41
aa(lp829
g82
ag83
ag43
ag44
aa(lp830
g82
ag83
ag46
ag47
aa(lp831
g82
ag83
ag49
ag50
aa(lp832
g82
ag83
ag52
ag53
aa(lp833
g82
ag83
ag55
ag56
aa(lp834
g82
ag83
ag58
ag59
aa(lp835
g82
ag83
ag61
ag62
aa(lp836
g82
ag83
ag64
ag65
aa(lp837
g82
ag83
ag67
ag68
aa(lp838
g82
ag83
ag70
ag71
aa(lp839
g82
ag83
ag73
ag74
aa(lp840
g82
ag83
ag76
ag77
aa(lp841
g82
ag83
ag79
ag80
aa(lp842
g82
ag83
ag85
ag86
aa(lp843
g85
ag86
ag2
ag3
aa(lp844
g85
ag86
ag4
ag5
aa(lp845
g85
ag86
ag7
ag8
aa(lp846
g85
ag86
ag10
ag11
aa(lp847
g85
ag86
ag13
ag14
aa(lp848
g85
ag86
ag16
ag17
aa(lp849
g85
ag86
ag19
ag20
aa(lp850
g85
ag86
ag22
ag23
aa(lp851
g85
ag86
ag25
ag26
aa(lp852
g85
ag86
ag28
ag29
aa(lp853
g85
ag86
ag31
ag32
aa(lp854
g85
ag86
ag34
ag35
aa(lp855
g85
ag86
ag37
ag38
aa(lp856
g85
ag86
ag40
ag41
aa(lp857
g85
ag86
ag43
ag44
aa(lp858
g85
ag86
ag46
ag47
aa(lp859
g85
ag86
ag49
ag50
aa(lp860
g85
ag86
ag52
ag53
aa(lp861
g85
ag86
ag55
ag56
aa(lp862
g85
ag86
ag58
ag59
aa(lp863
g85
ag86
ag61
ag62
aa(lp864
g85
ag86
ag64
ag65
aa(lp865
g85
ag86
ag67
ag68
aa(lp866
g85
ag86
ag70
ag71
aa(lp867
g85
ag86
ag73
ag74
aa(lp868
g85
ag86
ag76
ag77
aa(lp869
g85
ag86
ag79
ag80
aa(lp870
g85
ag86
ag82
ag83
aa.