(lp0
(lp1
S'jam_NN'
p2
aS'jar_NN'
p3
aS'potatoes_NNS'
p4
aS'sack_NN'
p5
aa(lp6
S'jam_NN'
p7
aS'jar_NN'
p8
aS'cereal_NN'
p9
aS'box_NN'
p10
aa(lp11
S'jam_NN'
p12
aS'jar_NN'
p13
aS'chips_NNS'
p14
aS'bag_NN'
p15
aa(lp16
S'jam_NN'
p17
aS'jar_NN'
p18
aS'carrots_NNS'
p19
aS'bag_NN'
p20
aa(lp21
S'jam_NN'
p22
aS'jar_NN'
p23
aS'pickles_NNS'
p24
aS'jar_NN'
p25
aa(lp26
S'jam_NN'
p27
aS'jar_NN'
p28
aS'ketchup_NN'
p29
aS'bottle_NN'
p30
aa(lp31
S'jam_NN'
p32
aS'jar_NN'
p33
aS'milk_NN'
p34
aS'jug_NN'
p35
aa(lp36
S'jam_NN'
p37
aS'jar_NN'
p38
aS'soda_NN'
p39
aS'can_MD'
p40
aa(lp41
S'jam_NN'
p42
aS'jar_NN'
p43
aS'games_NNS'
p44
aS'box_NN'
p45
aa(lp46
S'jam_NN'
p47
aS'jar_NN'
p48
aS'soap_NN'
p49
aS'dish_NN'
p50
aa(lp51
S'jam_NN'
p52
aS'jar_NN'
p53
aS'detergent_NN'
p54
aS'bottle_NN'
p55
aa(lp56
S'jam_NN'
p57
aS'jar_NN'
p58
aS'diapers_NNS'
p59
aS'box_NN'
p60
aa(lp61
S'jam_NN'
p62
aS'jar_NN'
p63
aS'water_NN'
p64
aS'bottle_NN'
p65
aa(lp66
S'jam_NN'
p67
aS'jar_NN'
p68
aS'money_NN'
p69
aS'wallet_NN'
p70
aa(lp71
S'jam_NN'
p72
aS'jar_NN'
p73
aS'trash_NN'
p74
aS'can_MD'
p75
aa(lp76
S'jam_NN'
p77
aS'jar_NN'
p78
aS'kleenex_NN'
p79
aS'box_NN'
p80
aa(lp81
S'jam_NN'
p82
aS'jar_NN'
p83
aS'poster_NN'
p84
aS'tube_NN'
p85
aa(lp86
S'jam_NN'
p87
aS'jar_NN'
p88
aS'picture_NN'
p89
aS'frame_NN'
p90
aa(lp91
S'jam_NN'
p92
aS'jar_NN'
p93
aS'silverware_NN'
p94
aS'drawer_NN'
p95
aa(lp96
S'jam_NN'
p97
aS'jar_NN'
p98
aS'socks_NNS'
p99
aS'drawer_NN'
p100
aa(lp101
S'potatoes_NNS'
p102
aS'sack_NN'
p103
aS'jam_NN'
p104
aS'jar_NN'
p105
aa(lp106
S'potatoes_NNS'
p107
aS'sack_NN'
p108
aS'cereal_NN'
p109
aS'box_NN'
p110
aa(lp111
S'potatoes_NNS'
p112
aS'sack_NN'
p113
aS'chips_NNS'
p114
aS'bag_NN'
p115
aa(lp116
S'potatoes_NNS'
p117
aS'sack_NN'
p118
aS'carrots_NNS'
p119
aS'bag_NN'
p120
aa(lp121
S'potatoes_NNS'
p122
aS'sack_NN'
p123
aS'pickles_NNS'
p124
aS'jar_NN'
p125
aa(lp126
S'potatoes_NNS'
p127
aS'sack_NN'
p128
aS'ketchup_NN'
p129
aS'bottle_NN'
p130
aa(lp131
S'potatoes_NNS'
p132
aS'sack_NN'
p133
aS'milk_NN'
p134
aS'jug_NN'
p135
aa(lp136
S'potatoes_NNS'
p137
aS'sack_NN'
p138
aS'soda_NN'
p139
aS'can_MD'
p140
aa(lp141
S'potatoes_NNS'
p142
aS'sack_NN'
p143
aS'games_NNS'
p144
aS'box_NN'
p145
aa(lp146
S'potatoes_NNS'
p147
aS'sack_NN'
p148
aS'soap_NN'
p149
aS'dish_NN'
p150
aa(lp151
S'potatoes_NNS'
p152
aS'sack_NN'
p153
aS'detergent_NN'
p154
aS'bottle_NN'
p155
aa(lp156
S'potatoes_NNS'
p157
aS'sack_NN'
p158
aS'diapers_NNS'
p159
aS'box_NN'
p160
aa(lp161
S'potatoes_NNS'
p162
aS'sack_NN'
p163
aS'water_NN'
p164
aS'bottle_NN'
p165
aa(lp166
S'potatoes_NNS'
p167
aS'sack_NN'
p168
aS'money_NN'
p169
aS'wallet_NN'
p170
aa(lp171
S'potatoes_NNS'
p172
aS'sack_NN'
p173
aS'trash_NN'
p174
aS'can_MD'
p175
aa(lp176
S'potatoes_NNS'
p177
aS'sack_NN'
p178
aS'kleenex_NN'
p179
aS'box_NN'
p180
aa(lp181
S'potatoes_NNS'
p182
aS'sack_NN'
p183
aS'poster_NN'
p184
aS'tube_NN'
p185
aa(lp186
S'potatoes_NNS'
p187
aS'sack_NN'
p188
aS'picture_NN'
p189
aS'frame_NN'
p190
aa(lp191
S'potatoes_NNS'
p192
aS'sack_NN'
p193
aS'silverware_NN'
p194
aS'drawer_NN'
p195
aa(lp196
S'potatoes_NNS'
p197
aS'sack_NN'
p198
aS'socks_NNS'
p199
aS'drawer_NN'
p200
aa(lp201
S'cereal_NN'
p202
aS'box_NN'
p203
aS'jam_NN'
p204
aS'jar_NN'
p205
aa(lp206
S'cereal_NN'
p207
aS'box_NN'
p208
aS'potatoes_NNS'
p209
aS'sack_NN'
p210
aa(lp211
S'cereal_NN'
p212
aS'box_NN'
p213
aS'chips_NNS'
p214
aS'bag_NN'
p215
aa(lp216
S'cereal_NN'
p217
aS'box_NN'
p218
aS'carrots_NNS'
p219
aS'bag_NN'
p220
aa(lp221
S'cereal_NN'
p222
aS'box_NN'
p223
aS'pickles_NNS'
p224
aS'jar_NN'
p225
aa(lp226
S'cereal_NN'
p227
aS'box_NN'
p228
aS'ketchup_NN'
p229
aS'bottle_NN'
p230
aa(lp231
S'cereal_NN'
p232
aS'box_NN'
p233
aS'milk_NN'
p234
aS'jug_NN'
p235
aa(lp236
S'cereal_NN'
p237
aS'box_NN'
p238
aS'soda_NN'
p239
aS'can_MD'
p240
aa(lp241
S'cereal_NN'
p242
aS'box_NN'
p243
aS'games_NNS'
p244
aS'box_NN'
p245
aa(lp246
S'cereal_NN'
p247
aS'box_NN'
p248
aS'soap_NN'
p249
aS'dish_NN'
p250
aa(lp251
S'cereal_NN'
p252
aS'box_NN'
p253
aS'detergent_NN'
p254
aS'bottle_NN'
p255
aa(lp256
S'cereal_NN'
p257
aS'box_NN'
p258
aS'diapers_NNS'
p259
aS'box_NN'
p260
aa(lp261
S'cereal_NN'
p262
aS'box_NN'
p263
aS'water_NN'
p264
aS'bottle_NN'
p265
aa(lp266
S'cereal_NN'
p267
aS'box_NN'
p268
aS'money_NN'
p269
aS'wallet_NN'
p270
aa(lp271
S'cereal_NN'
p272
aS'box_NN'
p273
aS'trash_NN'
p274
aS'can_MD'
p275
aa(lp276
S'cereal_NN'
p277
aS'box_NN'
p278
aS'kleenex_NN'
p279
aS'box_NN'
p280
aa(lp281
S'cereal_NN'
p282
aS'box_NN'
p283
aS'poster_NN'
p284
aS'tube_NN'
p285
aa(lp286
S'cereal_NN'
p287
aS'box_NN'
p288
aS'picture_NN'
p289
aS'frame_NN'
p290
aa(lp291
S'cereal_NN'
p292
aS'box_NN'
p293
aS'silverware_NN'
p294
aS'drawer_NN'
p295
aa(lp296
S'cereal_NN'
p297
aS'box_NN'
p298
aS'socks_NNS'
p299
aS'drawer_NN'
p300
aa(lp301
S'chips_NNS'
p302
aS'bag_NN'
p303
aS'jam_NN'
p304
aS'jar_NN'
p305
aa(lp306
S'chips_NNS'
p307
aS'bag_NN'
p308
aS'potatoes_NNS'
p309
aS'sack_NN'
p310
aa(lp311
S'chips_NNS'
p312
aS'bag_NN'
p313
aS'cereal_NN'
p314
aS'box_NN'
p315
aa(lp316
S'chips_NNS'
p317
aS'bag_NN'
p318
aS'carrots_NNS'
p319
aS'bag_NN'
p320
aa(lp321
S'chips_NNS'
p322
aS'bag_NN'
p323
aS'pickles_NNS'
p324
aS'jar_NN'
p325
aa(lp326
S'chips_NNS'
p327
aS'bag_NN'
p328
aS'ketchup_NN'
p329
aS'bottle_NN'
p330
aa(lp331
S'chips_NNS'
p332
aS'bag_NN'
p333
aS'milk_NN'
p334
aS'jug_NN'
p335
aa(lp336
S'chips_NNS'
p337
aS'bag_NN'
p338
aS'soda_NN'
p339
aS'can_MD'
p340
aa(lp341
S'chips_NNS'
p342
aS'bag_NN'
p343
aS'games_NNS'
p344
aS'box_NN'
p345
aa(lp346
S'chips_NNS'
p347
aS'bag_NN'
p348
aS'soap_NN'
p349
aS'dish_NN'
p350
aa(lp351
S'chips_NNS'
p352
aS'bag_NN'
p353
aS'detergent_NN'
p354
aS'bottle_NN'
p355
aa(lp356
S'chips_NNS'
p357
aS'bag_NN'
p358
aS'diapers_NNS'
p359
aS'box_NN'
p360
aa(lp361
S'chips_NNS'
p362
aS'bag_NN'
p363
aS'water_NN'
p364
aS'bottle_NN'
p365
aa(lp366
S'chips_NNS'
p367
aS'bag_NN'
p368
aS'money_NN'
p369
aS'wallet_NN'
p370
aa(lp371
S'chips_NNS'
p372
aS'bag_NN'
p373
aS'trash_NN'
p374
aS'can_MD'
p375
aa(lp376
S'chips_NNS'
p377
aS'bag_NN'
p378
aS'kleenex_NN'
p379
aS'box_NN'
p380
aa(lp381
S'chips_NNS'
p382
aS'bag_NN'
p383
aS'poster_NN'
p384
aS'tube_NN'
p385
aa(lp386
S'chips_NNS'
p387
aS'bag_NN'
p388
aS'picture_NN'
p389
aS'frame_NN'
p390
aa(lp391
S'chips_NNS'
p392
aS'bag_NN'
p393
aS'silverware_NN'
p394
aS'drawer_NN'
p395
aa(lp396
S'chips_NNS'
p397
aS'bag_NN'
p398
aS'socks_NNS'
p399
aS'drawer_NN'
p400
aa(lp401
S'carrots_NNS'
p402
aS'bag_NN'
p403
aS'jam_NN'
p404
aS'jar_NN'
p405
aa(lp406
S'carrots_NNS'
p407
aS'bag_NN'
p408
aS'potatoes_NNS'
p409
aS'sack_NN'
p410
aa(lp411
S'carrots_NNS'
p412
aS'bag_NN'
p413
aS'cereal_NN'
p414
aS'box_NN'
p415
aa(lp416
S'carrots_NNS'
p417
aS'bag_NN'
p418
aS'chips_NNS'
p419
aS'bag_NN'
p420
aa(lp421
S'carrots_NNS'
p422
aS'bag_NN'
p423
aS'pickles_NNS'
p424
aS'jar_NN'
p425
aa(lp426
S'carrots_NNS'
p427
aS'bag_NN'
p428
aS'ketchup_NN'
p429
aS'bottle_NN'
p430
aa(lp431
S'carrots_NNS'
p432
aS'bag_NN'
p433
aS'milk_NN'
p434
aS'jug_NN'
p435
aa(lp436
S'carrots_NNS'
p437
aS'bag_NN'
p438
aS'soda_NN'
p439
aS'can_MD'
p440
aa(lp441
S'carrots_NNS'
p442
aS'bag_NN'
p443
aS'games_NNS'
p444
aS'box_NN'
p445
aa(lp446
S'carrots_NNS'
p447
aS'bag_NN'
p448
aS'soap_NN'
p449
aS'dish_NN'
p450
aa(lp451
S'carrots_NNS'
p452
aS'bag_NN'
p453
aS'detergent_NN'
p454
aS'bottle_NN'
p455
aa(lp456
S'carrots_NNS'
p457
aS'bag_NN'
p458
aS'diapers_NNS'
p459
aS'box_NN'
p460
aa(lp461
S'carrots_NNS'
p462
aS'bag_NN'
p463
aS'water_NN'
p464
aS'bottle_NN'
p465
aa(lp466
S'carrots_NNS'
p467
aS'bag_NN'
p468
aS'money_NN'
p469
aS'wallet_NN'
p470
aa(lp471
S'carrots_NNS'
p472
aS'bag_NN'
p473
aS'trash_NN'
p474
aS'can_MD'
p475
aa(lp476
S'carrots_NNS'
p477
aS'bag_NN'
p478
aS'kleenex_NN'
p479
aS'box_NN'
p480
aa(lp481
S'carrots_NNS'
p482
aS'bag_NN'
p483
aS'poster_NN'
p484
aS'tube_NN'
p485
aa(lp486
S'carrots_NNS'
p487
aS'bag_NN'
p488
aS'picture_NN'
p489
aS'frame_NN'
p490
aa(lp491
S'carrots_NNS'
p492
aS'bag_NN'
p493
aS'silverware_NN'
p494
aS'drawer_NN'
p495
aa(lp496
S'carrots_NNS'
p497
aS'bag_NN'
p498
aS'socks_NNS'
p499
aS'drawer_NN'
p500
aa(lp501
S'pickles_NNS'
p502
aS'jar_NN'
p503
aS'jam_NN'
p504
aS'jar_NN'
p505
aa(lp506
S'pickles_NNS'
p507
aS'jar_NN'
p508
aS'potatoes_NNS'
p509
aS'sack_NN'
p510
aa(lp511
S'pickles_NNS'
p512
aS'jar_NN'
p513
aS'cereal_NN'
p514
aS'box_NN'
p515
aa(lp516
S'pickles_NNS'
p517
aS'jar_NN'
p518
aS'chips_NNS'
p519
aS'bag_NN'
p520
aa(lp521
S'pickles_NNS'
p522
aS'jar_NN'
p523
aS'carrots_NNS'
p524
aS'bag_NN'
p525
aa(lp526
S'pickles_NNS'
p527
aS'jar_NN'
p528
aS'ketchup_NN'
p529
aS'bottle_NN'
p530
aa(lp531
S'pickles_NNS'
p532
aS'jar_NN'
p533
aS'milk_NN'
p534
aS'jug_NN'
p535
aa(lp536
S'pickles_NNS'
p537
aS'jar_NN'
p538
aS'soda_NN'
p539
aS'can_MD'
p540
aa(lp541
S'pickles_NNS'
p542
aS'jar_NN'
p543
aS'games_NNS'
p544
aS'box_NN'
p545
aa(lp546
S'pickles_NNS'
p547
aS'jar_NN'
p548
aS'soap_NN'
p549
aS'dish_NN'
p550
aa(lp551
S'pickles_NNS'
p552
aS'jar_NN'
p553
aS'detergent_NN'
p554
aS'bottle_NN'
p555
aa(lp556
S'pickles_NNS'
p557
aS'jar_NN'
p558
aS'diapers_NNS'
p559
aS'box_NN'
p560
aa(lp561
S'pickles_NNS'
p562
aS'jar_NN'
p563
aS'water_NN'
p564
aS'bottle_NN'
p565
aa(lp566
S'pickles_NNS'
p567
aS'jar_NN'
p568
aS'money_NN'
p569
aS'wallet_NN'
p570
aa(lp571
S'pickles_NNS'
p572
aS'jar_NN'
p573
aS'trash_NN'
p574
aS'can_MD'
p575
aa(lp576
S'pickles_NNS'
p577
aS'jar_NN'
p578
aS'kleenex_NN'
p579
aS'box_NN'
p580
aa(lp581
S'pickles_NNS'
p582
aS'jar_NN'
p583
aS'poster_NN'
p584
aS'tube_NN'
p585
aa(lp586
S'pickles_NNS'
p587
aS'jar_NN'
p588
aS'picture_NN'
p589
aS'frame_NN'
p590
aa(lp591
S'pickles_NNS'
p592
aS'jar_NN'
p593
aS'silverware_NN'
p594
aS'drawer_NN'
p595
aa(lp596
S'pickles_NNS'
p597
aS'jar_NN'
p598
aS'socks_NNS'
p599
aS'drawer_NN'
p600
aa(lp601
S'ketchup_NN'
p602
aS'bottle_NN'
p603
aS'jam_NN'
p604
aS'jar_NN'
p605
aa(lp606
S'ketchup_NN'
p607
aS'bottle_NN'
p608
aS'potatoes_NNS'
p609
aS'sack_NN'
p610
aa(lp611
S'ketchup_NN'
p612
aS'bottle_NN'
p613
aS'cereal_NN'
p614
aS'box_NN'
p615
aa(lp616
S'ketchup_NN'
p617
aS'bottle_NN'
p618
aS'chips_NNS'
p619
aS'bag_NN'
p620
aa(lp621
S'ketchup_NN'
p622
aS'bottle_NN'
p623
aS'carrots_NNS'
p624
aS'bag_NN'
p625
aa(lp626
S'ketchup_NN'
p627
aS'bottle_NN'
p628
aS'pickles_NNS'
p629
aS'jar_NN'
p630
aa(lp631
S'ketchup_NN'
p632
aS'bottle_NN'
p633
aS'milk_NN'
p634
aS'jug_NN'
p635
aa(lp636
S'ketchup_NN'
p637
aS'bottle_NN'
p638
aS'soda_NN'
p639
aS'can_MD'
p640
aa(lp641
S'ketchup_NN'
p642
aS'bottle_NN'
p643
aS'games_NNS'
p644
aS'box_NN'
p645
aa(lp646
S'ketchup_NN'
p647
aS'bottle_NN'
p648
aS'soap_NN'
p649
aS'dish_NN'
p650
aa(lp651
S'ketchup_NN'
p652
aS'bottle_NN'
p653
aS'detergent_NN'
p654
aS'bottle_NN'
p655
aa(lp656
S'ketchup_NN'
p657
aS'bottle_NN'
p658
aS'diapers_NNS'
p659
aS'box_NN'
p660
aa(lp661
S'ketchup_NN'
p662
aS'bottle_NN'
p663
aS'water_NN'
p664
aS'bottle_NN'
p665
aa(lp666
S'ketchup_NN'
p667
aS'bottle_NN'
p668
aS'money_NN'
p669
aS'wallet_NN'
p670
aa(lp671
S'ketchup_NN'
p672
aS'bottle_NN'
p673
aS'trash_NN'
p674
aS'can_MD'
p675
aa(lp676
S'ketchup_NN'
p677
aS'bottle_NN'
p678
aS'kleenex_NN'
p679
aS'box_NN'
p680
aa(lp681
S'ketchup_NN'
p682
aS'bottle_NN'
p683
aS'poster_NN'
p684
aS'tube_NN'
p685
aa(lp686
S'ketchup_NN'
p687
aS'bottle_NN'
p688
aS'picture_NN'
p689
aS'frame_NN'
p690
aa(lp691
S'ketchup_NN'
p692
aS'bottle_NN'
p693
aS'silverware_NN'
p694
aS'drawer_NN'
p695
aa(lp696
S'ketchup_NN'
p697
aS'bottle_NN'
p698
aS'socks_NNS'
p699
aS'drawer_NN'
p700
aa(lp701
S'milk_NN'
p702
aS'jug_NN'
p703
aS'jam_NN'
p704
aS'jar_NN'
p705
aa(lp706
S'milk_NN'
p707
aS'jug_NN'
p708
aS'potatoes_NNS'
p709
aS'sack_NN'
p710
aa(lp711
S'milk_NN'
p712
aS'jug_NN'
p713
aS'cereal_NN'
p714
aS'box_NN'
p715
aa(lp716
S'milk_NN'
p717
aS'jug_NN'
p718
aS'chips_NNS'
p719
aS'bag_NN'
p720
aa(lp721
S'milk_NN'
p722
aS'jug_NN'
p723
aS'carrots_NNS'
p724
aS'bag_NN'
p725
aa(lp726
S'milk_NN'
p727
aS'jug_NN'
p728
aS'pickles_NNS'
p729
aS'jar_NN'
p730
aa(lp731
S'milk_NN'
p732
aS'jug_NN'
p733
aS'ketchup_NN'
p734
aS'bottle_NN'
p735
aa(lp736
S'milk_NN'
p737
aS'jug_NN'
p738
aS'soda_NN'
p739
aS'can_MD'
p740
aa(lp741
S'milk_NN'
p742
aS'jug_NN'
p743
aS'games_NNS'
p744
aS'box_NN'
p745
aa(lp746
S'milk_NN'
p747
aS'jug_NN'
p748
aS'soap_NN'
p749
aS'dish_NN'
p750
aa(lp751
S'milk_NN'
p752
aS'jug_NN'
p753
aS'detergent_NN'
p754
aS'bottle_NN'
p755
aa(lp756
S'milk_NN'
p757
aS'jug_NN'
p758
aS'diapers_NNS'
p759
aS'box_NN'
p760
aa(lp761
S'milk_NN'
p762
aS'jug_NN'
p763
aS'water_NN'
p764
aS'bottle_NN'
p765
aa(lp766
S'milk_NN'
p767
aS'jug_NN'
p768
aS'money_NN'
p769
aS'wallet_NN'
p770
aa(lp771
S'milk_NN'
p772
aS'jug_NN'
p773
aS'trash_NN'
p774
aS'can_MD'
p775
aa(lp776
S'milk_NN'
p777
aS'jug_NN'
p778
aS'kleenex_NN'
p779
aS'box_NN'
p780
aa(lp781
S'milk_NN'
p782
aS'jug_NN'
p783
aS'poster_NN'
p784
aS'tube_NN'
p785
aa(lp786
S'milk_NN'
p787
aS'jug_NN'
p788
aS'picture_NN'
p789
aS'frame_NN'
p790
aa(lp791
S'milk_NN'
p792
aS'jug_NN'
p793
aS'silverware_NN'
p794
aS'drawer_NN'
p795
aa(lp796
S'milk_NN'
p797
aS'jug_NN'
p798
aS'socks_NNS'
p799
aS'drawer_NN'
p800
aa(lp801
S'soda_NN'
p802
aS'can_MD'
p803
aS'jam_NN'
p804
aS'jar_NN'
p805
aa(lp806
S'soda_NN'
p807
aS'can_MD'
p808
aS'potatoes_NNS'
p809
aS'sack_NN'
p810
aa(lp811
S'soda_NN'
p812
aS'can_MD'
p813
aS'cereal_NN'
p814
aS'box_NN'
p815
aa(lp816
S'soda_NN'
p817
aS'can_MD'
p818
aS'chips_NNS'
p819
aS'bag_NN'
p820
aa(lp821
S'soda_NN'
p822
aS'can_MD'
p823
aS'carrots_NNS'
p824
aS'bag_NN'
p825
aa(lp826
S'soda_NN'
p827
aS'can_MD'
p828
aS'pickles_NNS'
p829
aS'jar_NN'
p830
aa(lp831
S'soda_NN'
p832
aS'can_MD'
p833
aS'ketchup_NN'
p834
aS'bottle_NN'
p835
aa(lp836
S'soda_NN'
p837
aS'can_MD'
p838
aS'milk_NN'
p839
aS'jug_NN'
p840
aa(lp841
S'soda_NN'
p842
aS'can_MD'
p843
aS'games_NNS'
p844
aS'box_NN'
p845
aa(lp846
S'soda_NN'
p847
aS'can_MD'
p848
aS'soap_NN'
p849
aS'dish_NN'
p850
aa(lp851
S'soda_NN'
p852
aS'can_MD'
p853
aS'detergent_NN'
p854
aS'bottle_NN'
p855
aa(lp856
S'soda_NN'
p857
aS'can_MD'
p858
aS'diapers_NNS'
p859
aS'box_NN'
p860
aa(lp861
S'soda_NN'
p862
aS'can_MD'
p863
aS'water_NN'
p864
aS'bottle_NN'
p865
aa(lp866
S'soda_NN'
p867
aS'can_MD'
p868
aS'money_NN'
p869
aS'wallet_NN'
p870
aa(lp871
S'soda_NN'
p872
aS'can_MD'
p873
aS'trash_NN'
p874
aS'can_MD'
p875
aa(lp876
S'soda_NN'
p877
aS'can_MD'
p878
aS'kleenex_NN'
p879
aS'box_NN'
p880
aa(lp881
S'soda_NN'
p882
aS'can_MD'
p883
aS'poster_NN'
p884
aS'tube_NN'
p885
aa(lp886
S'soda_NN'
p887
aS'can_MD'
p888
aS'picture_NN'
p889
aS'frame_NN'
p890
aa(lp891
S'soda_NN'
p892
aS'can_MD'
p893
aS'silverware_NN'
p894
aS'drawer_NN'
p895
aa(lp896
S'soda_NN'
p897
aS'can_MD'
p898
aS'socks_NNS'
p899
aS'drawer_NN'
p900
aa(lp901
S'games_NNS'
p902
aS'box_NN'
p903
aS'jam_NN'
p904
aS'jar_NN'
p905
aa(lp906
S'games_NNS'
p907
aS'box_NN'
p908
aS'potatoes_NNS'
p909
aS'sack_NN'
p910
aa(lp911
S'games_NNS'
p912
aS'box_NN'
p913
aS'cereal_NN'
p914
aS'box_NN'
p915
aa(lp916
S'games_NNS'
p917
aS'box_NN'
p918
aS'chips_NNS'
p919
aS'bag_NN'
p920
aa(lp921
S'games_NNS'
p922
aS'box_NN'
p923
aS'carrots_NNS'
p924
aS'bag_NN'
p925
aa(lp926
S'games_NNS'
p927
aS'box_NN'
p928
aS'pickles_NNS'
p929
aS'jar_NN'
p930
aa(lp931
S'games_NNS'
p932
aS'box_NN'
p933
aS'ketchup_NN'
p934
aS'bottle_NN'
p935
aa(lp936
S'games_NNS'
p937
aS'box_NN'
p938
aS'milk_NN'
p939
aS'jug_NN'
p940
aa(lp941
S'games_NNS'
p942
aS'box_NN'
p943
aS'soda_NN'
p944
aS'can_MD'
p945
aa(lp946
S'games_NNS'
p947
aS'box_NN'
p948
aS'soap_NN'
p949
aS'dish_NN'
p950
aa(lp951
S'games_NNS'
p952
aS'box_NN'
p953
aS'detergent_NN'
p954
aS'bottle_NN'
p955
aa(lp956
S'games_NNS'
p957
aS'box_NN'
p958
aS'diapers_NNS'
p959
aS'box_NN'
p960
aa(lp961
S'games_NNS'
p962
aS'box_NN'
p963
aS'water_NN'
p964
aS'bottle_NN'
p965
aa(lp966
S'games_NNS'
p967
aS'box_NN'
p968
aS'money_NN'
p969
aS'wallet_NN'
p970
aa(lp971
S'games_NNS'
p972
aS'box_NN'
p973
aS'trash_NN'
p974
aS'can_MD'
p975
aa(lp976
S'games_NNS'
p977
aS'box_NN'
p978
aS'kleenex_NN'
p979
aS'box_NN'
p980
aa(lp981
S'games_NNS'
p982
aS'box_NN'
p983
aS'poster_NN'
p984
aS'tube_NN'
p985
aa(lp986
S'games_NNS'
p987
aS'box_NN'
p988
aS'picture_NN'
p989
aS'frame_NN'
p990
aa(lp991
S'games_NNS'
p992
aS'box_NN'
p993
aS'silverware_NN'
p994
aS'drawer_NN'
p995
aa(lp996
S'games_NNS'
p997
aS'box_NN'
p998
aS'socks_NNS'
p999
aS'drawer_NN'
p1000
aa(lp1001
S'soap_NN'
p1002
aS'dish_NN'
p1003
aS'jam_NN'
p1004
aS'jar_NN'
p1005
aa(lp1006
S'soap_NN'
p1007
aS'dish_NN'
p1008
aS'potatoes_NNS'
p1009
aS'sack_NN'
p1010
aa(lp1011
S'soap_NN'
p1012
aS'dish_NN'
p1013
aS'cereal_NN'
p1014
aS'box_NN'
p1015
aa(lp1016
S'soap_NN'
p1017
aS'dish_NN'
p1018
aS'chips_NNS'
p1019
aS'bag_NN'
p1020
aa(lp1021
S'soap_NN'
p1022
aS'dish_NN'
p1023
aS'carrots_NNS'
p1024
aS'bag_NN'
p1025
aa(lp1026
S'soap_NN'
p1027
aS'dish_NN'
p1028
aS'pickles_NNS'
p1029
aS'jar_NN'
p1030
aa(lp1031
S'soap_NN'
p1032
aS'dish_NN'
p1033
aS'ketchup_NN'
p1034
aS'bottle_NN'
p1035
aa(lp1036
S'soap_NN'
p1037
aS'dish_NN'
p1038
aS'milk_NN'
p1039
aS'jug_NN'
p1040
aa(lp1041
S'soap_NN'
p1042
aS'dish_NN'
p1043
aS'soda_NN'
p1044
aS'can_MD'
p1045
aa(lp1046
S'soap_NN'
p1047
aS'dish_NN'
p1048
aS'games_NNS'
p1049
aS'box_NN'
p1050
aa(lp1051
S'soap_NN'
p1052
aS'dish_NN'
p1053
aS'detergent_NN'
p1054
aS'bottle_NN'
p1055
aa(lp1056
S'soap_NN'
p1057
aS'dish_NN'
p1058
aS'diapers_NNS'
p1059
aS'box_NN'
p1060
aa(lp1061
S'soap_NN'
p1062
aS'dish_NN'
p1063
aS'water_NN'
p1064
aS'bottle_NN'
p1065
aa(lp1066
S'soap_NN'
p1067
aS'dish_NN'
p1068
aS'money_NN'
p1069
aS'wallet_NN'
p1070
aa(lp1071
S'soap_NN'
p1072
aS'dish_NN'
p1073
aS'trash_NN'
p1074
aS'can_MD'
p1075
aa(lp1076
S'soap_NN'
p1077
aS'dish_NN'
p1078
aS'kleenex_NN'
p1079
aS'box_NN'
p1080
aa(lp1081
S'soap_NN'
p1082
aS'dish_NN'
p1083
aS'poster_NN'
p1084
aS'tube_NN'
p1085
aa(lp1086
S'soap_NN'
p1087
aS'dish_NN'
p1088
aS'picture_NN'
p1089
aS'frame_NN'
p1090
aa(lp1091
S'soap_NN'
p1092
aS'dish_NN'
p1093
aS'silverware_NN'
p1094
aS'drawer_NN'
p1095
aa(lp1096
S'soap_NN'
p1097
aS'dish_NN'
p1098
aS'socks_NNS'
p1099
aS'drawer_NN'
p1100
aa(lp1101
S'detergent_NN'
p1102
aS'bottle_NN'
p1103
aS'jam_NN'
p1104
aS'jar_NN'
p1105
aa(lp1106
S'detergent_NN'
p1107
aS'bottle_NN'
p1108
aS'potatoes_NNS'
p1109
aS'sack_NN'
p1110
aa(lp1111
S'detergent_NN'
p1112
aS'bottle_NN'
p1113
aS'cereal_NN'
p1114
aS'box_NN'
p1115
aa(lp1116
S'detergent_NN'
p1117
aS'bottle_NN'
p1118
aS'chips_NNS'
p1119
aS'bag_NN'
p1120
aa(lp1121
S'detergent_NN'
p1122
aS'bottle_NN'
p1123
aS'carrots_NNS'
p1124
aS'bag_NN'
p1125
aa(lp1126
S'detergent_NN'
p1127
aS'bottle_NN'
p1128
aS'pickles_NNS'
p1129
aS'jar_NN'
p1130
aa(lp1131
S'detergent_NN'
p1132
aS'bottle_NN'
p1133
aS'ketchup_NN'
p1134
aS'bottle_NN'
p1135
aa(lp1136
S'detergent_NN'
p1137
aS'bottle_NN'
p1138
aS'milk_NN'
p1139
aS'jug_NN'
p1140
aa(lp1141
S'detergent_NN'
p1142
aS'bottle_NN'
p1143
aS'soda_NN'
p1144
aS'can_MD'
p1145
aa(lp1146
S'detergent_NN'
p1147
aS'bottle_NN'
p1148
aS'games_NNS'
p1149
aS'box_NN'
p1150
aa(lp1151
S'detergent_NN'
p1152
aS'bottle_NN'
p1153
aS'soap_NN'
p1154
aS'dish_NN'
p1155
aa(lp1156
S'detergent_NN'
p1157
aS'bottle_NN'
p1158
aS'diapers_NNS'
p1159
aS'box_NN'
p1160
aa(lp1161
S'detergent_NN'
p1162
aS'bottle_NN'
p1163
aS'water_NN'
p1164
aS'bottle_NN'
p1165
aa(lp1166
S'detergent_NN'
p1167
aS'bottle_NN'
p1168
aS'money_NN'
p1169
aS'wallet_NN'
p1170
aa(lp1171
S'detergent_NN'
p1172
aS'bottle_NN'
p1173
aS'trash_NN'
p1174
aS'can_MD'
p1175
aa(lp1176
S'detergent_NN'
p1177
aS'bottle_NN'
p1178
aS'kleenex_NN'
p1179
aS'box_NN'
p1180
aa(lp1181
S'detergent_NN'
p1182
aS'bottle_NN'
p1183
aS'poster_NN'
p1184
aS'tube_NN'
p1185
aa(lp1186
S'detergent_NN'
p1187
aS'bottle_NN'
p1188
aS'picture_NN'
p1189
aS'frame_NN'
p1190
aa(lp1191
S'detergent_NN'
p1192
aS'bottle_NN'
p1193
aS'silverware_NN'
p1194
aS'drawer_NN'
p1195
aa(lp1196
S'detergent_NN'
p1197
aS'bottle_NN'
p1198
aS'socks_NNS'
p1199
aS'drawer_NN'
p1200
aa(lp1201
S'diapers_NNS'
p1202
aS'box_NN'
p1203
aS'jam_NN'
p1204
aS'jar_NN'
p1205
aa(lp1206
S'diapers_NNS'
p1207
aS'box_NN'
p1208
aS'potatoes_NNS'
p1209
aS'sack_NN'
p1210
aa(lp1211
S'diapers_NNS'
p1212
aS'box_NN'
p1213
aS'cereal_NN'
p1214
aS'box_NN'
p1215
aa(lp1216
S'diapers_NNS'
p1217
aS'box_NN'
p1218
aS'chips_NNS'
p1219
aS'bag_NN'
p1220
aa(lp1221
S'diapers_NNS'
p1222
aS'box_NN'
p1223
aS'carrots_NNS'
p1224
aS'bag_NN'
p1225
aa(lp1226
S'diapers_NNS'
p1227
aS'box_NN'
p1228
aS'pickles_NNS'
p1229
aS'jar_NN'
p1230
aa(lp1231
S'diapers_NNS'
p1232
aS'box_NN'
p1233
aS'ketchup_NN'
p1234
aS'bottle_NN'
p1235
aa(lp1236
S'diapers_NNS'
p1237
aS'box_NN'
p1238
aS'milk_NN'
p1239
aS'jug_NN'
p1240
aa(lp1241
S'diapers_NNS'
p1242
aS'box_NN'
p1243
aS'soda_NN'
p1244
aS'can_MD'
p1245
aa(lp1246
S'diapers_NNS'
p1247
aS'box_NN'
p1248
aS'games_NNS'
p1249
aS'box_NN'
p1250
aa(lp1251
S'diapers_NNS'
p1252
aS'box_NN'
p1253
aS'soap_NN'
p1254
aS'dish_NN'
p1255
aa(lp1256
S'diapers_NNS'
p1257
aS'box_NN'
p1258
aS'detergent_NN'
p1259
aS'bottle_NN'
p1260
aa(lp1261
S'diapers_NNS'
p1262
aS'box_NN'
p1263
aS'water_NN'
p1264
aS'bottle_NN'
p1265
aa(lp1266
S'diapers_NNS'
p1267
aS'box_NN'
p1268
aS'money_NN'
p1269
aS'wallet_NN'
p1270
aa(lp1271
S'diapers_NNS'
p1272
aS'box_NN'
p1273
aS'trash_NN'
p1274
aS'can_MD'
p1275
aa(lp1276
S'diapers_NNS'
p1277
aS'box_NN'
p1278
aS'kleenex_NN'
p1279
aS'box_NN'
p1280
aa(lp1281
S'diapers_NNS'
p1282
aS'box_NN'
p1283
aS'poster_NN'
p1284
aS'tube_NN'
p1285
aa(lp1286
S'diapers_NNS'
p1287
aS'box_NN'
p1288
aS'picture_NN'
p1289
aS'frame_NN'
p1290
aa(lp1291
S'diapers_NNS'
p1292
aS'box_NN'
p1293
aS'silverware_NN'
p1294
aS'drawer_NN'
p1295
aa(lp1296
S'diapers_NNS'
p1297
aS'box_NN'
p1298
aS'socks_NNS'
p1299
aS'drawer_NN'
p1300
aa(lp1301
S'water_NN'
p1302
aS'bottle_NN'
p1303
aS'jam_NN'
p1304
aS'jar_NN'
p1305
aa(lp1306
S'water_NN'
p1307
aS'bottle_NN'
p1308
aS'potatoes_NNS'
p1309
aS'sack_NN'
p1310
aa(lp1311
S'water_NN'
p1312
aS'bottle_NN'
p1313
aS'cereal_NN'
p1314
aS'box_NN'
p1315
aa(lp1316
S'water_NN'
p1317
aS'bottle_NN'
p1318
aS'chips_NNS'
p1319
aS'bag_NN'
p1320
aa(lp1321
S'water_NN'
p1322
aS'bottle_NN'
p1323
aS'carrots_NNS'
p1324
aS'bag_NN'
p1325
aa(lp1326
S'water_NN'
p1327
aS'bottle_NN'
p1328
aS'pickles_NNS'
p1329
aS'jar_NN'
p1330
aa(lp1331
S'water_NN'
p1332
aS'bottle_NN'
p1333
aS'ketchup_NN'
p1334
aS'bottle_NN'
p1335
aa(lp1336
S'water_NN'
p1337
aS'bottle_NN'
p1338
aS'milk_NN'
p1339
aS'jug_NN'
p1340
aa(lp1341
S'water_NN'
p1342
aS'bottle_NN'
p1343
aS'soda_NN'
p1344
aS'can_MD'
p1345
aa(lp1346
S'water_NN'
p1347
aS'bottle_NN'
p1348
aS'games_NNS'
p1349
aS'box_NN'
p1350
aa(lp1351
S'water_NN'
p1352
aS'bottle_NN'
p1353
aS'soap_NN'
p1354
aS'dish_NN'
p1355
aa(lp1356
S'water_NN'
p1357
aS'bottle_NN'
p1358
aS'detergent_NN'
p1359
aS'bottle_NN'
p1360
aa(lp1361
S'water_NN'
p1362
aS'bottle_NN'
p1363
aS'diapers_NNS'
p1364
aS'box_NN'
p1365
aa(lp1366
S'water_NN'
p1367
aS'bottle_NN'
p1368
aS'money_NN'
p1369
aS'wallet_NN'
p1370
aa(lp1371
S'water_NN'
p1372
aS'bottle_NN'
p1373
aS'trash_NN'
p1374
aS'can_MD'
p1375
aa(lp1376
S'water_NN'
p1377
aS'bottle_NN'
p1378
aS'kleenex_NN'
p1379
aS'box_NN'
p1380
aa(lp1381
S'water_NN'
p1382
aS'bottle_NN'
p1383
aS'poster_NN'
p1384
aS'tube_NN'
p1385
aa(lp1386
S'water_NN'
p1387
aS'bottle_NN'
p1388
aS'picture_NN'
p1389
aS'frame_NN'
p1390
aa(lp1391
S'water_NN'
p1392
aS'bottle_NN'
p1393
aS'silverware_NN'
p1394
aS'drawer_NN'
p1395
aa(lp1396
S'water_NN'
p1397
aS'bottle_NN'
p1398
aS'socks_NNS'
p1399
aS'drawer_NN'
p1400
aa(lp1401
S'money_NN'
p1402
aS'wallet_NN'
p1403
aS'jam_NN'
p1404
aS'jar_NN'
p1405
aa(lp1406
S'money_NN'
p1407
aS'wallet_NN'
p1408
aS'potatoes_NNS'
p1409
aS'sack_NN'
p1410
aa(lp1411
S'money_NN'
p1412
aS'wallet_NN'
p1413
aS'cereal_NN'
p1414
aS'box_NN'
p1415
aa(lp1416
S'money_NN'
p1417
aS'wallet_NN'
p1418
aS'chips_NNS'
p1419
aS'bag_NN'
p1420
aa(lp1421
S'money_NN'
p1422
aS'wallet_NN'
p1423
aS'carrots_NNS'
p1424
aS'bag_NN'
p1425
aa(lp1426
S'money_NN'
p1427
aS'wallet_NN'
p1428
aS'pickles_NNS'
p1429
aS'jar_NN'
p1430
aa(lp1431
S'money_NN'
p1432
aS'wallet_NN'
p1433
aS'ketchup_NN'
p1434
aS'bottle_NN'
p1435
aa(lp1436
S'money_NN'
p1437
aS'wallet_NN'
p1438
aS'milk_NN'
p1439
aS'jug_NN'
p1440
aa(lp1441
S'money_NN'
p1442
aS'wallet_NN'
p1443
aS'soda_NN'
p1444
aS'can_MD'
p1445
aa(lp1446
S'money_NN'
p1447
aS'wallet_NN'
p1448
aS'games_NNS'
p1449
aS'box_NN'
p1450
aa(lp1451
S'money_NN'
p1452
aS'wallet_NN'
p1453
aS'soap_NN'
p1454
aS'dish_NN'
p1455
aa(lp1456
S'money_NN'
p1457
aS'wallet_NN'
p1458
aS'detergent_NN'
p1459
aS'bottle_NN'
p1460
aa(lp1461
S'money_NN'
p1462
aS'wallet_NN'
p1463
aS'diapers_NNS'
p1464
aS'box_NN'
p1465
aa(lp1466
S'money_NN'
p1467
aS'wallet_NN'
p1468
aS'water_NN'
p1469
aS'bottle_NN'
p1470
aa(lp1471
S'money_NN'
p1472
aS'wallet_NN'
p1473
aS'trash_NN'
p1474
aS'can_MD'
p1475
aa(lp1476
S'money_NN'
p1477
aS'wallet_NN'
p1478
aS'kleenex_NN'
p1479
aS'box_NN'
p1480
aa(lp1481
S'money_NN'
p1482
aS'wallet_NN'
p1483
aS'poster_NN'
p1484
aS'tube_NN'
p1485
aa(lp1486
S'money_NN'
p1487
aS'wallet_NN'
p1488
aS'picture_NN'
p1489
aS'frame_NN'
p1490
aa(lp1491
S'money_NN'
p1492
aS'wallet_NN'
p1493
aS'silverware_NN'
p1494
aS'drawer_NN'
p1495
aa(lp1496
S'money_NN'
p1497
aS'wallet_NN'
p1498
aS'socks_NNS'
p1499
aS'drawer_NN'
p1500
aa(lp1501
S'trash_NN'
p1502
aS'can_MD'
p1503
aS'jam_NN'
p1504
aS'jar_NN'
p1505
aa(lp1506
S'trash_NN'
p1507
aS'can_MD'
p1508
aS'potatoes_NNS'
p1509
aS'sack_NN'
p1510
aa(lp1511
S'trash_NN'
p1512
aS'can_MD'
p1513
aS'cereal_NN'
p1514
aS'box_NN'
p1515
aa(lp1516
S'trash_NN'
p1517
aS'can_MD'
p1518
aS'chips_NNS'
p1519
aS'bag_NN'
p1520
aa(lp1521
S'trash_NN'
p1522
aS'can_MD'
p1523
aS'carrots_NNS'
p1524
aS'bag_NN'
p1525
aa(lp1526
S'trash_NN'
p1527
aS'can_MD'
p1528
aS'pickles_NNS'
p1529
aS'jar_NN'
p1530
aa(lp1531
S'trash_NN'
p1532
aS'can_MD'
p1533
aS'ketchup_NN'
p1534
aS'bottle_NN'
p1535
aa(lp1536
S'trash_NN'
p1537
aS'can_MD'
p1538
aS'milk_NN'
p1539
aS'jug_NN'
p1540
aa(lp1541
S'trash_NN'
p1542
aS'can_MD'
p1543
aS'soda_NN'
p1544
aS'can_MD'
p1545
aa(lp1546
S'trash_NN'
p1547
aS'can_MD'
p1548
aS'games_NNS'
p1549
aS'box_NN'
p1550
aa(lp1551
S'trash_NN'
p1552
aS'can_MD'
p1553
aS'soap_NN'
p1554
aS'dish_NN'
p1555
aa(lp1556
S'trash_NN'
p1557
aS'can_MD'
p1558
aS'detergent_NN'
p1559
aS'bottle_NN'
p1560
aa(lp1561
S'trash_NN'
p1562
aS'can_MD'
p1563
aS'diapers_NNS'
p1564
aS'box_NN'
p1565
aa(lp1566
S'trash_NN'
p1567
aS'can_MD'
p1568
aS'water_NN'
p1569
aS'bottle_NN'
p1570
aa(lp1571
S'trash_NN'
p1572
aS'can_MD'
p1573
aS'money_NN'
p1574
aS'wallet_NN'
p1575
aa(lp1576
S'trash_NN'
p1577
aS'can_MD'
p1578
aS'kleenex_NN'
p1579
aS'box_NN'
p1580
aa(lp1581
S'trash_NN'
p1582
aS'can_MD'
p1583
aS'poster_NN'
p1584
aS'tube_NN'
p1585
aa(lp1586
S'trash_NN'
p1587
aS'can_MD'
p1588
aS'picture_NN'
p1589
aS'frame_NN'
p1590
aa(lp1591
S'trash_NN'
p1592
aS'can_MD'
p1593
aS'silverware_NN'
p1594
aS'drawer_NN'
p1595
aa(lp1596
S'trash_NN'
p1597
aS'can_MD'
p1598
aS'socks_NNS'
p1599
aS'drawer_NN'
p1600
aa(lp1601
S'kleenex_NN'
p1602
aS'box_NN'
p1603
aS'jam_NN'
p1604
aS'jar_NN'
p1605
aa(lp1606
S'kleenex_NN'
p1607
aS'box_NN'
p1608
aS'potatoes_NNS'
p1609
aS'sack_NN'
p1610
aa(lp1611
S'kleenex_NN'
p1612
aS'box_NN'
p1613
aS'cereal_NN'
p1614
aS'box_NN'
p1615
aa(lp1616
S'kleenex_NN'
p1617
aS'box_NN'
p1618
aS'chips_NNS'
p1619
aS'bag_NN'
p1620
aa(lp1621
S'kleenex_NN'
p1622
aS'box_NN'
p1623
aS'carrots_NNS'
p1624
aS'bag_NN'
p1625
aa(lp1626
S'kleenex_NN'
p1627
aS'box_NN'
p1628
aS'pickles_NNS'
p1629
aS'jar_NN'
p1630
aa(lp1631
S'kleenex_NN'
p1632
aS'box_NN'
p1633
aS'ketchup_NN'
p1634
aS'bottle_NN'
p1635
aa(lp1636
S'kleenex_NN'
p1637
aS'box_NN'
p1638
aS'milk_NN'
p1639
aS'jug_NN'
p1640
aa(lp1641
S'kleenex_NN'
p1642
aS'box_NN'
p1643
aS'soda_NN'
p1644
aS'can_MD'
p1645
aa(lp1646
S'kleenex_NN'
p1647
aS'box_NN'
p1648
aS'games_NNS'
p1649
aS'box_NN'
p1650
aa(lp1651
S'kleenex_NN'
p1652
aS'box_NN'
p1653
aS'soap_NN'
p1654
aS'dish_NN'
p1655
aa(lp1656
S'kleenex_NN'
p1657
aS'box_NN'
p1658
aS'detergent_NN'
p1659
aS'bottle_NN'
p1660
aa(lp1661
S'kleenex_NN'
p1662
aS'box_NN'
p1663
aS'diapers_NNS'
p1664
aS'box_NN'
p1665
aa(lp1666
S'kleenex_NN'
p1667
aS'box_NN'
p1668
aS'water_NN'
p1669
aS'bottle_NN'
p1670
aa(lp1671
S'kleenex_NN'
p1672
aS'box_NN'
p1673
aS'money_NN'
p1674
aS'wallet_NN'
p1675
aa(lp1676
S'kleenex_NN'
p1677
aS'box_NN'
p1678
aS'trash_NN'
p1679
aS'can_MD'
p1680
aa(lp1681
S'kleenex_NN'
p1682
aS'box_NN'
p1683
aS'poster_NN'
p1684
aS'tube_NN'
p1685
aa(lp1686
S'kleenex_NN'
p1687
aS'box_NN'
p1688
aS'picture_NN'
p1689
aS'frame_NN'
p1690
aa(lp1691
S'kleenex_NN'
p1692
aS'box_NN'
p1693
aS'silverware_NN'
p1694
aS'drawer_NN'
p1695
aa(lp1696
S'kleenex_NN'
p1697
aS'box_NN'
p1698
aS'socks_NNS'
p1699
aS'drawer_NN'
p1700
aa(lp1701
S'poster_NN'
p1702
aS'tube_NN'
p1703
aS'jam_NN'
p1704
aS'jar_NN'
p1705
aa(lp1706
S'poster_NN'
p1707
aS'tube_NN'
p1708
aS'potatoes_NNS'
p1709
aS'sack_NN'
p1710
aa(lp1711
S'poster_NN'
p1712
aS'tube_NN'
p1713
aS'cereal_NN'
p1714
aS'box_NN'
p1715
aa(lp1716
S'poster_NN'
p1717
aS'tube_NN'
p1718
aS'chips_NNS'
p1719
aS'bag_NN'
p1720
aa(lp1721
S'poster_NN'
p1722
aS'tube_NN'
p1723
aS'carrots_NNS'
p1724
aS'bag_NN'
p1725
aa(lp1726
S'poster_NN'
p1727
aS'tube_NN'
p1728
aS'pickles_NNS'
p1729
aS'jar_NN'
p1730
aa(lp1731
S'poster_NN'
p1732
aS'tube_NN'
p1733
aS'ketchup_NN'
p1734
aS'bottle_NN'
p1735
aa(lp1736
S'poster_NN'
p1737
aS'tube_NN'
p1738
aS'milk_NN'
p1739
aS'jug_NN'
p1740
aa(lp1741
S'poster_NN'
p1742
aS'tube_NN'
p1743
aS'soda_NN'
p1744
aS'can_MD'
p1745
aa(lp1746
S'poster_NN'
p1747
aS'tube_NN'
p1748
aS'games_NNS'
p1749
aS'box_NN'
p1750
aa(lp1751
S'poster_NN'
p1752
aS'tube_NN'
p1753
aS'soap_NN'
p1754
aS'dish_NN'
p1755
aa(lp1756
S'poster_NN'
p1757
aS'tube_NN'
p1758
aS'detergent_NN'
p1759
aS'bottle_NN'
p1760
aa(lp1761
S'poster_NN'
p1762
aS'tube_NN'
p1763
aS'diapers_NNS'
p1764
aS'box_NN'
p1765
aa(lp1766
S'poster_NN'
p1767
aS'tube_NN'
p1768
aS'water_NN'
p1769
aS'bottle_NN'
p1770
aa(lp1771
S'poster_NN'
p1772
aS'tube_NN'
p1773
aS'money_NN'
p1774
aS'wallet_NN'
p1775
aa(lp1776
S'poster_NN'
p1777
aS'tube_NN'
p1778
aS'trash_NN'
p1779
aS'can_MD'
p1780
aa(lp1781
S'poster_NN'
p1782
aS'tube_NN'
p1783
aS'kleenex_NN'
p1784
aS'box_NN'
p1785
aa(lp1786
S'poster_NN'
p1787
aS'tube_NN'
p1788
aS'picture_NN'
p1789
aS'frame_NN'
p1790
aa(lp1791
S'poster_NN'
p1792
aS'tube_NN'
p1793
aS'silverware_NN'
p1794
aS'drawer_NN'
p1795
aa(lp1796
S'poster_NN'
p1797
aS'tube_NN'
p1798
aS'socks_NNS'
p1799
aS'drawer_NN'
p1800
aa(lp1801
S'picture_NN'
p1802
aS'frame_NN'
p1803
aS'jam_NN'
p1804
aS'jar_NN'
p1805
aa(lp1806
S'picture_NN'
p1807
aS'frame_NN'
p1808
aS'potatoes_NNS'
p1809
aS'sack_NN'
p1810
aa(lp1811
S'picture_NN'
p1812
aS'frame_NN'
p1813
aS'cereal_NN'
p1814
aS'box_NN'
p1815
aa(lp1816
S'picture_NN'
p1817
aS'frame_NN'
p1818
aS'chips_NNS'
p1819
aS'bag_NN'
p1820
aa(lp1821
S'picture_NN'
p1822
aS'frame_NN'
p1823
aS'carrots_NNS'
p1824
aS'bag_NN'
p1825
aa(lp1826
S'picture_NN'
p1827
aS'frame_NN'
p1828
aS'pickles_NNS'
p1829
aS'jar_NN'
p1830
aa(lp1831
S'picture_NN'
p1832
aS'frame_NN'
p1833
aS'ketchup_NN'
p1834
aS'bottle_NN'
p1835
aa(lp1836
S'picture_NN'
p1837
aS'frame_NN'
p1838
aS'milk_NN'
p1839
aS'jug_NN'
p1840
aa(lp1841
S'picture_NN'
p1842
aS'frame_NN'
p1843
aS'soda_NN'
p1844
aS'can_MD'
p1845
aa(lp1846
S'picture_NN'
p1847
aS'frame_NN'
p1848
aS'games_NNS'
p1849
aS'box_NN'
p1850
aa(lp1851
S'picture_NN'
p1852
aS'frame_NN'
p1853
aS'soap_NN'
p1854
aS'dish_NN'
p1855
aa(lp1856
S'picture_NN'
p1857
aS'frame_NN'
p1858
aS'detergent_NN'
p1859
aS'bottle_NN'
p1860
aa(lp1861
S'picture_NN'
p1862
aS'frame_NN'
p1863
aS'diapers_NNS'
p1864
aS'box_NN'
p1865
aa(lp1866
S'picture_NN'
p1867
aS'frame_NN'
p1868
aS'water_NN'
p1869
aS'bottle_NN'
p1870
aa(lp1871
S'picture_NN'
p1872
aS'frame_NN'
p1873
aS'money_NN'
p1874
aS'wallet_NN'
p1875
aa(lp1876
S'picture_NN'
p1877
aS'frame_NN'
p1878
aS'trash_NN'
p1879
aS'can_MD'
p1880
aa(lp1881
S'picture_NN'
p1882
aS'frame_NN'
p1883
aS'kleenex_NN'
p1884
aS'box_NN'
p1885
aa(lp1886
S'picture_NN'
p1887
aS'frame_NN'
p1888
aS'poster_NN'
p1889
aS'tube_NN'
p1890
aa(lp1891
S'picture_NN'
p1892
aS'frame_NN'
p1893
aS'silverware_NN'
p1894
aS'drawer_NN'
p1895
aa(lp1896
S'picture_NN'
p1897
aS'frame_NN'
p1898
aS'socks_NNS'
p1899
aS'drawer_NN'
p1900
aa(lp1901
S'silverware_NN'
p1902
aS'drawer_NN'
p1903
aS'jam_NN'
p1904
aS'jar_NN'
p1905
aa(lp1906
S'silverware_NN'
p1907
aS'drawer_NN'
p1908
aS'potatoes_NNS'
p1909
aS'sack_NN'
p1910
aa(lp1911
S'silverware_NN'
p1912
aS'drawer_NN'
p1913
aS'cereal_NN'
p1914
aS'box_NN'
p1915
aa(lp1916
S'silverware_NN'
p1917
aS'drawer_NN'
p1918
aS'chips_NNS'
p1919
aS'bag_NN'
p1920
aa(lp1921
S'silverware_NN'
p1922
aS'drawer_NN'
p1923
aS'carrots_NNS'
p1924
aS'bag_NN'
p1925
aa(lp1926
S'silverware_NN'
p1927
aS'drawer_NN'
p1928
aS'pickles_NNS'
p1929
aS'jar_NN'
p1930
aa(lp1931
S'silverware_NN'
p1932
aS'drawer_NN'
p1933
aS'ketchup_NN'
p1934
aS'bottle_NN'
p1935
aa(lp1936
S'silverware_NN'
p1937
aS'drawer_NN'
p1938
aS'milk_NN'
p1939
aS'jug_NN'
p1940
aa(lp1941
S'silverware_NN'
p1942
aS'drawer_NN'
p1943
aS'soda_NN'
p1944
aS'can_MD'
p1945
aa(lp1946
S'silverware_NN'
p1947
aS'drawer_NN'
p1948
aS'games_NNS'
p1949
aS'box_NN'
p1950
aa(lp1951
S'silverware_NN'
p1952
aS'drawer_NN'
p1953
aS'soap_NN'
p1954
aS'dish_NN'
p1955
aa(lp1956
S'silverware_NN'
p1957
aS'drawer_NN'
p1958
aS'detergent_NN'
p1959
aS'bottle_NN'
p1960
aa(lp1961
S'silverware_NN'
p1962
aS'drawer_NN'
p1963
aS'diapers_NNS'
p1964
aS'box_NN'
p1965
aa(lp1966
S'silverware_NN'
p1967
aS'drawer_NN'
p1968
aS'water_NN'
p1969
aS'bottle_NN'
p1970
aa(lp1971
S'silverware_NN'
p1972
aS'drawer_NN'
p1973
aS'money_NN'
p1974
aS'wallet_NN'
p1975
aa(lp1976
S'silverware_NN'
p1977
aS'drawer_NN'
p1978
aS'trash_NN'
p1979
aS'can_MD'
p1980
aa(lp1981
S'silverware_NN'
p1982
aS'drawer_NN'
p1983
aS'kleenex_NN'
p1984
aS'box_NN'
p1985
aa(lp1986
S'silverware_NN'
p1987
aS'drawer_NN'
p1988
aS'poster_NN'
p1989
aS'tube_NN'
p1990
aa(lp1991
S'silverware_NN'
p1992
aS'drawer_NN'
p1993
aS'picture_NN'
p1994
aS'frame_NN'
p1995
aa(lp1996
S'silverware_NN'
p1997
aS'drawer_NN'
p1998
aS'socks_NNS'
p1999
aS'drawer_NN'
p2000
aa(lp2001
S'socks_NNS'
p2002
aS'drawer_NN'
p2003
aS'jam_NN'
p2004
aS'jar_NN'
p2005
aa(lp2006
S'socks_NNS'
p2007
aS'drawer_NN'
p2008
aS'potatoes_NNS'
p2009
aS'sack_NN'
p2010
aa(lp2011
S'socks_NNS'
p2012
aS'drawer_NN'
p2013
aS'cereal_NN'
p2014
aS'box_NN'
p2015
aa(lp2016
S'socks_NNS'
p2017
aS'drawer_NN'
p2018
aS'chips_NNS'
p2019
aS'bag_NN'
p2020
aa(lp2021
S'socks_NNS'
p2022
aS'drawer_NN'
p2023
aS'carrots_NNS'
p2024
aS'bag_NN'
p2025
aa(lp2026
S'socks_NNS'
p2027
aS'drawer_NN'
p2028
aS'pickles_NNS'
p2029
aS'jar_NN'
p2030
aa(lp2031
S'socks_NNS'
p2032
aS'drawer_NN'
p2033
aS'ketchup_NN'
p2034
aS'bottle_NN'
p2035
aa(lp2036
S'socks_NNS'
p2037
aS'drawer_NN'
p2038
aS'milk_NN'
p2039
aS'jug_NN'
p2040
aa(lp2041
S'socks_NNS'
p2042
aS'drawer_NN'
p2043
aS'soda_NN'
p2044
aS'can_MD'
p2045
aa(lp2046
S'socks_NNS'
p2047
aS'drawer_NN'
p2048
aS'games_NNS'
p2049
aS'box_NN'
p2050
aa(lp2051
S'socks_NNS'
p2052
aS'drawer_NN'
p2053
aS'soap_NN'
p2054
aS'dish_NN'
p2055
aa(lp2056
S'socks_NNS'
p2057
aS'drawer_NN'
p2058
aS'detergent_NN'
p2059
aS'bottle_NN'
p2060
aa(lp2061
S'socks_NNS'
p2062
aS'drawer_NN'
p2063
aS'diapers_NNS'
p2064
aS'box_NN'
p2065
aa(lp2066
S'socks_NNS'
p2067
aS'drawer_NN'
p2068
aS'water_NN'
p2069
aS'bottle_NN'
p2070
aa(lp2071
S'socks_NNS'
p2072
aS'drawer_NN'
p2073
aS'money_NN'
p2074
aS'wallet_NN'
p2075
aa(lp2076
S'socks_NNS'
p2077
aS'drawer_NN'
p2078
aS'trash_NN'
p2079
aS'can_MD'
p2080
aa(lp2081
S'socks_NNS'
p2082
aS'drawer_NN'
p2083
aS'kleenex_NN'
p2084
aS'box_NN'
p2085
aa(lp2086
S'socks_NNS'
p2087
aS'drawer_NN'
p2088
aS'poster_NN'
p2089
aS'tube_NN'
p2090
aa(lp2091
S'socks_NNS'
p2092
aS'drawer_NN'
p2093
aS'picture_NN'
p2094
aS'frame_NN'
p2095
aa(lp2096
S'socks_NNS'
p2097
aS'drawer_NN'
p2098
aS'silverware_NN'
p2099
aS'drawer_NN'
p2100
aa.