(lp0
(lp1
S'toilet_NN'
p2
aS'bathroom_NN'
p3
aS'toothbrush_NN'
p4
aS'bathroom_NN'
p5
aa(lp6
S'toilet_NN'
p7
aS'bathroom_NN'
p8
aS'refrigerator_NN'
p9
aS'kitchen_NN'
p10
aa(lp11
S'toilet_NN'
p12
aS'bathroom_NN'
p13
aS'toaster_NN'
p14
aS'kitchen_NN'
p15
aa(lp16
S'toilet_NN'
p17
aS'bathroom_NN'
p18
aS'silverware_NN'
p19
aS'kitchen_NN'
p20
aa(lp21
S'toilet_NN'
p22
aS'bathroom_NN'
p23
aS'sofa_NN'
p24
aS'parlor_NN'
p25
aa(lp26
S'toilet_NN'
p27
aS'bathroom_NN'
p28
aS'tv_NN'
p29
aS'den_NN'
p30
aa(lp31
S'toilet_NN'
p32
aS'bathroom_NN'
p33
aS'computer_NN'
p34
aS'office_NN'
p35
aa(lp36
S'toilet_NN'
p37
aS'bathroom_NN'
p38
aS'bed_NN'
p39
aS'bedroom_NN'
p40
aa(lp41
S'toilet_NN'
p42
aS'bathroom_NN'
p43
aS'dresser_NN'
p44
aS'bedroom_NN'
p45
aa(lp46
S'toilet_NN'
p47
aS'bathroom_NN'
p48
aS'potatoes_NNS'
p49
aS'cellar_NN'
p50
aa(lp51
S'toilet_NN'
p52
aS'bathroom_NN'
p53
aS'boxes_NNS'
p54
aS'attic_NN'
p55
aa(lp56
S'toilet_NN'
p57
aS'bathroom_NN'
p58
aS'valuables_NNS'
p59
aS'safe_JJ'
p60
aa(lp61
S'toilet_NN'
p62
aS'bathroom_NN'
p63
aS'table_NN'
p64
aS'kitchen_NN'
p65
aa(lp66
S'toilet_NN'
p67
aS'bathroom_NN'
p68
aS'nightstand_NN'
p69
aS'bedroom_NN'
p70
aa(lp71
S'toilet_NN'
p72
aS'bathroom_NN'
p73
aS'sink_VB'
p74
aS'kitchen_NN'
p75
aa(lp76
S'toilet_NN'
p77
aS'bathroom_NN'
p78
aS'sink_VB'
p79
aS'bathroom_NN'
p80
aa(lp81
S'toilet_NN'
p82
aS'bathroom_NN'
p83
aS'mirror_NN'
p84
aS'hallway_NN'
p85
aa(lp86
S'toilet_NN'
p87
aS'bathroom_NN'
p88
aS'mirror_NN'
p89
aS'bedroom_NN'
p90
aa(lp91
S'toilet_NN'
p92
aS'bathroom_NN'
p93
aS'mirror_NN'
p94
aS'bathroom_NN'
p95
aa(lp96
S'toilet_NN'
p97
aS'bathroom_NN'
p98
aS'clothes_NNS'
p99
aS'closet_NN'
p100
aa(lp101
S'toilet_NN'
p102
aS'bathroom_NN'
p103
aS'broom_NN'
p104
aS'closet_NN'
p105
aa(lp106
S'toilet_NN'
p107
aS'bathroom_NN'
p108
aS'blender_NN'
p109
aS'kitchen_NN'
p110
aa(lp111
S'toilet_NN'
p112
aS'bathroom_NN'
p113
aS'food_NN'
p114
aS'pantry_NN'
p115
aa(lp116
S'toothbrush_NN'
p117
aS'bathroom_NN'
p118
aS'toilet_NN'
p119
aS'bathroom_NN'
p120
aa(lp121
S'toothbrush_NN'
p122
aS'bathroom_NN'
p123
aS'refrigerator_NN'
p124
aS'kitchen_NN'
p125
aa(lp126
S'toothbrush_NN'
p127
aS'bathroom_NN'
p128
aS'toaster_NN'
p129
aS'kitchen_NN'
p130
aa(lp131
S'toothbrush_NN'
p132
aS'bathroom_NN'
p133
aS'silverware_NN'
p134
aS'kitchen_NN'
p135
aa(lp136
S'toothbrush_NN'
p137
aS'bathroom_NN'
p138
aS'sofa_NN'
p139
aS'parlor_NN'
p140
aa(lp141
S'toothbrush_NN'
p142
aS'bathroom_NN'
p143
aS'tv_NN'
p144
aS'den_NN'
p145
aa(lp146
S'toothbrush_NN'
p147
aS'bathroom_NN'
p148
aS'computer_NN'
p149
aS'office_NN'
p150
aa(lp151
S'toothbrush_NN'
p152
aS'bathroom_NN'
p153
aS'bed_NN'
p154
aS'bedroom_NN'
p155
aa(lp156
S'toothbrush_NN'
p157
aS'bathroom_NN'
p158
aS'dresser_NN'
p159
aS'bedroom_NN'
p160
aa(lp161
S'toothbrush_NN'
p162
aS'bathroom_NN'
p163
aS'potatoes_NNS'
p164
aS'cellar_NN'
p165
aa(lp166
S'toothbrush_NN'
p167
aS'bathroom_NN'
p168
aS'boxes_NNS'
p169
aS'attic_NN'
p170
aa(lp171
S'toothbrush_NN'
p172
aS'bathroom_NN'
p173
aS'valuables_NNS'
p174
aS'safe_JJ'
p175
aa(lp176
S'toothbrush_NN'
p177
aS'bathroom_NN'
p178
aS'table_NN'
p179
aS'kitchen_NN'
p180
aa(lp181
S'toothbrush_NN'
p182
aS'bathroom_NN'
p183
aS'nightstand_NN'
p184
aS'bedroom_NN'
p185
aa(lp186
S'toothbrush_NN'
p187
aS'bathroom_NN'
p188
aS'sink_VB'
p189
aS'kitchen_NN'
p190
aa(lp191
S'toothbrush_NN'
p192
aS'bathroom_NN'
p193
aS'sink_VB'
p194
aS'bathroom_NN'
p195
aa(lp196
S'toothbrush_NN'
p197
aS'bathroom_NN'
p198
aS'mirror_NN'
p199
aS'hallway_NN'
p200
aa(lp201
S'toothbrush_NN'
p202
aS'bathroom_NN'
p203
aS'mirror_NN'
p204
aS'bedroom_NN'
p205
aa(lp206
S'toothbrush_NN'
p207
aS'bathroom_NN'
p208
aS'mirror_NN'
p209
aS'bathroom_NN'
p210
aa(lp211
S'toothbrush_NN'
p212
aS'bathroom_NN'
p213
aS'clothes_NNS'
p214
aS'closet_NN'
p215
aa(lp216
S'toothbrush_NN'
p217
aS'bathroom_NN'
p218
aS'broom_NN'
p219
aS'closet_NN'
p220
aa(lp221
S'toothbrush_NN'
p222
aS'bathroom_NN'
p223
aS'blender_NN'
p224
aS'kitchen_NN'
p225
aa(lp226
S'toothbrush_NN'
p227
aS'bathroom_NN'
p228
aS'food_NN'
p229
aS'pantry_NN'
p230
aa(lp231
S'refrigerator_NN'
p232
aS'kitchen_NN'
p233
aS'toilet_NN'
p234
aS'bathroom_NN'
p235
aa(lp236
S'refrigerator_NN'
p237
aS'kitchen_NN'
p238
aS'toothbrush_NN'
p239
aS'bathroom_NN'
p240
aa(lp241
S'refrigerator_NN'
p242
aS'kitchen_NN'
p243
aS'toaster_NN'
p244
aS'kitchen_NN'
p245
aa(lp246
S'refrigerator_NN'
p247
aS'kitchen_NN'
p248
aS'silverware_NN'
p249
aS'kitchen_NN'
p250
aa(lp251
S'refrigerator_NN'
p252
aS'kitchen_NN'
p253
aS'sofa_NN'
p254
aS'parlor_NN'
p255
aa(lp256
S'refrigerator_NN'
p257
aS'kitchen_NN'
p258
aS'tv_NN'
p259
aS'den_NN'
p260
aa(lp261
S'refrigerator_NN'
p262
aS'kitchen_NN'
p263
aS'computer_NN'
p264
aS'office_NN'
p265
aa(lp266
S'refrigerator_NN'
p267
aS'kitchen_NN'
p268
aS'bed_NN'
p269
aS'bedroom_NN'
p270
aa(lp271
S'refrigerator_NN'
p272
aS'kitchen_NN'
p273
aS'dresser_NN'
p274
aS'bedroom_NN'
p275
aa(lp276
S'refrigerator_NN'
p277
aS'kitchen_NN'
p278
aS'potatoes_NNS'
p279
aS'cellar_NN'
p280
aa(lp281
S'refrigerator_NN'
p282
aS'kitchen_NN'
p283
aS'boxes_NNS'
p284
aS'attic_NN'
p285
aa(lp286
S'refrigerator_NN'
p287
aS'kitchen_NN'
p288
aS'valuables_NNS'
p289
aS'safe_JJ'
p290
aa(lp291
S'refrigerator_NN'
p292
aS'kitchen_NN'
p293
aS'table_NN'
p294
aS'kitchen_NN'
p295
aa(lp296
S'refrigerator_NN'
p297
aS'kitchen_NN'
p298
aS'nightstand_NN'
p299
aS'bedroom_NN'
p300
aa(lp301
S'refrigerator_NN'
p302
aS'kitchen_NN'
p303
aS'sink_VB'
p304
aS'kitchen_NN'
p305
aa(lp306
S'refrigerator_NN'
p307
aS'kitchen_NN'
p308
aS'sink_VB'
p309
aS'bathroom_NN'
p310
aa(lp311
S'refrigerator_NN'
p312
aS'kitchen_NN'
p313
aS'mirror_NN'
p314
aS'hallway_NN'
p315
aa(lp316
S'refrigerator_NN'
p317
aS'kitchen_NN'
p318
aS'mirror_NN'
p319
aS'bedroom_NN'
p320
aa(lp321
S'refrigerator_NN'
p322
aS'kitchen_NN'
p323
aS'mirror_NN'
p324
aS'bathroom_NN'
p325
aa(lp326
S'refrigerator_NN'
p327
aS'kitchen_NN'
p328
aS'clothes_NNS'
p329
aS'closet_NN'
p330
aa(lp331
S'refrigerator_NN'
p332
aS'kitchen_NN'
p333
aS'broom_NN'
p334
aS'closet_NN'
p335
aa(lp336
S'refrigerator_NN'
p337
aS'kitchen_NN'
p338
aS'blender_NN'
p339
aS'kitchen_NN'
p340
aa(lp341
S'refrigerator_NN'
p342
aS'kitchen_NN'
p343
aS'food_NN'
p344
aS'pantry_NN'
p345
aa(lp346
S'toaster_NN'
p347
aS'kitchen_NN'
p348
aS'toilet_NN'
p349
aS'bathroom_NN'
p350
aa(lp351
S'toaster_NN'
p352
aS'kitchen_NN'
p353
aS'toothbrush_NN'
p354
aS'bathroom_NN'
p355
aa(lp356
S'toaster_NN'
p357
aS'kitchen_NN'
p358
aS'refrigerator_NN'
p359
aS'kitchen_NN'
p360
aa(lp361
S'toaster_NN'
p362
aS'kitchen_NN'
p363
aS'silverware_NN'
p364
aS'kitchen_NN'
p365
aa(lp366
S'toaster_NN'
p367
aS'kitchen_NN'
p368
aS'sofa_NN'
p369
aS'parlor_NN'
p370
aa(lp371
S'toaster_NN'
p372
aS'kitchen_NN'
p373
aS'tv_NN'
p374
aS'den_NN'
p375
aa(lp376
S'toaster_NN'
p377
aS'kitchen_NN'
p378
aS'computer_NN'
p379
aS'office_NN'
p380
aa(lp381
S'toaster_NN'
p382
aS'kitchen_NN'
p383
aS'bed_NN'
p384
aS'bedroom_NN'
p385
aa(lp386
S'toaster_NN'
p387
aS'kitchen_NN'
p388
aS'dresser_NN'
p389
aS'bedroom_NN'
p390
aa(lp391
S'toaster_NN'
p392
aS'kitchen_NN'
p393
aS'potatoes_NNS'
p394
aS'cellar_NN'
p395
aa(lp396
S'toaster_NN'
p397
aS'kitchen_NN'
p398
aS'boxes_NNS'
p399
aS'attic_NN'
p400
aa(lp401
S'toaster_NN'
p402
aS'kitchen_NN'
p403
aS'valuables_NNS'
p404
aS'safe_JJ'
p405
aa(lp406
S'toaster_NN'
p407
aS'kitchen_NN'
p408
aS'table_NN'
p409
aS'kitchen_NN'
p410
aa(lp411
S'toaster_NN'
p412
aS'kitchen_NN'
p413
aS'nightstand_NN'
p414
aS'bedroom_NN'
p415
aa(lp416
S'toaster_NN'
p417
aS'kitchen_NN'
p418
aS'sink_VB'
p419
aS'kitchen_NN'
p420
aa(lp421
S'toaster_NN'
p422
aS'kitchen_NN'
p423
aS'sink_VB'
p424
aS'bathroom_NN'
p425
aa(lp426
S'toaster_NN'
p427
aS'kitchen_NN'
p428
aS'mirror_NN'
p429
aS'hallway_NN'
p430
aa(lp431
S'toaster_NN'
p432
aS'kitchen_NN'
p433
aS'mirror_NN'
p434
aS'bedroom_NN'
p435
aa(lp436
S'toaster_NN'
p437
aS'kitchen_NN'
p438
aS'mirror_NN'
p439
aS'bathroom_NN'
p440
aa(lp441
S'toaster_NN'
p442
aS'kitchen_NN'
p443
aS'clothes_NNS'
p444
aS'closet_NN'
p445
aa(lp446
S'toaster_NN'
p447
aS'kitchen_NN'
p448
aS'broom_NN'
p449
aS'closet_NN'
p450
aa(lp451
S'toaster_NN'
p452
aS'kitchen_NN'
p453
aS'blender_NN'
p454
aS'kitchen_NN'
p455
aa(lp456
S'toaster_NN'
p457
aS'kitchen_NN'
p458
aS'food_NN'
p459
aS'pantry_NN'
p460
aa(lp461
S'silverware_NN'
p462
aS'kitchen_NN'
p463
aS'toilet_NN'
p464
aS'bathroom_NN'
p465
aa(lp466
S'silverware_NN'
p467
aS'kitchen_NN'
p468
aS'toothbrush_NN'
p469
aS'bathroom_NN'
p470
aa(lp471
S'silverware_NN'
p472
aS'kitchen_NN'
p473
aS'refrigerator_NN'
p474
aS'kitchen_NN'
p475
aa(lp476
S'silverware_NN'
p477
aS'kitchen_NN'
p478
aS'toaster_NN'
p479
aS'kitchen_NN'
p480
aa(lp481
S'silverware_NN'
p482
aS'kitchen_NN'
p483
aS'sofa_NN'
p484
aS'parlor_NN'
p485
aa(lp486
S'silverware_NN'
p487
aS'kitchen_NN'
p488
aS'tv_NN'
p489
aS'den_NN'
p490
aa(lp491
S'silverware_NN'
p492
aS'kitchen_NN'
p493
aS'computer_NN'
p494
aS'office_NN'
p495
aa(lp496
S'silverware_NN'
p497
aS'kitchen_NN'
p498
aS'bed_NN'
p499
aS'bedroom_NN'
p500
aa(lp501
S'silverware_NN'
p502
aS'kitchen_NN'
p503
aS'dresser_NN'
p504
aS'bedroom_NN'
p505
aa(lp506
S'silverware_NN'
p507
aS'kitchen_NN'
p508
aS'potatoes_NNS'
p509
aS'cellar_NN'
p510
aa(lp511
S'silverware_NN'
p512
aS'kitchen_NN'
p513
aS'boxes_NNS'
p514
aS'attic_NN'
p515
aa(lp516
S'silverware_NN'
p517
aS'kitchen_NN'
p518
aS'valuables_NNS'
p519
aS'safe_JJ'
p520
aa(lp521
S'silverware_NN'
p522
aS'kitchen_NN'
p523
aS'table_NN'
p524
aS'kitchen_NN'
p525
aa(lp526
S'silverware_NN'
p527
aS'kitchen_NN'
p528
aS'nightstand_NN'
p529
aS'bedroom_NN'
p530
aa(lp531
S'silverware_NN'
p532
aS'kitchen_NN'
p533
aS'sink_VB'
p534
aS'kitchen_NN'
p535
aa(lp536
S'silverware_NN'
p537
aS'kitchen_NN'
p538
aS'sink_VB'
p539
aS'bathroom_NN'
p540
aa(lp541
S'silverware_NN'
p542
aS'kitchen_NN'
p543
aS'mirror_NN'
p544
aS'hallway_NN'
p545
aa(lp546
S'silverware_NN'
p547
aS'kitchen_NN'
p548
aS'mirror_NN'
p549
aS'bedroom_NN'
p550
aa(lp551
S'silverware_NN'
p552
aS'kitchen_NN'
p553
aS'mirror_NN'
p554
aS'bathroom_NN'
p555
aa(lp556
S'silverware_NN'
p557
aS'kitchen_NN'
p558
aS'clothes_NNS'
p559
aS'closet_NN'
p560
aa(lp561
S'silverware_NN'
p562
aS'kitchen_NN'
p563
aS'broom_NN'
p564
aS'closet_NN'
p565
aa(lp566
S'silverware_NN'
p567
aS'kitchen_NN'
p568
aS'blender_NN'
p569
aS'kitchen_NN'
p570
aa(lp571
S'silverware_NN'
p572
aS'kitchen_NN'
p573
aS'food_NN'
p574
aS'pantry_NN'
p575
aa(lp576
S'sofa_NN'
p577
aS'parlor_NN'
p578
aS'toilet_NN'
p579
aS'bathroom_NN'
p580
aa(lp581
S'sofa_NN'
p582
aS'parlor_NN'
p583
aS'toothbrush_NN'
p584
aS'bathroom_NN'
p585
aa(lp586
S'sofa_NN'
p587
aS'parlor_NN'
p588
aS'refrigerator_NN'
p589
aS'kitchen_NN'
p590
aa(lp591
S'sofa_NN'
p592
aS'parlor_NN'
p593
aS'toaster_NN'
p594
aS'kitchen_NN'
p595
aa(lp596
S'sofa_NN'
p597
aS'parlor_NN'
p598
aS'silverware_NN'
p599
aS'kitchen_NN'
p600
aa(lp601
S'sofa_NN'
p602
aS'parlor_NN'
p603
aS'tv_NN'
p604
aS'den_NN'
p605
aa(lp606
S'sofa_NN'
p607
aS'parlor_NN'
p608
aS'computer_NN'
p609
aS'office_NN'
p610
aa(lp611
S'sofa_NN'
p612
aS'parlor_NN'
p613
aS'bed_NN'
p614
aS'bedroom_NN'
p615
aa(lp616
S'sofa_NN'
p617
aS'parlor_NN'
p618
aS'dresser_NN'
p619
aS'bedroom_NN'
p620
aa(lp621
S'sofa_NN'
p622
aS'parlor_NN'
p623
aS'potatoes_NNS'
p624
aS'cellar_NN'
p625
aa(lp626
S'sofa_NN'
p627
aS'parlor_NN'
p628
aS'boxes_NNS'
p629
aS'attic_NN'
p630
aa(lp631
S'sofa_NN'
p632
aS'parlor_NN'
p633
aS'valuables_NNS'
p634
aS'safe_JJ'
p635
aa(lp636
S'sofa_NN'
p637
aS'parlor_NN'
p638
aS'table_NN'
p639
aS'kitchen_NN'
p640
aa(lp641
S'sofa_NN'
p642
aS'parlor_NN'
p643
aS'nightstand_NN'
p644
aS'bedroom_NN'
p645
aa(lp646
S'sofa_NN'
p647
aS'parlor_NN'
p648
aS'sink_VB'
p649
aS'kitchen_NN'
p650
aa(lp651
S'sofa_NN'
p652
aS'parlor_NN'
p653
aS'sink_VB'
p654
aS'bathroom_NN'
p655
aa(lp656
S'sofa_NN'
p657
aS'parlor_NN'
p658
aS'mirror_NN'
p659
aS'hallway_NN'
p660
aa(lp661
S'sofa_NN'
p662
aS'parlor_NN'
p663
aS'mirror_NN'
p664
aS'bedroom_NN'
p665
aa(lp666
S'sofa_NN'
p667
aS'parlor_NN'
p668
aS'mirror_NN'
p669
aS'bathroom_NN'
p670
aa(lp671
S'sofa_NN'
p672
aS'parlor_NN'
p673
aS'clothes_NNS'
p674
aS'closet_NN'
p675
aa(lp676
S'sofa_NN'
p677
aS'parlor_NN'
p678
aS'broom_NN'
p679
aS'closet_NN'
p680
aa(lp681
S'sofa_NN'
p682
aS'parlor_NN'
p683
aS'blender_NN'
p684
aS'kitchen_NN'
p685
aa(lp686
S'sofa_NN'
p687
aS'parlor_NN'
p688
aS'food_NN'
p689
aS'pantry_NN'
p690
aa(lp691
S'tv_NN'
p692
aS'den_NN'
p693
aS'toilet_NN'
p694
aS'bathroom_NN'
p695
aa(lp696
S'tv_NN'
p697
aS'den_NN'
p698
aS'toothbrush_NN'
p699
aS'bathroom_NN'
p700
aa(lp701
S'tv_NN'
p702
aS'den_NN'
p703
aS'refrigerator_NN'
p704
aS'kitchen_NN'
p705
aa(lp706
S'tv_NN'
p707
aS'den_NN'
p708
aS'toaster_NN'
p709
aS'kitchen_NN'
p710
aa(lp711
S'tv_NN'
p712
aS'den_NN'
p713
aS'silverware_NN'
p714
aS'kitchen_NN'
p715
aa(lp716
S'tv_NN'
p717
aS'den_NN'
p718
aS'sofa_NN'
p719
aS'parlor_NN'
p720
aa(lp721
S'tv_NN'
p722
aS'den_NN'
p723
aS'computer_NN'
p724
aS'office_NN'
p725
aa(lp726
S'tv_NN'
p727
aS'den_NN'
p728
aS'bed_NN'
p729
aS'bedroom_NN'
p730
aa(lp731
S'tv_NN'
p732
aS'den_NN'
p733
aS'dresser_NN'
p734
aS'bedroom_NN'
p735
aa(lp736
S'tv_NN'
p737
aS'den_NN'
p738
aS'potatoes_NNS'
p739
aS'cellar_NN'
p740
aa(lp741
S'tv_NN'
p742
aS'den_NN'
p743
aS'boxes_NNS'
p744
aS'attic_NN'
p745
aa(lp746
S'tv_NN'
p747
aS'den_NN'
p748
aS'valuables_NNS'
p749
aS'safe_JJ'
p750
aa(lp751
S'tv_NN'
p752
aS'den_NN'
p753
aS'table_NN'
p754
aS'kitchen_NN'
p755
aa(lp756
S'tv_NN'
p757
aS'den_NN'
p758
aS'nightstand_NN'
p759
aS'bedroom_NN'
p760
aa(lp761
S'tv_NN'
p762
aS'den_NN'
p763
aS'sink_VB'
p764
aS'kitchen_NN'
p765
aa(lp766
S'tv_NN'
p767
aS'den_NN'
p768
aS'sink_VB'
p769
aS'bathroom_NN'
p770
aa(lp771
S'tv_NN'
p772
aS'den_NN'
p773
aS'mirror_NN'
p774
aS'hallway_NN'
p775
aa(lp776
S'tv_NN'
p777
aS'den_NN'
p778
aS'mirror_NN'
p779
aS'bedroom_NN'
p780
aa(lp781
S'tv_NN'
p782
aS'den_NN'
p783
aS'mirror_NN'
p784
aS'bathroom_NN'
p785
aa(lp786
S'tv_NN'
p787
aS'den_NN'
p788
aS'clothes_NNS'
p789
aS'closet_NN'
p790
aa(lp791
S'tv_NN'
p792
aS'den_NN'
p793
aS'broom_NN'
p794
aS'closet_NN'
p795
aa(lp796
S'tv_NN'
p797
aS'den_NN'
p798
aS'blender_NN'
p799
aS'kitchen_NN'
p800
aa(lp801
S'tv_NN'
p802
aS'den_NN'
p803
aS'food_NN'
p804
aS'pantry_NN'
p805
aa(lp806
S'computer_NN'
p807
aS'office_NN'
p808
aS'toilet_NN'
p809
aS'bathroom_NN'
p810
aa(lp811
S'computer_NN'
p812
aS'office_NN'
p813
aS'toothbrush_NN'
p814
aS'bathroom_NN'
p815
aa(lp816
S'computer_NN'
p817
aS'office_NN'
p818
aS'refrigerator_NN'
p819
aS'kitchen_NN'
p820
aa(lp821
S'computer_NN'
p822
aS'office_NN'
p823
aS'toaster_NN'
p824
aS'kitchen_NN'
p825
aa(lp826
S'computer_NN'
p827
aS'office_NN'
p828
aS'silverware_NN'
p829
aS'kitchen_NN'
p830
aa(lp831
S'computer_NN'
p832
aS'office_NN'
p833
aS'sofa_NN'
p834
aS'parlor_NN'
p835
aa(lp836
S'computer_NN'
p837
aS'office_NN'
p838
aS'tv_NN'
p839
aS'den_NN'
p840
aa(lp841
S'computer_NN'
p842
aS'office_NN'
p843
aS'bed_NN'
p844
aS'bedroom_NN'
p845
aa(lp846
S'computer_NN'
p847
aS'office_NN'
p848
aS'dresser_NN'
p849
aS'bedroom_NN'
p850
aa(lp851
S'computer_NN'
p852
aS'office_NN'
p853
aS'potatoes_NNS'
p854
aS'cellar_NN'
p855
aa(lp856
S'computer_NN'
p857
aS'office_NN'
p858
aS'boxes_NNS'
p859
aS'attic_NN'
p860
aa(lp861
S'computer_NN'
p862
aS'office_NN'
p863
aS'valuables_NNS'
p864
aS'safe_JJ'
p865
aa(lp866
S'computer_NN'
p867
aS'office_NN'
p868
aS'table_NN'
p869
aS'kitchen_NN'
p870
aa(lp871
S'computer_NN'
p872
aS'office_NN'
p873
aS'nightstand_NN'
p874
aS'bedroom_NN'
p875
aa(lp876
S'computer_NN'
p877
aS'office_NN'
p878
aS'sink_VB'
p879
aS'kitchen_NN'
p880
aa(lp881
S'computer_NN'
p882
aS'office_NN'
p883
aS'sink_VB'
p884
aS'bathroom_NN'
p885
aa(lp886
S'computer_NN'
p887
aS'office_NN'
p888
aS'mirror_NN'
p889
aS'hallway_NN'
p890
aa(lp891
S'computer_NN'
p892
aS'office_NN'
p893
aS'mirror_NN'
p894
aS'bedroom_NN'
p895
aa(lp896
S'computer_NN'
p897
aS'office_NN'
p898
aS'mirror_NN'
p899
aS'bathroom_NN'
p900
aa(lp901
S'computer_NN'
p902
aS'office_NN'
p903
aS'clothes_NNS'
p904
aS'closet_NN'
p905
aa(lp906
S'computer_NN'
p907
aS'office_NN'
p908
aS'broom_NN'
p909
aS'closet_NN'
p910
aa(lp911
S'computer_NN'
p912
aS'office_NN'
p913
aS'blender_NN'
p914
aS'kitchen_NN'
p915
aa(lp916
S'computer_NN'
p917
aS'office_NN'
p918
aS'food_NN'
p919
aS'pantry_NN'
p920
aa(lp921
S'bed_NN'
p922
aS'bedroom_NN'
p923
aS'toilet_NN'
p924
aS'bathroom_NN'
p925
aa(lp926
S'bed_NN'
p927
aS'bedroom_NN'
p928
aS'toothbrush_NN'
p929
aS'bathroom_NN'
p930
aa(lp931
S'bed_NN'
p932
aS'bedroom_NN'
p933
aS'refrigerator_NN'
p934
aS'kitchen_NN'
p935
aa(lp936
S'bed_NN'
p937
aS'bedroom_NN'
p938
aS'toaster_NN'
p939
aS'kitchen_NN'
p940
aa(lp941
S'bed_NN'
p942
aS'bedroom_NN'
p943
aS'silverware_NN'
p944
aS'kitchen_NN'
p945
aa(lp946
S'bed_NN'
p947
aS'bedroom_NN'
p948
aS'sofa_NN'
p949
aS'parlor_NN'
p950
aa(lp951
S'bed_NN'
p952
aS'bedroom_NN'
p953
aS'tv_NN'
p954
aS'den_NN'
p955
aa(lp956
S'bed_NN'
p957
aS'bedroom_NN'
p958
aS'computer_NN'
p959
aS'office_NN'
p960
aa(lp961
S'bed_NN'
p962
aS'bedroom_NN'
p963
aS'dresser_NN'
p964
aS'bedroom_NN'
p965
aa(lp966
S'bed_NN'
p967
aS'bedroom_NN'
p968
aS'potatoes_NNS'
p969
aS'cellar_NN'
p970
aa(lp971
S'bed_NN'
p972
aS'bedroom_NN'
p973
aS'boxes_NNS'
p974
aS'attic_NN'
p975
aa(lp976
S'bed_NN'
p977
aS'bedroom_NN'
p978
aS'valuables_NNS'
p979
aS'safe_JJ'
p980
aa(lp981
S'bed_NN'
p982
aS'bedroom_NN'
p983
aS'table_NN'
p984
aS'kitchen_NN'
p985
aa(lp986
S'bed_NN'
p987
aS'bedroom_NN'
p988
aS'nightstand_NN'
p989
aS'bedroom_NN'
p990
aa(lp991
S'bed_NN'
p992
aS'bedroom_NN'
p993
aS'sink_VB'
p994
aS'kitchen_NN'
p995
aa(lp996
S'bed_NN'
p997
aS'bedroom_NN'
p998
aS'sink_VB'
p999
aS'bathroom_NN'
p1000
aa(lp1001
S'bed_NN'
p1002
aS'bedroom_NN'
p1003
aS'mirror_NN'
p1004
aS'hallway_NN'
p1005
aa(lp1006
S'bed_NN'
p1007
aS'bedroom_NN'
p1008
aS'mirror_NN'
p1009
aS'bedroom_NN'
p1010
aa(lp1011
S'bed_NN'
p1012
aS'bedroom_NN'
p1013
aS'mirror_NN'
p1014
aS'bathroom_NN'
p1015
aa(lp1016
S'bed_NN'
p1017
aS'bedroom_NN'
p1018
aS'clothes_NNS'
p1019
aS'closet_NN'
p1020
aa(lp1021
S'bed_NN'
p1022
aS'bedroom_NN'
p1023
aS'broom_NN'
p1024
aS'closet_NN'
p1025
aa(lp1026
S'bed_NN'
p1027
aS'bedroom_NN'
p1028
aS'blender_NN'
p1029
aS'kitchen_NN'
p1030
aa(lp1031
S'bed_NN'
p1032
aS'bedroom_NN'
p1033
aS'food_NN'
p1034
aS'pantry_NN'
p1035
aa(lp1036
S'dresser_NN'
p1037
aS'bedroom_NN'
p1038
aS'toilet_NN'
p1039
aS'bathroom_NN'
p1040
aa(lp1041
S'dresser_NN'
p1042
aS'bedroom_NN'
p1043
aS'toothbrush_NN'
p1044
aS'bathroom_NN'
p1045
aa(lp1046
S'dresser_NN'
p1047
aS'bedroom_NN'
p1048
aS'refrigerator_NN'
p1049
aS'kitchen_NN'
p1050
aa(lp1051
S'dresser_NN'
p1052
aS'bedroom_NN'
p1053
aS'toaster_NN'
p1054
aS'kitchen_NN'
p1055
aa(lp1056
S'dresser_NN'
p1057
aS'bedroom_NN'
p1058
aS'silverware_NN'
p1059
aS'kitchen_NN'
p1060
aa(lp1061
S'dresser_NN'
p1062
aS'bedroom_NN'
p1063
aS'sofa_NN'
p1064
aS'parlor_NN'
p1065
aa(lp1066
S'dresser_NN'
p1067
aS'bedroom_NN'
p1068
aS'tv_NN'
p1069
aS'den_NN'
p1070
aa(lp1071
S'dresser_NN'
p1072
aS'bedroom_NN'
p1073
aS'computer_NN'
p1074
aS'office_NN'
p1075
aa(lp1076
S'dresser_NN'
p1077
aS'bedroom_NN'
p1078
aS'bed_NN'
p1079
aS'bedroom_NN'
p1080
aa(lp1081
S'dresser_NN'
p1082
aS'bedroom_NN'
p1083
aS'potatoes_NNS'
p1084
aS'cellar_NN'
p1085
aa(lp1086
S'dresser_NN'
p1087
aS'bedroom_NN'
p1088
aS'boxes_NNS'
p1089
aS'attic_NN'
p1090
aa(lp1091
S'dresser_NN'
p1092
aS'bedroom_NN'
p1093
aS'valuables_NNS'
p1094
aS'safe_JJ'
p1095
aa(lp1096
S'dresser_NN'
p1097
aS'bedroom_NN'
p1098
aS'table_NN'
p1099
aS'kitchen_NN'
p1100
aa(lp1101
S'dresser_NN'
p1102
aS'bedroom_NN'
p1103
aS'nightstand_NN'
p1104
aS'bedroom_NN'
p1105
aa(lp1106
S'dresser_NN'
p1107
aS'bedroom_NN'
p1108
aS'sink_VB'
p1109
aS'kitchen_NN'
p1110
aa(lp1111
S'dresser_NN'
p1112
aS'bedroom_NN'
p1113
aS'sink_VB'
p1114
aS'bathroom_NN'
p1115
aa(lp1116
S'dresser_NN'
p1117
aS'bedroom_NN'
p1118
aS'mirror_NN'
p1119
aS'hallway_NN'
p1120
aa(lp1121
S'dresser_NN'
p1122
aS'bedroom_NN'
p1123
aS'mirror_NN'
p1124
aS'bedroom_NN'
p1125
aa(lp1126
S'dresser_NN'
p1127
aS'bedroom_NN'
p1128
aS'mirror_NN'
p1129
aS'bathroom_NN'
p1130
aa(lp1131
S'dresser_NN'
p1132
aS'bedroom_NN'
p1133
aS'clothes_NNS'
p1134
aS'closet_NN'
p1135
aa(lp1136
S'dresser_NN'
p1137
aS'bedroom_NN'
p1138
aS'broom_NN'
p1139
aS'closet_NN'
p1140
aa(lp1141
S'dresser_NN'
p1142
aS'bedroom_NN'
p1143
aS'blender_NN'
p1144
aS'kitchen_NN'
p1145
aa(lp1146
S'dresser_NN'
p1147
aS'bedroom_NN'
p1148
aS'food_NN'
p1149
aS'pantry_NN'
p1150
aa(lp1151
S'potatoes_NNS'
p1152
aS'cellar_NN'
p1153
aS'toilet_NN'
p1154
aS'bathroom_NN'
p1155
aa(lp1156
S'potatoes_NNS'
p1157
aS'cellar_NN'
p1158
aS'toothbrush_NN'
p1159
aS'bathroom_NN'
p1160
aa(lp1161
S'potatoes_NNS'
p1162
aS'cellar_NN'
p1163
aS'refrigerator_NN'
p1164
aS'kitchen_NN'
p1165
aa(lp1166
S'potatoes_NNS'
p1167
aS'cellar_NN'
p1168
aS'toaster_NN'
p1169
aS'kitchen_NN'
p1170
aa(lp1171
S'potatoes_NNS'
p1172
aS'cellar_NN'
p1173
aS'silverware_NN'
p1174
aS'kitchen_NN'
p1175
aa(lp1176
S'potatoes_NNS'
p1177
aS'cellar_NN'
p1178
aS'sofa_NN'
p1179
aS'parlor_NN'
p1180
aa(lp1181
S'potatoes_NNS'
p1182
aS'cellar_NN'
p1183
aS'tv_NN'
p1184
aS'den_NN'
p1185
aa(lp1186
S'potatoes_NNS'
p1187
aS'cellar_NN'
p1188
aS'computer_NN'
p1189
aS'office_NN'
p1190
aa(lp1191
S'potatoes_NNS'
p1192
aS'cellar_NN'
p1193
aS'bed_NN'
p1194
aS'bedroom_NN'
p1195
aa(lp1196
S'potatoes_NNS'
p1197
aS'cellar_NN'
p1198
aS'dresser_NN'
p1199
aS'bedroom_NN'
p1200
aa(lp1201
S'potatoes_NNS'
p1202
aS'cellar_NN'
p1203
aS'boxes_NNS'
p1204
aS'attic_NN'
p1205
aa(lp1206
S'potatoes_NNS'
p1207
aS'cellar_NN'
p1208
aS'valuables_NNS'
p1209
aS'safe_JJ'
p1210
aa(lp1211
S'potatoes_NNS'
p1212
aS'cellar_NN'
p1213
aS'table_NN'
p1214
aS'kitchen_NN'
p1215
aa(lp1216
S'potatoes_NNS'
p1217
aS'cellar_NN'
p1218
aS'nightstand_NN'
p1219
aS'bedroom_NN'
p1220
aa(lp1221
S'potatoes_NNS'
p1222
aS'cellar_NN'
p1223
aS'sink_VB'
p1224
aS'kitchen_NN'
p1225
aa(lp1226
S'potatoes_NNS'
p1227
aS'cellar_NN'
p1228
aS'sink_VB'
p1229
aS'bathroom_NN'
p1230
aa(lp1231
S'potatoes_NNS'
p1232
aS'cellar_NN'
p1233
aS'mirror_NN'
p1234
aS'hallway_NN'
p1235
aa(lp1236
S'potatoes_NNS'
p1237
aS'cellar_NN'
p1238
aS'mirror_NN'
p1239
aS'bedroom_NN'
p1240
aa(lp1241
S'potatoes_NNS'
p1242
aS'cellar_NN'
p1243
aS'mirror_NN'
p1244
aS'bathroom_NN'
p1245
aa(lp1246
S'potatoes_NNS'
p1247
aS'cellar_NN'
p1248
aS'clothes_NNS'
p1249
aS'closet_NN'
p1250
aa(lp1251
S'potatoes_NNS'
p1252
aS'cellar_NN'
p1253
aS'broom_NN'
p1254
aS'closet_NN'
p1255
aa(lp1256
S'potatoes_NNS'
p1257
aS'cellar_NN'
p1258
aS'blender_NN'
p1259
aS'kitchen_NN'
p1260
aa(lp1261
S'potatoes_NNS'
p1262
aS'cellar_NN'
p1263
aS'food_NN'
p1264
aS'pantry_NN'
p1265
aa(lp1266
S'boxes_NNS'
p1267
aS'attic_NN'
p1268
aS'toilet_NN'
p1269
aS'bathroom_NN'
p1270
aa(lp1271
S'boxes_NNS'
p1272
aS'attic_NN'
p1273
aS'toothbrush_NN'
p1274
aS'bathroom_NN'
p1275
aa(lp1276
S'boxes_NNS'
p1277
aS'attic_NN'
p1278
aS'refrigerator_NN'
p1279
aS'kitchen_NN'
p1280
aa(lp1281
S'boxes_NNS'
p1282
aS'attic_NN'
p1283
aS'toaster_NN'
p1284
aS'kitchen_NN'
p1285
aa(lp1286
S'boxes_NNS'
p1287
aS'attic_NN'
p1288
aS'silverware_NN'
p1289
aS'kitchen_NN'
p1290
aa(lp1291
S'boxes_NNS'
p1292
aS'attic_NN'
p1293
aS'sofa_NN'
p1294
aS'parlor_NN'
p1295
aa(lp1296
S'boxes_NNS'
p1297
aS'attic_NN'
p1298
aS'tv_NN'
p1299
aS'den_NN'
p1300
aa(lp1301
S'boxes_NNS'
p1302
aS'attic_NN'
p1303
aS'computer_NN'
p1304
aS'office_NN'
p1305
aa(lp1306
S'boxes_NNS'
p1307
aS'attic_NN'
p1308
aS'bed_NN'
p1309
aS'bedroom_NN'
p1310
aa(lp1311
S'boxes_NNS'
p1312
aS'attic_NN'
p1313
aS'dresser_NN'
p1314
aS'bedroom_NN'
p1315
aa(lp1316
S'boxes_NNS'
p1317
aS'attic_NN'
p1318
aS'potatoes_NNS'
p1319
aS'cellar_NN'
p1320
aa(lp1321
S'boxes_NNS'
p1322
aS'attic_NN'
p1323
aS'valuables_NNS'
p1324
aS'safe_JJ'
p1325
aa(lp1326
S'boxes_NNS'
p1327
aS'attic_NN'
p1328
aS'table_NN'
p1329
aS'kitchen_NN'
p1330
aa(lp1331
S'boxes_NNS'
p1332
aS'attic_NN'
p1333
aS'nightstand_NN'
p1334
aS'bedroom_NN'
p1335
aa(lp1336
S'boxes_NNS'
p1337
aS'attic_NN'
p1338
aS'sink_VB'
p1339
aS'kitchen_NN'
p1340
aa(lp1341
S'boxes_NNS'
p1342
aS'attic_NN'
p1343
aS'sink_VB'
p1344
aS'bathroom_NN'
p1345
aa(lp1346
S'boxes_NNS'
p1347
aS'attic_NN'
p1348
aS'mirror_NN'
p1349
aS'hallway_NN'
p1350
aa(lp1351
S'boxes_NNS'
p1352
aS'attic_NN'
p1353
aS'mirror_NN'
p1354
aS'bedroom_NN'
p1355
aa(lp1356
S'boxes_NNS'
p1357
aS'attic_NN'
p1358
aS'mirror_NN'
p1359
aS'bathroom_NN'
p1360
aa(lp1361
S'boxes_NNS'
p1362
aS'attic_NN'
p1363
aS'clothes_NNS'
p1364
aS'closet_NN'
p1365
aa(lp1366
S'boxes_NNS'
p1367
aS'attic_NN'
p1368
aS'broom_NN'
p1369
aS'closet_NN'
p1370
aa(lp1371
S'boxes_NNS'
p1372
aS'attic_NN'
p1373
aS'blender_NN'
p1374
aS'kitchen_NN'
p1375
aa(lp1376
S'boxes_NNS'
p1377
aS'attic_NN'
p1378
aS'food_NN'
p1379
aS'pantry_NN'
p1380
aa(lp1381
S'valuables_NNS'
p1382
aS'safe_JJ'
p1383
aS'toilet_NN'
p1384
aS'bathroom_NN'
p1385
aa(lp1386
S'valuables_NNS'
p1387
aS'safe_JJ'
p1388
aS'toothbrush_NN'
p1389
aS'bathroom_NN'
p1390
aa(lp1391
S'valuables_NNS'
p1392
aS'safe_JJ'
p1393
aS'refrigerator_NN'
p1394
aS'kitchen_NN'
p1395
aa(lp1396
S'valuables_NNS'
p1397
aS'safe_JJ'
p1398
aS'toaster_NN'
p1399
aS'kitchen_NN'
p1400
aa(lp1401
S'valuables_NNS'
p1402
aS'safe_JJ'
p1403
aS'silverware_NN'
p1404
aS'kitchen_NN'
p1405
aa(lp1406
S'valuables_NNS'
p1407
aS'safe_JJ'
p1408
aS'sofa_NN'
p1409
aS'parlor_NN'
p1410
aa(lp1411
S'valuables_NNS'
p1412
aS'safe_JJ'
p1413
aS'tv_NN'
p1414
aS'den_NN'
p1415
aa(lp1416
S'valuables_NNS'
p1417
aS'safe_JJ'
p1418
aS'computer_NN'
p1419
aS'office_NN'
p1420
aa(lp1421
S'valuables_NNS'
p1422
aS'safe_JJ'
p1423
aS'bed_NN'
p1424
aS'bedroom_NN'
p1425
aa(lp1426
S'valuables_NNS'
p1427
aS'safe_JJ'
p1428
aS'dresser_NN'
p1429
aS'bedroom_NN'
p1430
aa(lp1431
S'valuables_NNS'
p1432
aS'safe_JJ'
p1433
aS'potatoes_NNS'
p1434
aS'cellar_NN'
p1435
aa(lp1436
S'valuables_NNS'
p1437
aS'safe_JJ'
p1438
aS'boxes_NNS'
p1439
aS'attic_NN'
p1440
aa(lp1441
S'valuables_NNS'
p1442
aS'safe_JJ'
p1443
aS'table_NN'
p1444
aS'kitchen_NN'
p1445
aa(lp1446
S'valuables_NNS'
p1447
aS'safe_JJ'
p1448
aS'nightstand_NN'
p1449
aS'bedroom_NN'
p1450
aa(lp1451
S'valuables_NNS'
p1452
aS'safe_JJ'
p1453
aS'sink_VB'
p1454
aS'kitchen_NN'
p1455
aa(lp1456
S'valuables_NNS'
p1457
aS'safe_JJ'
p1458
aS'sink_VB'
p1459
aS'bathroom_NN'
p1460
aa(lp1461
S'valuables_NNS'
p1462
aS'safe_JJ'
p1463
aS'mirror_NN'
p1464
aS'hallway_NN'
p1465
aa(lp1466
S'valuables_NNS'
p1467
aS'safe_JJ'
p1468
aS'mirror_NN'
p1469
aS'bedroom_NN'
p1470
aa(lp1471
S'valuables_NNS'
p1472
aS'safe_JJ'
p1473
aS'mirror_NN'
p1474
aS'bathroom_NN'
p1475
aa(lp1476
S'valuables_NNS'
p1477
aS'safe_JJ'
p1478
aS'clothes_NNS'
p1479
aS'closet_NN'
p1480
aa(lp1481
S'valuables_NNS'
p1482
aS'safe_JJ'
p1483
aS'broom_NN'
p1484
aS'closet_NN'
p1485
aa(lp1486
S'valuables_NNS'
p1487
aS'safe_JJ'
p1488
aS'blender_NN'
p1489
aS'kitchen_NN'
p1490
aa(lp1491
S'valuables_NNS'
p1492
aS'safe_JJ'
p1493
aS'food_NN'
p1494
aS'pantry_NN'
p1495
aa(lp1496
S'table_NN'
p1497
aS'kitchen_NN'
p1498
aS'toilet_NN'
p1499
aS'bathroom_NN'
p1500
aa(lp1501
S'table_NN'
p1502
aS'kitchen_NN'
p1503
aS'toothbrush_NN'
p1504
aS'bathroom_NN'
p1505
aa(lp1506
S'table_NN'
p1507
aS'kitchen_NN'
p1508
aS'refrigerator_NN'
p1509
aS'kitchen_NN'
p1510
aa(lp1511
S'table_NN'
p1512
aS'kitchen_NN'
p1513
aS'toaster_NN'
p1514
aS'kitchen_NN'
p1515
aa(lp1516
S'table_NN'
p1517
aS'kitchen_NN'
p1518
aS'silverware_NN'
p1519
aS'kitchen_NN'
p1520
aa(lp1521
S'table_NN'
p1522
aS'kitchen_NN'
p1523
aS'sofa_NN'
p1524
aS'parlor_NN'
p1525
aa(lp1526
S'table_NN'
p1527
aS'kitchen_NN'
p1528
aS'tv_NN'
p1529
aS'den_NN'
p1530
aa(lp1531
S'table_NN'
p1532
aS'kitchen_NN'
p1533
aS'computer_NN'
p1534
aS'office_NN'
p1535
aa(lp1536
S'table_NN'
p1537
aS'kitchen_NN'
p1538
aS'bed_NN'
p1539
aS'bedroom_NN'
p1540
aa(lp1541
S'table_NN'
p1542
aS'kitchen_NN'
p1543
aS'dresser_NN'
p1544
aS'bedroom_NN'
p1545
aa(lp1546
S'table_NN'
p1547
aS'kitchen_NN'
p1548
aS'potatoes_NNS'
p1549
aS'cellar_NN'
p1550
aa(lp1551
S'table_NN'
p1552
aS'kitchen_NN'
p1553
aS'boxes_NNS'
p1554
aS'attic_NN'
p1555
aa(lp1556
S'table_NN'
p1557
aS'kitchen_NN'
p1558
aS'valuables_NNS'
p1559
aS'safe_JJ'
p1560
aa(lp1561
S'table_NN'
p1562
aS'kitchen_NN'
p1563
aS'nightstand_NN'
p1564
aS'bedroom_NN'
p1565
aa(lp1566
S'table_NN'
p1567
aS'kitchen_NN'
p1568
aS'sink_VB'
p1569
aS'kitchen_NN'
p1570
aa(lp1571
S'table_NN'
p1572
aS'kitchen_NN'
p1573
aS'sink_VB'
p1574
aS'bathroom_NN'
p1575
aa(lp1576
S'table_NN'
p1577
aS'kitchen_NN'
p1578
aS'mirror_NN'
p1579
aS'hallway_NN'
p1580
aa(lp1581
S'table_NN'
p1582
aS'kitchen_NN'
p1583
aS'mirror_NN'
p1584
aS'bedroom_NN'
p1585
aa(lp1586
S'table_NN'
p1587
aS'kitchen_NN'
p1588
aS'mirror_NN'
p1589
aS'bathroom_NN'
p1590
aa(lp1591
S'table_NN'
p1592
aS'kitchen_NN'
p1593
aS'clothes_NNS'
p1594
aS'closet_NN'
p1595
aa(lp1596
S'table_NN'
p1597
aS'kitchen_NN'
p1598
aS'broom_NN'
p1599
aS'closet_NN'
p1600
aa(lp1601
S'table_NN'
p1602
aS'kitchen_NN'
p1603
aS'blender_NN'
p1604
aS'kitchen_NN'
p1605
aa(lp1606
S'table_NN'
p1607
aS'kitchen_NN'
p1608
aS'food_NN'
p1609
aS'pantry_NN'
p1610
aa(lp1611
S'nightstand_NN'
p1612
aS'bedroom_NN'
p1613
aS'toilet_NN'
p1614
aS'bathroom_NN'
p1615
aa(lp1616
S'nightstand_NN'
p1617
aS'bedroom_NN'
p1618
aS'toothbrush_NN'
p1619
aS'bathroom_NN'
p1620
aa(lp1621
S'nightstand_NN'
p1622
aS'bedroom_NN'
p1623
aS'refrigerator_NN'
p1624
aS'kitchen_NN'
p1625
aa(lp1626
S'nightstand_NN'
p1627
aS'bedroom_NN'
p1628
aS'toaster_NN'
p1629
aS'kitchen_NN'
p1630
aa(lp1631
S'nightstand_NN'
p1632
aS'bedroom_NN'
p1633
aS'silverware_NN'
p1634
aS'kitchen_NN'
p1635
aa(lp1636
S'nightstand_NN'
p1637
aS'bedroom_NN'
p1638
aS'sofa_NN'
p1639
aS'parlor_NN'
p1640
aa(lp1641
S'nightstand_NN'
p1642
aS'bedroom_NN'
p1643
aS'tv_NN'
p1644
aS'den_NN'
p1645
aa(lp1646
S'nightstand_NN'
p1647
aS'bedroom_NN'
p1648
aS'computer_NN'
p1649
aS'office_NN'
p1650
aa(lp1651
S'nightstand_NN'
p1652
aS'bedroom_NN'
p1653
aS'bed_NN'
p1654
aS'bedroom_NN'
p1655
aa(lp1656
S'nightstand_NN'
p1657
aS'bedroom_NN'
p1658
aS'dresser_NN'
p1659
aS'bedroom_NN'
p1660
aa(lp1661
S'nightstand_NN'
p1662
aS'bedroom_NN'
p1663
aS'potatoes_NNS'
p1664
aS'cellar_NN'
p1665
aa(lp1666
S'nightstand_NN'
p1667
aS'bedroom_NN'
p1668
aS'boxes_NNS'
p1669
aS'attic_NN'
p1670
aa(lp1671
S'nightstand_NN'
p1672
aS'bedroom_NN'
p1673
aS'valuables_NNS'
p1674
aS'safe_JJ'
p1675
aa(lp1676
S'nightstand_NN'
p1677
aS'bedroom_NN'
p1678
aS'table_NN'
p1679
aS'kitchen_NN'
p1680
aa(lp1681
S'nightstand_NN'
p1682
aS'bedroom_NN'
p1683
aS'sink_VB'
p1684
aS'kitchen_NN'
p1685
aa(lp1686
S'nightstand_NN'
p1687
aS'bedroom_NN'
p1688
aS'sink_VB'
p1689
aS'bathroom_NN'
p1690
aa(lp1691
S'nightstand_NN'
p1692
aS'bedroom_NN'
p1693
aS'mirror_NN'
p1694
aS'hallway_NN'
p1695
aa(lp1696
S'nightstand_NN'
p1697
aS'bedroom_NN'
p1698
aS'mirror_NN'
p1699
aS'bedroom_NN'
p1700
aa(lp1701
S'nightstand_NN'
p1702
aS'bedroom_NN'
p1703
aS'mirror_NN'
p1704
aS'bathroom_NN'
p1705
aa(lp1706
S'nightstand_NN'
p1707
aS'bedroom_NN'
p1708
aS'clothes_NNS'
p1709
aS'closet_NN'
p1710
aa(lp1711
S'nightstand_NN'
p1712
aS'bedroom_NN'
p1713
aS'broom_NN'
p1714
aS'closet_NN'
p1715
aa(lp1716
S'nightstand_NN'
p1717
aS'bedroom_NN'
p1718
aS'blender_NN'
p1719
aS'kitchen_NN'
p1720
aa(lp1721
S'nightstand_NN'
p1722
aS'bedroom_NN'
p1723
aS'food_NN'
p1724
aS'pantry_NN'
p1725
aa(lp1726
S'sink_VB'
p1727
aS'kitchen_NN'
p1728
aS'toilet_NN'
p1729
aS'bathroom_NN'
p1730
aa(lp1731
S'sink_VB'
p1732
aS'kitchen_NN'
p1733
aS'toothbrush_NN'
p1734
aS'bathroom_NN'
p1735
aa(lp1736
S'sink_VB'
p1737
aS'kitchen_NN'
p1738
aS'refrigerator_NN'
p1739
aS'kitchen_NN'
p1740
aa(lp1741
S'sink_VB'
p1742
aS'kitchen_NN'
p1743
aS'toaster_NN'
p1744
aS'kitchen_NN'
p1745
aa(lp1746
S'sink_VB'
p1747
aS'kitchen_NN'
p1748
aS'silverware_NN'
p1749
aS'kitchen_NN'
p1750
aa(lp1751
S'sink_VB'
p1752
aS'kitchen_NN'
p1753
aS'sofa_NN'
p1754
aS'parlor_NN'
p1755
aa(lp1756
S'sink_VB'
p1757
aS'kitchen_NN'
p1758
aS'tv_NN'
p1759
aS'den_NN'
p1760
aa(lp1761
S'sink_VB'
p1762
aS'kitchen_NN'
p1763
aS'computer_NN'
p1764
aS'office_NN'
p1765
aa(lp1766
S'sink_VB'
p1767
aS'kitchen_NN'
p1768
aS'bed_NN'
p1769
aS'bedroom_NN'
p1770
aa(lp1771
S'sink_VB'
p1772
aS'kitchen_NN'
p1773
aS'dresser_NN'
p1774
aS'bedroom_NN'
p1775
aa(lp1776
S'sink_VB'
p1777
aS'kitchen_NN'
p1778
aS'potatoes_NNS'
p1779
aS'cellar_NN'
p1780
aa(lp1781
S'sink_VB'
p1782
aS'kitchen_NN'
p1783
aS'boxes_NNS'
p1784
aS'attic_NN'
p1785
aa(lp1786
S'sink_VB'
p1787
aS'kitchen_NN'
p1788
aS'valuables_NNS'
p1789
aS'safe_JJ'
p1790
aa(lp1791
S'sink_VB'
p1792
aS'kitchen_NN'
p1793
aS'table_NN'
p1794
aS'kitchen_NN'
p1795
aa(lp1796
S'sink_VB'
p1797
aS'kitchen_NN'
p1798
aS'nightstand_NN'
p1799
aS'bedroom_NN'
p1800
aa(lp1801
S'sink_VB'
p1802
aS'kitchen_NN'
p1803
aS'sink_VB'
p1804
aS'bathroom_NN'
p1805
aa(lp1806
S'sink_VB'
p1807
aS'kitchen_NN'
p1808
aS'mirror_NN'
p1809
aS'hallway_NN'
p1810
aa(lp1811
S'sink_VB'
p1812
aS'kitchen_NN'
p1813
aS'mirror_NN'
p1814
aS'bedroom_NN'
p1815
aa(lp1816
S'sink_VB'
p1817
aS'kitchen_NN'
p1818
aS'mirror_NN'
p1819
aS'bathroom_NN'
p1820
aa(lp1821
S'sink_VB'
p1822
aS'kitchen_NN'
p1823
aS'clothes_NNS'
p1824
aS'closet_NN'
p1825
aa(lp1826
S'sink_VB'
p1827
aS'kitchen_NN'
p1828
aS'broom_NN'
p1829
aS'closet_NN'
p1830
aa(lp1831
S'sink_VB'
p1832
aS'kitchen_NN'
p1833
aS'blender_NN'
p1834
aS'kitchen_NN'
p1835
aa(lp1836
S'sink_VB'
p1837
aS'kitchen_NN'
p1838
aS'food_NN'
p1839
aS'pantry_NN'
p1840
aa(lp1841
S'sink_VB'
p1842
aS'bathroom_NN'
p1843
aS'toilet_NN'
p1844
aS'bathroom_NN'
p1845
aa(lp1846
S'sink_VB'
p1847
aS'bathroom_NN'
p1848
aS'toothbrush_NN'
p1849
aS'bathroom_NN'
p1850
aa(lp1851
S'sink_VB'
p1852
aS'bathroom_NN'
p1853
aS'refrigerator_NN'
p1854
aS'kitchen_NN'
p1855
aa(lp1856
S'sink_VB'
p1857
aS'bathroom_NN'
p1858
aS'toaster_NN'
p1859
aS'kitchen_NN'
p1860
aa(lp1861
S'sink_VB'
p1862
aS'bathroom_NN'
p1863
aS'silverware_NN'
p1864
aS'kitchen_NN'
p1865
aa(lp1866
S'sink_VB'
p1867
aS'bathroom_NN'
p1868
aS'sofa_NN'
p1869
aS'parlor_NN'
p1870
aa(lp1871
S'sink_VB'
p1872
aS'bathroom_NN'
p1873
aS'tv_NN'
p1874
aS'den_NN'
p1875
aa(lp1876
S'sink_VB'
p1877
aS'bathroom_NN'
p1878
aS'computer_NN'
p1879
aS'office_NN'
p1880
aa(lp1881
S'sink_VB'
p1882
aS'bathroom_NN'
p1883
aS'bed_NN'
p1884
aS'bedroom_NN'
p1885
aa(lp1886
S'sink_VB'
p1887
aS'bathroom_NN'
p1888
aS'dresser_NN'
p1889
aS'bedroom_NN'
p1890
aa(lp1891
S'sink_VB'
p1892
aS'bathroom_NN'
p1893
aS'potatoes_NNS'
p1894
aS'cellar_NN'
p1895
aa(lp1896
S'sink_VB'
p1897
aS'bathroom_NN'
p1898
aS'boxes_NNS'
p1899
aS'attic_NN'
p1900
aa(lp1901
S'sink_VB'
p1902
aS'bathroom_NN'
p1903
aS'valuables_NNS'
p1904
aS'safe_JJ'
p1905
aa(lp1906
S'sink_VB'
p1907
aS'bathroom_NN'
p1908
aS'table_NN'
p1909
aS'kitchen_NN'
p1910
aa(lp1911
S'sink_VB'
p1912
aS'bathroom_NN'
p1913
aS'nightstand_NN'
p1914
aS'bedroom_NN'
p1915
aa(lp1916
S'sink_VB'
p1917
aS'bathroom_NN'
p1918
aS'sink_VB'
p1919
aS'kitchen_NN'
p1920
aa(lp1921
S'sink_VB'
p1922
aS'bathroom_NN'
p1923
aS'mirror_NN'
p1924
aS'hallway_NN'
p1925
aa(lp1926
S'sink_VB'
p1927
aS'bathroom_NN'
p1928
aS'mirror_NN'
p1929
aS'bedroom_NN'
p1930
aa(lp1931
S'sink_VB'
p1932
aS'bathroom_NN'
p1933
aS'mirror_NN'
p1934
aS'bathroom_NN'
p1935
aa(lp1936
S'sink_VB'
p1937
aS'bathroom_NN'
p1938
aS'clothes_NNS'
p1939
aS'closet_NN'
p1940
aa(lp1941
S'sink_VB'
p1942
aS'bathroom_NN'
p1943
aS'broom_NN'
p1944
aS'closet_NN'
p1945
aa(lp1946
S'sink_VB'
p1947
aS'bathroom_NN'
p1948
aS'blender_NN'
p1949
aS'kitchen_NN'
p1950
aa(lp1951
S'sink_VB'
p1952
aS'bathroom_NN'
p1953
aS'food_NN'
p1954
aS'pantry_NN'
p1955
aa(lp1956
S'mirror_NN'
p1957
aS'hallway_NN'
p1958
aS'toilet_NN'
p1959
aS'bathroom_NN'
p1960
aa(lp1961
S'mirror_NN'
p1962
aS'hallway_NN'
p1963
aS'toothbrush_NN'
p1964
aS'bathroom_NN'
p1965
aa(lp1966
S'mirror_NN'
p1967
aS'hallway_NN'
p1968
aS'refrigerator_NN'
p1969
aS'kitchen_NN'
p1970
aa(lp1971
S'mirror_NN'
p1972
aS'hallway_NN'
p1973
aS'toaster_NN'
p1974
aS'kitchen_NN'
p1975
aa(lp1976
S'mirror_NN'
p1977
aS'hallway_NN'
p1978
aS'silverware_NN'
p1979
aS'kitchen_NN'
p1980
aa(lp1981
S'mirror_NN'
p1982
aS'hallway_NN'
p1983
aS'sofa_NN'
p1984
aS'parlor_NN'
p1985
aa(lp1986
S'mirror_NN'
p1987
aS'hallway_NN'
p1988
aS'tv_NN'
p1989
aS'den_NN'
p1990
aa(lp1991
S'mirror_NN'
p1992
aS'hallway_NN'
p1993
aS'computer_NN'
p1994
aS'office_NN'
p1995
aa(lp1996
S'mirror_NN'
p1997
aS'hallway_NN'
p1998
aS'bed_NN'
p1999
aS'bedroom_NN'
p2000
aa(lp2001
S'mirror_NN'
p2002
aS'hallway_NN'
p2003
aS'dresser_NN'
p2004
aS'bedroom_NN'
p2005
aa(lp2006
S'mirror_NN'
p2007
aS'hallway_NN'
p2008
aS'potatoes_NNS'
p2009
aS'cellar_NN'
p2010
aa(lp2011
S'mirror_NN'
p2012
aS'hallway_NN'
p2013
aS'boxes_NNS'
p2014
aS'attic_NN'
p2015
aa(lp2016
S'mirror_NN'
p2017
aS'hallway_NN'
p2018
aS'valuables_NNS'
p2019
aS'safe_JJ'
p2020
aa(lp2021
S'mirror_NN'
p2022
aS'hallway_NN'
p2023
aS'table_NN'
p2024
aS'kitchen_NN'
p2025
aa(lp2026
S'mirror_NN'
p2027
aS'hallway_NN'
p2028
aS'nightstand_NN'
p2029
aS'bedroom_NN'
p2030
aa(lp2031
S'mirror_NN'
p2032
aS'hallway_NN'
p2033
aS'sink_VB'
p2034
aS'kitchen_NN'
p2035
aa(lp2036
S'mirror_NN'
p2037
aS'hallway_NN'
p2038
aS'sink_VB'
p2039
aS'bathroom_NN'
p2040
aa(lp2041
S'mirror_NN'
p2042
aS'hallway_NN'
p2043
aS'mirror_NN'
p2044
aS'bedroom_NN'
p2045
aa(lp2046
S'mirror_NN'
p2047
aS'hallway_NN'
p2048
aS'mirror_NN'
p2049
aS'bathroom_NN'
p2050
aa(lp2051
S'mirror_NN'
p2052
aS'hallway_NN'
p2053
aS'clothes_NNS'
p2054
aS'closet_NN'
p2055
aa(lp2056
S'mirror_NN'
p2057
aS'hallway_NN'
p2058
aS'broom_NN'
p2059
aS'closet_NN'
p2060
aa(lp2061
S'mirror_NN'
p2062
aS'hallway_NN'
p2063
aS'blender_NN'
p2064
aS'kitchen_NN'
p2065
aa(lp2066
S'mirror_NN'
p2067
aS'hallway_NN'
p2068
aS'food_NN'
p2069
aS'pantry_NN'
p2070
aa(lp2071
S'mirror_NN'
p2072
aS'bedroom_NN'
p2073
aS'toilet_NN'
p2074
aS'bathroom_NN'
p2075
aa(lp2076
S'mirror_NN'
p2077
aS'bedroom_NN'
p2078
aS'toothbrush_NN'
p2079
aS'bathroom_NN'
p2080
aa(lp2081
S'mirror_NN'
p2082
aS'bedroom_NN'
p2083
aS'refrigerator_NN'
p2084
aS'kitchen_NN'
p2085
aa(lp2086
S'mirror_NN'
p2087
aS'bedroom_NN'
p2088
aS'toaster_NN'
p2089
aS'kitchen_NN'
p2090
aa(lp2091
S'mirror_NN'
p2092
aS'bedroom_NN'
p2093
aS'silverware_NN'
p2094
aS'kitchen_NN'
p2095
aa(lp2096
S'mirror_NN'
p2097
aS'bedroom_NN'
p2098
aS'sofa_NN'
p2099
aS'parlor_NN'
p2100
aa(lp2101
S'mirror_NN'
p2102
aS'bedroom_NN'
p2103
aS'tv_NN'
p2104
aS'den_NN'
p2105
aa(lp2106
S'mirror_NN'
p2107
aS'bedroom_NN'
p2108
aS'computer_NN'
p2109
aS'office_NN'
p2110
aa(lp2111
S'mirror_NN'
p2112
aS'bedroom_NN'
p2113
aS'bed_NN'
p2114
aS'bedroom_NN'
p2115
aa(lp2116
S'mirror_NN'
p2117
aS'bedroom_NN'
p2118
aS'dresser_NN'
p2119
aS'bedroom_NN'
p2120
aa(lp2121
S'mirror_NN'
p2122
aS'bedroom_NN'
p2123
aS'potatoes_NNS'
p2124
aS'cellar_NN'
p2125
aa(lp2126
S'mirror_NN'
p2127
aS'bedroom_NN'
p2128
aS'boxes_NNS'
p2129
aS'attic_NN'
p2130
aa(lp2131
S'mirror_NN'
p2132
aS'bedroom_NN'
p2133
aS'valuables_NNS'
p2134
aS'safe_JJ'
p2135
aa(lp2136
S'mirror_NN'
p2137
aS'bedroom_NN'
p2138
aS'table_NN'
p2139
aS'kitchen_NN'
p2140
aa(lp2141
S'mirror_NN'
p2142
aS'bedroom_NN'
p2143
aS'nightstand_NN'
p2144
aS'bedroom_NN'
p2145
aa(lp2146
S'mirror_NN'
p2147
aS'bedroom_NN'
p2148
aS'sink_VB'
p2149
aS'kitchen_NN'
p2150
aa(lp2151
S'mirror_NN'
p2152
aS'bedroom_NN'
p2153
aS'sink_VB'
p2154
aS'bathroom_NN'
p2155
aa(lp2156
S'mirror_NN'
p2157
aS'bedroom_NN'
p2158
aS'mirror_NN'
p2159
aS'hallway_NN'
p2160
aa(lp2161
S'mirror_NN'
p2162
aS'bedroom_NN'
p2163
aS'mirror_NN'
p2164
aS'bathroom_NN'
p2165
aa(lp2166
S'mirror_NN'
p2167
aS'bedroom_NN'
p2168
aS'clothes_NNS'
p2169
aS'closet_NN'
p2170
aa(lp2171
S'mirror_NN'
p2172
aS'bedroom_NN'
p2173
aS'broom_NN'
p2174
aS'closet_NN'
p2175
aa(lp2176
S'mirror_NN'
p2177
aS'bedroom_NN'
p2178
aS'blender_NN'
p2179
aS'kitchen_NN'
p2180
aa(lp2181
S'mirror_NN'
p2182
aS'bedroom_NN'
p2183
aS'food_NN'
p2184
aS'pantry_NN'
p2185
aa(lp2186
S'mirror_NN'
p2187
aS'bathroom_NN'
p2188
aS'toilet_NN'
p2189
aS'bathroom_NN'
p2190
aa(lp2191
S'mirror_NN'
p2192
aS'bathroom_NN'
p2193
aS'toothbrush_NN'
p2194
aS'bathroom_NN'
p2195
aa(lp2196
S'mirror_NN'
p2197
aS'bathroom_NN'
p2198
aS'refrigerator_NN'
p2199
aS'kitchen_NN'
p2200
aa(lp2201
S'mirror_NN'
p2202
aS'bathroom_NN'
p2203
aS'toaster_NN'
p2204
aS'kitchen_NN'
p2205
aa(lp2206
S'mirror_NN'
p2207
aS'bathroom_NN'
p2208
aS'silverware_NN'
p2209
aS'kitchen_NN'
p2210
aa(lp2211
S'mirror_NN'
p2212
aS'bathroom_NN'
p2213
aS'sofa_NN'
p2214
aS'parlor_NN'
p2215
aa(lp2216
S'mirror_NN'
p2217
aS'bathroom_NN'
p2218
aS'tv_NN'
p2219
aS'den_NN'
p2220
aa(lp2221
S'mirror_NN'
p2222
aS'bathroom_NN'
p2223
aS'computer_NN'
p2224
aS'office_NN'
p2225
aa(lp2226
S'mirror_NN'
p2227
aS'bathroom_NN'
p2228
aS'bed_NN'
p2229
aS'bedroom_NN'
p2230
aa(lp2231
S'mirror_NN'
p2232
aS'bathroom_NN'
p2233
aS'dresser_NN'
p2234
aS'bedroom_NN'
p2235
aa(lp2236
S'mirror_NN'
p2237
aS'bathroom_NN'
p2238
aS'potatoes_NNS'
p2239
aS'cellar_NN'
p2240
aa(lp2241
S'mirror_NN'
p2242
aS'bathroom_NN'
p2243
aS'boxes_NNS'
p2244
aS'attic_NN'
p2245
aa(lp2246
S'mirror_NN'
p2247
aS'bathroom_NN'
p2248
aS'valuables_NNS'
p2249
aS'safe_JJ'
p2250
aa(lp2251
S'mirror_NN'
p2252
aS'bathroom_NN'
p2253
aS'table_NN'
p2254
aS'kitchen_NN'
p2255
aa(lp2256
S'mirror_NN'
p2257
aS'bathroom_NN'
p2258
aS'nightstand_NN'
p2259
aS'bedroom_NN'
p2260
aa(lp2261
S'mirror_NN'
p2262
aS'bathroom_NN'
p2263
aS'sink_VB'
p2264
aS'kitchen_NN'
p2265
aa(lp2266
S'mirror_NN'
p2267
aS'bathroom_NN'
p2268
aS'sink_VB'
p2269
aS'bathroom_NN'
p2270
aa(lp2271
S'mirror_NN'
p2272
aS'bathroom_NN'
p2273
aS'mirror_NN'
p2274
aS'hallway_NN'
p2275
aa(lp2276
S'mirror_NN'
p2277
aS'bathroom_NN'
p2278
aS'mirror_NN'
p2279
aS'bedroom_NN'
p2280
aa(lp2281
S'mirror_NN'
p2282
aS'bathroom_NN'
p2283
aS'clothes_NNS'
p2284
aS'closet_NN'
p2285
aa(lp2286
S'mirror_NN'
p2287
aS'bathroom_NN'
p2288
aS'broom_NN'
p2289
aS'closet_NN'
p2290
aa(lp2291
S'mirror_NN'
p2292
aS'bathroom_NN'
p2293
aS'blender_NN'
p2294
aS'kitchen_NN'
p2295
aa(lp2296
S'mirror_NN'
p2297
aS'bathroom_NN'
p2298
aS'food_NN'
p2299
aS'pantry_NN'
p2300
aa(lp2301
S'clothes_NNS'
p2302
aS'closet_NN'
p2303
aS'toilet_NN'
p2304
aS'bathroom_NN'
p2305
aa(lp2306
S'clothes_NNS'
p2307
aS'closet_NN'
p2308
aS'toothbrush_NN'
p2309
aS'bathroom_NN'
p2310
aa(lp2311
S'clothes_NNS'
p2312
aS'closet_NN'
p2313
aS'refrigerator_NN'
p2314
aS'kitchen_NN'
p2315
aa(lp2316
S'clothes_NNS'
p2317
aS'closet_NN'
p2318
aS'toaster_NN'
p2319
aS'kitchen_NN'
p2320
aa(lp2321
S'clothes_NNS'
p2322
aS'closet_NN'
p2323
aS'silverware_NN'
p2324
aS'kitchen_NN'
p2325
aa(lp2326
S'clothes_NNS'
p2327
aS'closet_NN'
p2328
aS'sofa_NN'
p2329
aS'parlor_NN'
p2330
aa(lp2331
S'clothes_NNS'
p2332
aS'closet_NN'
p2333
aS'tv_NN'
p2334
aS'den_NN'
p2335
aa(lp2336
S'clothes_NNS'
p2337
aS'closet_NN'
p2338
aS'computer_NN'
p2339
aS'office_NN'
p2340
aa(lp2341
S'clothes_NNS'
p2342
aS'closet_NN'
p2343
aS'bed_NN'
p2344
aS'bedroom_NN'
p2345
aa(lp2346
S'clothes_NNS'
p2347
aS'closet_NN'
p2348
aS'dresser_NN'
p2349
aS'bedroom_NN'
p2350
aa(lp2351
S'clothes_NNS'
p2352
aS'closet_NN'
p2353
aS'potatoes_NNS'
p2354
aS'cellar_NN'
p2355
aa(lp2356
S'clothes_NNS'
p2357
aS'closet_NN'
p2358
aS'boxes_NNS'
p2359
aS'attic_NN'
p2360
aa(lp2361
S'clothes_NNS'
p2362
aS'closet_NN'
p2363
aS'valuables_NNS'
p2364
aS'safe_JJ'
p2365
aa(lp2366
S'clothes_NNS'
p2367
aS'closet_NN'
p2368
aS'table_NN'
p2369
aS'kitchen_NN'
p2370
aa(lp2371
S'clothes_NNS'
p2372
aS'closet_NN'
p2373
aS'nightstand_NN'
p2374
aS'bedroom_NN'
p2375
aa(lp2376
S'clothes_NNS'
p2377
aS'closet_NN'
p2378
aS'sink_VB'
p2379
aS'kitchen_NN'
p2380
aa(lp2381
S'clothes_NNS'
p2382
aS'closet_NN'
p2383
aS'sink_VB'
p2384
aS'bathroom_NN'
p2385
aa(lp2386
S'clothes_NNS'
p2387
aS'closet_NN'
p2388
aS'mirror_NN'
p2389
aS'hallway_NN'
p2390
aa(lp2391
S'clothes_NNS'
p2392
aS'closet_NN'
p2393
aS'mirror_NN'
p2394
aS'bedroom_NN'
p2395
aa(lp2396
S'clothes_NNS'
p2397
aS'closet_NN'
p2398
aS'mirror_NN'
p2399
aS'bathroom_NN'
p2400
aa(lp2401
S'clothes_NNS'
p2402
aS'closet_NN'
p2403
aS'broom_NN'
p2404
aS'closet_NN'
p2405
aa(lp2406
S'clothes_NNS'
p2407
aS'closet_NN'
p2408
aS'blender_NN'
p2409
aS'kitchen_NN'
p2410
aa(lp2411
S'clothes_NNS'
p2412
aS'closet_NN'
p2413
aS'food_NN'
p2414
aS'pantry_NN'
p2415
aa(lp2416
S'broom_NN'
p2417
aS'closet_NN'
p2418
aS'toilet_NN'
p2419
aS'bathroom_NN'
p2420
aa(lp2421
S'broom_NN'
p2422
aS'closet_NN'
p2423
aS'toothbrush_NN'
p2424
aS'bathroom_NN'
p2425
aa(lp2426
S'broom_NN'
p2427
aS'closet_NN'
p2428
aS'refrigerator_NN'
p2429
aS'kitchen_NN'
p2430
aa(lp2431
S'broom_NN'
p2432
aS'closet_NN'
p2433
aS'toaster_NN'
p2434
aS'kitchen_NN'
p2435
aa(lp2436
S'broom_NN'
p2437
aS'closet_NN'
p2438
aS'silverware_NN'
p2439
aS'kitchen_NN'
p2440
aa(lp2441
S'broom_NN'
p2442
aS'closet_NN'
p2443
aS'sofa_NN'
p2444
aS'parlor_NN'
p2445
aa(lp2446
S'broom_NN'
p2447
aS'closet_NN'
p2448
aS'tv_NN'
p2449
aS'den_NN'
p2450
aa(lp2451
S'broom_NN'
p2452
aS'closet_NN'
p2453
aS'computer_NN'
p2454
aS'office_NN'
p2455
aa(lp2456
S'broom_NN'
p2457
aS'closet_NN'
p2458
aS'bed_NN'
p2459
aS'bedroom_NN'
p2460
aa(lp2461
S'broom_NN'
p2462
aS'closet_NN'
p2463
aS'dresser_NN'
p2464
aS'bedroom_NN'
p2465
aa(lp2466
S'broom_NN'
p2467
aS'closet_NN'
p2468
aS'potatoes_NNS'
p2469
aS'cellar_NN'
p2470
aa(lp2471
S'broom_NN'
p2472
aS'closet_NN'
p2473
aS'boxes_NNS'
p2474
aS'attic_NN'
p2475
aa(lp2476
S'broom_NN'
p2477
aS'closet_NN'
p2478
aS'valuables_NNS'
p2479
aS'safe_JJ'
p2480
aa(lp2481
S'broom_NN'
p2482
aS'closet_NN'
p2483
aS'table_NN'
p2484
aS'kitchen_NN'
p2485
aa(lp2486
S'broom_NN'
p2487
aS'closet_NN'
p2488
aS'nightstand_NN'
p2489
aS'bedroom_NN'
p2490
aa(lp2491
S'broom_NN'
p2492
aS'closet_NN'
p2493
aS'sink_VB'
p2494
aS'kitchen_NN'
p2495
aa(lp2496
S'broom_NN'
p2497
aS'closet_NN'
p2498
aS'sink_VB'
p2499
aS'bathroom_NN'
p2500
aa(lp2501
S'broom_NN'
p2502
aS'closet_NN'
p2503
aS'mirror_NN'
p2504
aS'hallway_NN'
p2505
aa(lp2506
S'broom_NN'
p2507
aS'closet_NN'
p2508
aS'mirror_NN'
p2509
aS'bedroom_NN'
p2510
aa(lp2511
S'broom_NN'
p2512
aS'closet_NN'
p2513
aS'mirror_NN'
p2514
aS'bathroom_NN'
p2515
aa(lp2516
S'broom_NN'
p2517
aS'closet_NN'
p2518
aS'clothes_NNS'
p2519
aS'closet_NN'
p2520
aa(lp2521
S'broom_NN'
p2522
aS'closet_NN'
p2523
aS'blender_NN'
p2524
aS'kitchen_NN'
p2525
aa(lp2526
S'broom_NN'
p2527
aS'closet_NN'
p2528
aS'food_NN'
p2529
aS'pantry_NN'
p2530
aa(lp2531
S'blender_NN'
p2532
aS'kitchen_NN'
p2533
aS'toilet_NN'
p2534
aS'bathroom_NN'
p2535
aa(lp2536
S'blender_NN'
p2537
aS'kitchen_NN'
p2538
aS'toothbrush_NN'
p2539
aS'bathroom_NN'
p2540
aa(lp2541
S'blender_NN'
p2542
aS'kitchen_NN'
p2543
aS'refrigerator_NN'
p2544
aS'kitchen_NN'
p2545
aa(lp2546
S'blender_NN'
p2547
aS'kitchen_NN'
p2548
aS'toaster_NN'
p2549
aS'kitchen_NN'
p2550
aa(lp2551
S'blender_NN'
p2552
aS'kitchen_NN'
p2553
aS'silverware_NN'
p2554
aS'kitchen_NN'
p2555
aa(lp2556
S'blender_NN'
p2557
aS'kitchen_NN'
p2558
aS'sofa_NN'
p2559
aS'parlor_NN'
p2560
aa(lp2561
S'blender_NN'
p2562
aS'kitchen_NN'
p2563
aS'tv_NN'
p2564
aS'den_NN'
p2565
aa(lp2566
S'blender_NN'
p2567
aS'kitchen_NN'
p2568
aS'computer_NN'
p2569
aS'office_NN'
p2570
aa(lp2571
S'blender_NN'
p2572
aS'kitchen_NN'
p2573
aS'bed_NN'
p2574
aS'bedroom_NN'
p2575
aa(lp2576
S'blender_NN'
p2577
aS'kitchen_NN'
p2578
aS'dresser_NN'
p2579
aS'bedroom_NN'
p2580
aa(lp2581
S'blender_NN'
p2582
aS'kitchen_NN'
p2583
aS'potatoes_NNS'
p2584
aS'cellar_NN'
p2585
aa(lp2586
S'blender_NN'
p2587
aS'kitchen_NN'
p2588
aS'boxes_NNS'
p2589
aS'attic_NN'
p2590
aa(lp2591
S'blender_NN'
p2592
aS'kitchen_NN'
p2593
aS'valuables_NNS'
p2594
aS'safe_JJ'
p2595
aa(lp2596
S'blender_NN'
p2597
aS'kitchen_NN'
p2598
aS'table_NN'
p2599
aS'kitchen_NN'
p2600
aa(lp2601
S'blender_NN'
p2602
aS'kitchen_NN'
p2603
aS'nightstand_NN'
p2604
aS'bedroom_NN'
p2605
aa(lp2606
S'blender_NN'
p2607
aS'kitchen_NN'
p2608
aS'sink_VB'
p2609
aS'kitchen_NN'
p2610
aa(lp2611
S'blender_NN'
p2612
aS'kitchen_NN'
p2613
aS'sink_VB'
p2614
aS'bathroom_NN'
p2615
aa(lp2616
S'blender_NN'
p2617
aS'kitchen_NN'
p2618
aS'mirror_NN'
p2619
aS'hallway_NN'
p2620
aa(lp2621
S'blender_NN'
p2622
aS'kitchen_NN'
p2623
aS'mirror_NN'
p2624
aS'bedroom_NN'
p2625
aa(lp2626
S'blender_NN'
p2627
aS'kitchen_NN'
p2628
aS'mirror_NN'
p2629
aS'bathroom_NN'
p2630
aa(lp2631
S'blender_NN'
p2632
aS'kitchen_NN'
p2633
aS'clothes_NNS'
p2634
aS'closet_NN'
p2635
aa(lp2636
S'blender_NN'
p2637
aS'kitchen_NN'
p2638
aS'broom_NN'
p2639
aS'closet_NN'
p2640
aa(lp2641
S'blender_NN'
p2642
aS'kitchen_NN'
p2643
aS'food_NN'
p2644
aS'pantry_NN'
p2645
aa(lp2646
S'food_NN'
p2647
aS'pantry_NN'
p2648
aS'toilet_NN'
p2649
aS'bathroom_NN'
p2650
aa(lp2651
S'food_NN'
p2652
aS'pantry_NN'
p2653
aS'toothbrush_NN'
p2654
aS'bathroom_NN'
p2655
aa(lp2656
S'food_NN'
p2657
aS'pantry_NN'
p2658
aS'refrigerator_NN'
p2659
aS'kitchen_NN'
p2660
aa(lp2661
S'food_NN'
p2662
aS'pantry_NN'
p2663
aS'toaster_NN'
p2664
aS'kitchen_NN'
p2665
aa(lp2666
S'food_NN'
p2667
aS'pantry_NN'
p2668
aS'silverware_NN'
p2669
aS'kitchen_NN'
p2670
aa(lp2671
S'food_NN'
p2672
aS'pantry_NN'
p2673
aS'sofa_NN'
p2674
aS'parlor_NN'
p2675
aa(lp2676
S'food_NN'
p2677
aS'pantry_NN'
p2678
aS'tv_NN'
p2679
aS'den_NN'
p2680
aa(lp2681
S'food_NN'
p2682
aS'pantry_NN'
p2683
aS'computer_NN'
p2684
aS'office_NN'
p2685
aa(lp2686
S'food_NN'
p2687
aS'pantry_NN'
p2688
aS'bed_NN'
p2689
aS'bedroom_NN'
p2690
aa(lp2691
S'food_NN'
p2692
aS'pantry_NN'
p2693
aS'dresser_NN'
p2694
aS'bedroom_NN'
p2695
aa(lp2696
S'food_NN'
p2697
aS'pantry_NN'
p2698
aS'potatoes_NNS'
p2699
aS'cellar_NN'
p2700
aa(lp2701
S'food_NN'
p2702
aS'pantry_NN'
p2703
aS'boxes_NNS'
p2704
aS'attic_NN'
p2705
aa(lp2706
S'food_NN'
p2707
aS'pantry_NN'
p2708
aS'valuables_NNS'
p2709
aS'safe_JJ'
p2710
aa(lp2711
S'food_NN'
p2712
aS'pantry_NN'
p2713
aS'table_NN'
p2714
aS'kitchen_NN'
p2715
aa(lp2716
S'food_NN'
p2717
aS'pantry_NN'
p2718
aS'nightstand_NN'
p2719
aS'bedroom_NN'
p2720
aa(lp2721
S'food_NN'
p2722
aS'pantry_NN'
p2723
aS'sink_VB'
p2724
aS'kitchen_NN'
p2725
aa(lp2726
S'food_NN'
p2727
aS'pantry_NN'
p2728
aS'sink_VB'
p2729
aS'bathroom_NN'
p2730
aa(lp2731
S'food_NN'
p2732
aS'pantry_NN'
p2733
aS'mirror_NN'
p2734
aS'hallway_NN'
p2735
aa(lp2736
S'food_NN'
p2737
aS'pantry_NN'
p2738
aS'mirror_NN'
p2739
aS'bedroom_NN'
p2740
aa(lp2741
S'food_NN'
p2742
aS'pantry_NN'
p2743
aS'mirror_NN'
p2744
aS'bathroom_NN'
p2745
aa(lp2746
S'food_NN'
p2747
aS'pantry_NN'
p2748
aS'clothes_NNS'
p2749
aS'closet_NN'
p2750
aa(lp2751
S'food_NN'
p2752
aS'pantry_NN'
p2753
aS'broom_NN'
p2754
aS'closet_NN'
p2755
aa(lp2756
S'food_NN'
p2757
aS'pantry_NN'
p2758
aS'blender_NN'
p2759
aS'kitchen_NN'
p2760
aa.