(lp0
(lp1
S'kitchen_NN'
p2
aS'refrigerator_NN'
p3
aS'kitchen_NN'
p4
aS'shelf_NN'
p5
aa(lp6
g2
ag3
aS'library_NN'
p7
aS'bookshelf_NN'
p8
aa(lp9
g2
ag3
aS'nursery_NN'
p10
aS'crib_NN'
p11
aa(lp12
g2
ag3
aS'kitchen_NN'
p13
aS'cupboard_NN'
p14
aa(lp15
g2
ag3
aS'office_NN'
p16
aS'desk_NN'
p17
aa(lp18
g2
ag3
aS'kitchen_NN'
p19
aS'table_NN'
p20
aa(lp21
g2
ag3
aS'parlor_NN'
p22
aS'couch_NN'
p23
aa(lp24
g2
ag3
aS'parlor_NN'
p25
aS'sofa_NN'
p26
aa(lp27
g2
ag3
aS'kitchen_NN'
p28
aS'pantry_NN'
p29
aa(lp30
g2
ag3
aS'hallway_NN'
p31
aS'closet_NN'
p32
aa(lp33
g2
ag3
aS'garden_NN'
p34
aS'shed_NN'
p35
aa(lp36
g2
ag3
aS'pantry_NN'
p37
aS'shelf_NN'
p38
aa(lp39
g2
ag3
aS'nursury_NN'
p40
aS'shelf_NN'
p41
aa(lp42
g2
ag3
aS'hallway_NN'
p43
aS'bookshelf_NN'
p44
aa(lp45
g2
ag3
aS'bedroom_NN'
p46
aS'crib_NN'
p47
aa(lp48
g2
ag3
aS'den_NN'
p49
aS'recliner_NN'
p50
aa(lp51
g2
ag3
aS'bathroom_NN'
p52
aS'shower_NN'
p53
aa(lp54
g2
ag3
aS'attic_NN'
p55
aS'boxes_NNS'
p56
aa(lp57
g2
ag3
aS'garage_NN'
p58
aS'boxes_NNS'
p59
aa(lp60
g2
ag3
aS'bathroom_NN'
p61
aS'sink_NN'
p62
aa(lp63
g2
ag3
aS'kitchen_NN'
p64
aS'sink_NN'
p65
aa(lp66
g2
ag3
aS'bedroom_NN'
p67
aS'bed_NN'
p68
aa(lp69
g2
ag3
aS'garage_NN'
p70
aS'car_NN'
p71
aa(lp72
g2
ag3
aS'driveway_NN'
p73
aS'car_NN'
p74
aa(lp75
g2
ag3
aS'kitchen_NN'
p76
aS'microwave_NN'
p77
aa(lp78
g2
ag3
aS'kitchen_NN'
p79
aS'stove_NN'
p80
aa(lp81
g2
ag3
aS'bedroom_NN'
p82
aS'dresser_NN'
p83
aa(lp84
g2
ag3
aS'bedroom_NN'
p85
aS'closet_NN'
p86
aa(lp87
g2
ag3
aS'bathroom_NN'
p88
aS'cabinet_NN'
p89
aa(lp90
g2
ag3
aS'bedroom_NN'
p91
aS'nightstand_NN'
p92
aa(lp93
g2
ag3
aS'kitchen_NN'
p94
aS'counter_NN'
p95
aa(lp96
g2
ag3
aS'bathroom_NN'
p97
aS'counter_NN'
p98
aa(lp99
g2
ag3
aS'garage_NN'
p100
aS'workbench_NN'
p101
aa(lp102
g2
ag3
aS'workshop_NN'
p103
aS'workbench_NN'
p104
aa(lp105
g2
ag3
aS'garage_NN'
p106
aS'toolbox_NN'
p107
aa(lp108
g2
ag3
aS'workshop_NN'
p109
aS'toolbox_NN'
p110
aa(lp111
g2
ag3
aS'shed_NN'
p112
aS'toolbox_NN'
p113
aa(lp114
g4
ag5
ag2
ag3
aa(lp115
g4
ag5
ag7
ag8
aa(lp116
g4
ag5
ag10
ag11
aa(lp117
g4
ag5
ag13
ag14
aa(lp118
g4
ag5
ag16
ag17
aa(lp119
g4
ag5
ag19
ag20
aa(lp120
g4
ag5
ag22
ag23
aa(lp121
g4
ag5
ag25
ag26
aa(lp122
g4
ag5
ag28
ag29
aa(lp123
g4
ag5
ag31
ag32
aa(lp124
g4
ag5
ag34
ag35
aa(lp125
g4
ag5
ag37
ag38
aa(lp126
g4
ag5
ag40
ag41
aa(lp127
g4
ag5
ag43
ag44
aa(lp128
g4
ag5
ag46
ag47
aa(lp129
g4
ag5
ag49
ag50
aa(lp130
g4
ag5
ag52
ag53
aa(lp131
g4
ag5
ag55
ag56
aa(lp132
g4
ag5
ag58
ag59
aa(lp133
g4
ag5
ag61
ag62
aa(lp134
g4
ag5
ag64
ag65
aa(lp135
g4
ag5
ag67
ag68
aa(lp136
g4
ag5
ag70
ag71
aa(lp137
g4
ag5
ag73
ag74
aa(lp138
g4
ag5
ag76
ag77
aa(lp139
g4
ag5
ag79
ag80
aa(lp140
g4
ag5
ag82
ag83
aa(lp141
g4
ag5
ag85
ag86
aa(lp142
g4
ag5
ag88
ag89
aa(lp143
g4
ag5
ag91
ag92
aa(lp144
g4
ag5
ag94
ag95
aa(lp145
g4
ag5
ag97
ag98
aa(lp146
g4
ag5
ag100
ag101
aa(lp147
g4
ag5
ag103
ag104
aa(lp148
g4
ag5
ag106
ag107
aa(lp149
g4
ag5
ag109
ag110
aa(lp150
g4
ag5
ag112
ag113
aa(lp151
g7
ag8
ag2
ag3
aa(lp152
g7
ag8
ag4
ag5
aa(lp153
g7
ag8
ag10
ag11
aa(lp154
g7
ag8
ag13
ag14
aa(lp155
g7
ag8
ag16
ag17
aa(lp156
g7
ag8
ag19
ag20
aa(lp157
g7
ag8
ag22
ag23
aa(lp158
g7
ag8
ag25
ag26
aa(lp159
g7
ag8
ag28
ag29
aa(lp160
g7
ag8
ag31
ag32
aa(lp161
g7
ag8
ag34
ag35
aa(lp162
g7
ag8
ag37
ag38
aa(lp163
g7
ag8
ag40
ag41
aa(lp164
g7
ag8
ag43
ag44
aa(lp165
g7
ag8
ag46
ag47
aa(lp166
g7
ag8
ag49
ag50
aa(lp167
g7
ag8
ag52
ag53
aa(lp168
g7
ag8
ag55
ag56
aa(lp169
g7
ag8
ag58
ag59
aa(lp170
g7
ag8
ag61
ag62
aa(lp171
g7
ag8
ag64
ag65
aa(lp172
g7
ag8
ag67
ag68
aa(lp173
g7
ag8
ag70
ag71
aa(lp174
g7
ag8
ag73
ag74
aa(lp175
g7
ag8
ag76
ag77
aa(lp176
g7
ag8
ag79
ag80
aa(lp177
g7
ag8
ag82
ag83
aa(lp178
g7
ag8
ag85
ag86
aa(lp179
g7
ag8
ag88
ag89
aa(lp180
g7
ag8
ag91
ag92
aa(lp181
g7
ag8
ag94
ag95
aa(lp182
g7
ag8
ag97
ag98
aa(lp183
g7
ag8
ag100
ag101
aa(lp184
g7
ag8
ag103
ag104
aa(lp185
g7
ag8
ag106
ag107
aa(lp186
g7
ag8
ag109
ag110
aa(lp187
g7
ag8
ag112
ag113
aa(lp188
g10
ag11
ag2
ag3
aa(lp189
g10
ag11
ag4
ag5
aa(lp190
g10
ag11
ag7
ag8
aa(lp191
g10
ag11
ag13
ag14
aa(lp192
g10
ag11
ag16
ag17
aa(lp193
g10
ag11
ag19
ag20
aa(lp194
g10
ag11
ag22
ag23
aa(lp195
g10
ag11
ag25
ag26
aa(lp196
g10
ag11
ag28
ag29
aa(lp197
g10
ag11
ag31
ag32
aa(lp198
g10
ag11
ag34
ag35
aa(lp199
g10
ag11
ag37
ag38
aa(lp200
g10
ag11
ag40
ag41
aa(lp201
g10
ag11
ag43
ag44
aa(lp202
g10
ag11
ag46
ag47
aa(lp203
g10
ag11
ag49
ag50
aa(lp204
g10
ag11
ag52
ag53
aa(lp205
g10
ag11
ag55
ag56
aa(lp206
g10
ag11
ag58
ag59
aa(lp207
g10
ag11
ag61
ag62
aa(lp208
g10
ag11
ag64
ag65
aa(lp209
g10
ag11
ag67
ag68
aa(lp210
g10
ag11
ag70
ag71
aa(lp211
g10
ag11
ag73
ag74
aa(lp212
g10
ag11
ag76
ag77
aa(lp213
g10
ag11
ag79
ag80
aa(lp214
g10
ag11
ag82
ag83
aa(lp215
g10
ag11
ag85
ag86
aa(lp216
g10
ag11
ag88
ag89
aa(lp217
g10
ag11
ag91
ag92
aa(lp218
g10
ag11
ag94
ag95
aa(lp219
g10
ag11
ag97
ag98
aa(lp220
g10
ag11
ag100
ag101
aa(lp221
g10
ag11
ag103
ag104
aa(lp222
g10
ag11
ag106
ag107
aa(lp223
g10
ag11
ag109
ag110
aa(lp224
g10
ag11
ag112
ag113
aa(lp225
g13
ag14
ag2
ag3
aa(lp226
g13
ag14
ag4
ag5
aa(lp227
g13
ag14
ag7
ag8
aa(lp228
g13
ag14
ag10
ag11
aa(lp229
g13
ag14
ag16
ag17
aa(lp230
g13
ag14
ag19
ag20
aa(lp231
g13
ag14
ag22
ag23
aa(lp232
g13
ag14
ag25
ag26
aa(lp233
g13
ag14
ag28
ag29
aa(lp234
g13
ag14
ag31
ag32
aa(lp235
g13
ag14
ag34
ag35
aa(lp236
g13
ag14
ag37
ag38
aa(lp237
g13
ag14
ag40
ag41
aa(lp238
g13
ag14
ag43
ag44
aa(lp239
g13
ag14
ag46
ag47
aa(lp240
g13
ag14
ag49
ag50
aa(lp241
g13
ag14
ag52
ag53
aa(lp242
g13
ag14
ag55
ag56
aa(lp243
g13
ag14
ag58
ag59
aa(lp244
g13
ag14
ag61
ag62
aa(lp245
g13
ag14
ag64
ag65
aa(lp246
g13
ag14
ag67
ag68
aa(lp247
g13
ag14
ag70
ag71
aa(lp248
g13
ag14
ag73
ag74
aa(lp249
g13
ag14
ag76
ag77
aa(lp250
g13
ag14
ag79
ag80
aa(lp251
g13
ag14
ag82
ag83
aa(lp252
g13
ag14
ag85
ag86
aa(lp253
g13
ag14
ag88
ag89
aa(lp254
g13
ag14
ag91
ag92
aa(lp255
g13
ag14
ag94
ag95
aa(lp256
g13
ag14
ag97
ag98
aa(lp257
g13
ag14
ag100
ag101
aa(lp258
g13
ag14
ag103
ag104
aa(lp259
g13
ag14
ag106
ag107
aa(lp260
g13
ag14
ag109
ag110
aa(lp261
g13
ag14
ag112
ag113
aa(lp262
g16
ag17
ag2
ag3
aa(lp263
g16
ag17
ag4
ag5
aa(lp264
g16
ag17
ag7
ag8
aa(lp265
g16
ag17
ag10
ag11
aa(lp266
g16
ag17
ag13
ag14
aa(lp267
g16
ag17
ag19
ag20
aa(lp268
g16
ag17
ag22
ag23
aa(lp269
g16
ag17
ag25
ag26
aa(lp270
g16
ag17
ag28
ag29
aa(lp271
g16
ag17
ag31
ag32
aa(lp272
g16
ag17
ag34
ag35
aa(lp273
g16
ag17
ag37
ag38
aa(lp274
g16
ag17
ag40
ag41
aa(lp275
g16
ag17
ag43
ag44
aa(lp276
g16
ag17
ag46
ag47
aa(lp277
g16
ag17
ag49
ag50
aa(lp278
g16
ag17
ag52
ag53
aa(lp279
g16
ag17
ag55
ag56
aa(lp280
g16
ag17
ag58
ag59
aa(lp281
g16
ag17
ag61
ag62
aa(lp282
g16
ag17
ag64
ag65
aa(lp283
g16
ag17
ag67
ag68
aa(lp284
g16
ag17
ag70
ag71
aa(lp285
g16
ag17
ag73
ag74
aa(lp286
g16
ag17
ag76
ag77
aa(lp287
g16
ag17
ag79
ag80
aa(lp288
g16
ag17
ag82
ag83
aa(lp289
g16
ag17
ag85
ag86
aa(lp290
g16
ag17
ag88
ag89
aa(lp291
g16
ag17
ag91
ag92
aa(lp292
g16
ag17
ag94
ag95
aa(lp293
g16
ag17
ag97
ag98
aa(lp294
g16
ag17
ag100
ag101
aa(lp295
g16
ag17
ag103
ag104
aa(lp296
g16
ag17
ag106
ag107
aa(lp297
g16
ag17
ag109
ag110
aa(lp298
g16
ag17
ag112
ag113
aa(lp299
g19
ag20
ag2
ag3
aa(lp300
g19
ag20
ag4
ag5
aa(lp301
g19
ag20
ag7
ag8
aa(lp302
g19
ag20
ag10
ag11
aa(lp303
g19
ag20
ag13
ag14
aa(lp304
g19
ag20
ag16
ag17
aa(lp305
g19
ag20
ag22
ag23
aa(lp306
g19
ag20
ag25
ag26
aa(lp307
g19
ag20
ag28
ag29
aa(lp308
g19
ag20
ag31
ag32
aa(lp309
g19
ag20
ag34
ag35
aa(lp310
g19
ag20
ag37
ag38
aa(lp311
g19
ag20
ag40
ag41
aa(lp312
g19
ag20
ag43
ag44
aa(lp313
g19
ag20
ag46
ag47
aa(lp314
g19
ag20
ag49
ag50
aa(lp315
g19
ag20
ag52
ag53
aa(lp316
g19
ag20
ag55
ag56
aa(lp317
g19
ag20
ag58
ag59
aa(lp318
g19
ag20
ag61
ag62
aa(lp319
g19
ag20
ag64
ag65
aa(lp320
g19
ag20
ag67
ag68
aa(lp321
g19
ag20
ag70
ag71
aa(lp322
g19
ag20
ag73
ag74
aa(lp323
g19
ag20
ag76
ag77
aa(lp324
g19
ag20
ag79
ag80
aa(lp325
g19
ag20
ag82
ag83
aa(lp326
g19
ag20
ag85
ag86
aa(lp327
g19
ag20
ag88
ag89
aa(lp328
g19
ag20
ag91
ag92
aa(lp329
g19
ag20
ag94
ag95
aa(lp330
g19
ag20
ag97
ag98
aa(lp331
g19
ag20
ag100
ag101
aa(lp332
g19
ag20
ag103
ag104
aa(lp333
g19
ag20
ag106
ag107
aa(lp334
g19
ag20
ag109
ag110
aa(lp335
g19
ag20
ag112
ag113
aa(lp336
g22
ag23
ag2
ag3
aa(lp337
g22
ag23
ag4
ag5
aa(lp338
g22
ag23
ag7
ag8
aa(lp339
g22
ag23
ag10
ag11
aa(lp340
g22
ag23
ag13
ag14
aa(lp341
g22
ag23
ag16
ag17
aa(lp342
g22
ag23
ag19
ag20
aa(lp343
g22
ag23
ag25
ag26
aa(lp344
g22
ag23
ag28
ag29
aa(lp345
g22
ag23
ag31
ag32
aa(lp346
g22
ag23
ag34
ag35
aa(lp347
g22
ag23
ag37
ag38
aa(lp348
g22
ag23
ag40
ag41
aa(lp349
g22
ag23
ag43
ag44
aa(lp350
g22
ag23
ag46
ag47
aa(lp351
g22
ag23
ag49
ag50
aa(lp352
g22
ag23
ag52
ag53
aa(lp353
g22
ag23
ag55
ag56
aa(lp354
g22
ag23
ag58
ag59
aa(lp355
g22
ag23
ag61
ag62
aa(lp356
g22
ag23
ag64
ag65
aa(lp357
g22
ag23
ag67
ag68
aa(lp358
g22
ag23
ag70
ag71
aa(lp359
g22
ag23
ag73
ag74
aa(lp360
g22
ag23
ag76
ag77
aa(lp361
g22
ag23
ag79
ag80
aa(lp362
g22
ag23
ag82
ag83
aa(lp363
g22
ag23
ag85
ag86
aa(lp364
g22
ag23
ag88
ag89
aa(lp365
g22
ag23
ag91
ag92
aa(lp366
g22
ag23
ag94
ag95
aa(lp367
g22
ag23
ag97
ag98
aa(lp368
g22
ag23
ag100
ag101
aa(lp369
g22
ag23
ag103
ag104
aa(lp370
g22
ag23
ag106
ag107
aa(lp371
g22
ag23
ag109
ag110
aa(lp372
g22
ag23
ag112
ag113
aa(lp373
g25
ag26
ag2
ag3
aa(lp374
g25
ag26
ag4
ag5
aa(lp375
g25
ag26
ag7
ag8
aa(lp376
g25
ag26
ag10
ag11
aa(lp377
g25
ag26
ag13
ag14
aa(lp378
g25
ag26
ag16
ag17
aa(lp379
g25
ag26
ag19
ag20
aa(lp380
g25
ag26
ag22
ag23
aa(lp381
g25
ag26
ag28
ag29
aa(lp382
g25
ag26
ag31
ag32
aa(lp383
g25
ag26
ag34
ag35
aa(lp384
g25
ag26
ag37
ag38
aa(lp385
g25
ag26
ag40
ag41
aa(lp386
g25
ag26
ag43
ag44
aa(lp387
g25
ag26
ag46
ag47
aa(lp388
g25
ag26
ag49
ag50
aa(lp389
g25
ag26
ag52
ag53
aa(lp390
g25
ag26
ag55
ag56
aa(lp391
g25
ag26
ag58
ag59
aa(lp392
g25
ag26
ag61
ag62
aa(lp393
g25
ag26
ag64
ag65
aa(lp394
g25
ag26
ag67
ag68
aa(lp395
g25
ag26
ag70
ag71
aa(lp396
g25
ag26
ag73
ag74
aa(lp397
g25
ag26
ag76
ag77
aa(lp398
g25
ag26
ag79
ag80
aa(lp399
g25
ag26
ag82
ag83
aa(lp400
g25
ag26
ag85
ag86
aa(lp401
g25
ag26
ag88
ag89
aa(lp402
g25
ag26
ag91
ag92
aa(lp403
g25
ag26
ag94
ag95
aa(lp404
g25
ag26
ag97
ag98
aa(lp405
g25
ag26
ag100
ag101
aa(lp406
g25
ag26
ag103
ag104
aa(lp407
g25
ag26
ag106
ag107
aa(lp408
g25
ag26
ag109
ag110
aa(lp409
g25
ag26
ag112
ag113
aa(lp410
g28
ag29
ag2
ag3
aa(lp411
g28
ag29
ag4
ag5
aa(lp412
g28
ag29
ag7
ag8
aa(lp413
g28
ag29
ag10
ag11
aa(lp414
g28
ag29
ag13
ag14
aa(lp415
g28
ag29
ag16
ag17
aa(lp416
g28
ag29
ag19
ag20
aa(lp417
g28
ag29
ag22
ag23
aa(lp418
g28
ag29
ag25
ag26
aa(lp419
g28
ag29
ag31
ag32
aa(lp420
g28
ag29
ag34
ag35
aa(lp421
g28
ag29
ag37
ag38
aa(lp422
g28
ag29
ag40
ag41
aa(lp423
g28
ag29
ag43
ag44
aa(lp424
g28
ag29
ag46
ag47
aa(lp425
g28
ag29
ag49
ag50
aa(lp426
g28
ag29
ag52
ag53
aa(lp427
g28
ag29
ag55
ag56
aa(lp428
g28
ag29
ag58
ag59
aa(lp429
g28
ag29
ag61
ag62
aa(lp430
g28
ag29
ag64
ag65
aa(lp431
g28
ag29
ag67
ag68
aa(lp432
g28
ag29
ag70
ag71
aa(lp433
g28
ag29
ag73
ag74
aa(lp434
g28
ag29
ag76
ag77
aa(lp435
g28
ag29
ag79
ag80
aa(lp436
g28
ag29
ag82
ag83
aa(lp437
g28
ag29
ag85
ag86
aa(lp438
g28
ag29
ag88
ag89
aa(lp439
g28
ag29
ag91
ag92
aa(lp440
g28
ag29
ag94
ag95
aa(lp441
g28
ag29
ag97
ag98
aa(lp442
g28
ag29
ag100
ag101
aa(lp443
g28
ag29
ag103
ag104
aa(lp444
g28
ag29
ag106
ag107
aa(lp445
g28
ag29
ag109
ag110
aa(lp446
g28
ag29
ag112
ag113
aa(lp447
g31
ag32
ag2
ag3
aa(lp448
g31
ag32
ag4
ag5
aa(lp449
g31
ag32
ag7
ag8
aa(lp450
g31
ag32
ag10
ag11
aa(lp451
g31
ag32
ag13
ag14
aa(lp452
g31
ag32
ag16
ag17
aa(lp453
g31
ag32
ag19
ag20
aa(lp454
g31
ag32
ag22
ag23
aa(lp455
g31
ag32
ag25
ag26
aa(lp456
g31
ag32
ag28
ag29
aa(lp457
g31
ag32
ag34
ag35
aa(lp458
g31
ag32
ag37
ag38
aa(lp459
g31
ag32
ag40
ag41
aa(lp460
g31
ag32
ag43
ag44
aa(lp461
g31
ag32
ag46
ag47
aa(lp462
g31
ag32
ag49
ag50
aa(lp463
g31
ag32
ag52
ag53
aa(lp464
g31
ag32
ag55
ag56
aa(lp465
g31
ag32
ag58
ag59
aa(lp466
g31
ag32
ag61
ag62
aa(lp467
g31
ag32
ag64
ag65
aa(lp468
g31
ag32
ag67
ag68
aa(lp469
g31
ag32
ag70
ag71
aa(lp470
g31
ag32
ag73
ag74
aa(lp471
g31
ag32
ag76
ag77
aa(lp472
g31
ag32
ag79
ag80
aa(lp473
g31
ag32
ag82
ag83
aa(lp474
g31
ag32
ag85
ag86
aa(lp475
g31
ag32
ag88
ag89
aa(lp476
g31
ag32
ag91
ag92
aa(lp477
g31
ag32
ag94
ag95
aa(lp478
g31
ag32
ag97
ag98
aa(lp479
g31
ag32
ag100
ag101
aa(lp480
g31
ag32
ag103
ag104
aa(lp481
g31
ag32
ag106
ag107
aa(lp482
g31
ag32
ag109
ag110
aa(lp483
g31
ag32
ag112
ag113
aa(lp484
g34
ag35
ag2
ag3
aa(lp485
g34
ag35
ag4
ag5
aa(lp486
g34
ag35
ag7
ag8
aa(lp487
g34
ag35
ag10
ag11
aa(lp488
g34
ag35
ag13
ag14
aa(lp489
g34
ag35
ag16
ag17
aa(lp490
g34
ag35
ag19
ag20
aa(lp491
g34
ag35
ag22
ag23
aa(lp492
g34
ag35
ag25
ag26
aa(lp493
g34
ag35
ag28
ag29
aa(lp494
g34
ag35
ag31
ag32
aa(lp495
g34
ag35
ag37
ag38
aa(lp496
g34
ag35
ag40
ag41
aa(lp497
g34
ag35
ag43
ag44
aa(lp498
g34
ag35
ag46
ag47
aa(lp499
g34
ag35
ag49
ag50
aa(lp500
g34
ag35
ag52
ag53
aa(lp501
g34
ag35
ag55
ag56
aa(lp502
g34
ag35
ag58
ag59
aa(lp503
g34
ag35
ag61
ag62
aa(lp504
g34
ag35
ag64
ag65
aa(lp505
g34
ag35
ag67
ag68
aa(lp506
g34
ag35
ag70
ag71
aa(lp507
g34
ag35
ag73
ag74
aa(lp508
g34
ag35
ag76
ag77
aa(lp509
g34
ag35
ag79
ag80
aa(lp510
g34
ag35
ag82
ag83
aa(lp511
g34
ag35
ag85
ag86
aa(lp512
g34
ag35
ag88
ag89
aa(lp513
g34
ag35
ag91
ag92
aa(lp514
g34
ag35
ag94
ag95
aa(lp515
g34
ag35
ag97
ag98
aa(lp516
g34
ag35
ag100
ag101
aa(lp517
g34
ag35
ag103
ag104
aa(lp518
g34
ag35
ag106
ag107
aa(lp519
g34
ag35
ag109
ag110
aa(lp520
g34
ag35
ag112
ag113
aa(lp521
g37
ag38
ag2
ag3
aa(lp522
g37
ag38
ag4
ag5
aa(lp523
g37
ag38
ag7
ag8
aa(lp524
g37
ag38
ag10
ag11
aa(lp525
g37
ag38
ag13
ag14
aa(lp526
g37
ag38
ag16
ag17
aa(lp527
g37
ag38
ag19
ag20
aa(lp528
g37
ag38
ag22
ag23
aa(lp529
g37
ag38
ag25
ag26
aa(lp530
g37
ag38
ag28
ag29
aa(lp531
g37
ag38
ag31
ag32
aa(lp532
g37
ag38
ag34
ag35
aa(lp533
g37
ag38
ag40
ag41
aa(lp534
g37
ag38
ag43
ag44
aa(lp535
g37
ag38
ag46
ag47
aa(lp536
g37
ag38
ag49
ag50
aa(lp537
g37
ag38
ag52
ag53
aa(lp538
g37
ag38
ag55
ag56
aa(lp539
g37
ag38
ag58
ag59
aa(lp540
g37
ag38
ag61
ag62
aa(lp541
g37
ag38
ag64
ag65
aa(lp542
g37
ag38
ag67
ag68
aa(lp543
g37
ag38
ag70
ag71
aa(lp544
g37
ag38
ag73
ag74
aa(lp545
g37
ag38
ag76
ag77
aa(lp546
g37
ag38
ag79
ag80
aa(lp547
g37
ag38
ag82
ag83
aa(lp548
g37
ag38
ag85
ag86
aa(lp549
g37
ag38
ag88
ag89
aa(lp550
g37
ag38
ag91
ag92
aa(lp551
g37
ag38
ag94
ag95
aa(lp552
g37
ag38
ag97
ag98
aa(lp553
g37
ag38
ag100
ag101
aa(lp554
g37
ag38
ag103
ag104
aa(lp555
g37
ag38
ag106
ag107
aa(lp556
g37
ag38
ag109
ag110
aa(lp557
g37
ag38
ag112
ag113
aa(lp558
g40
ag41
ag2
ag3
aa(lp559
g40
ag41
ag4
ag5
aa(lp560
g40
ag41
ag7
ag8
aa(lp561
g40
ag41
ag10
ag11
aa(lp562
g40
ag41
ag13
ag14
aa(lp563
g40
ag41
ag16
ag17
aa(lp564
g40
ag41
ag19
ag20
aa(lp565
g40
ag41
ag22
ag23
aa(lp566
g40
ag41
ag25
ag26
aa(lp567
g40
ag41
ag28
ag29
aa(lp568
g40
ag41
ag31
ag32
aa(lp569
g40
ag41
ag34
ag35
aa(lp570
g40
ag41
ag37
ag38
aa(lp571
g40
ag41
ag43
ag44
aa(lp572
g40
ag41
ag46
ag47
aa(lp573
g40
ag41
ag49
ag50
aa(lp574
g40
ag41
ag52
ag53
aa(lp575
g40
ag41
ag55
ag56
aa(lp576
g40
ag41
ag58
ag59
aa(lp577
g40
ag41
ag61
ag62
aa(lp578
g40
ag41
ag64
ag65
aa(lp579
g40
ag41
ag67
ag68
aa(lp580
g40
ag41
ag70
ag71
aa(lp581
g40
ag41
ag73
ag74
aa(lp582
g40
ag41
ag76
ag77
aa(lp583
g40
ag41
ag79
ag80
aa(lp584
g40
ag41
ag82
ag83
aa(lp585
g40
ag41
ag85
ag86
aa(lp586
g40
ag41
ag88
ag89
aa(lp587
g40
ag41
ag91
ag92
aa(lp588
g40
ag41
ag94
ag95
aa(lp589
g40
ag41
ag97
ag98
aa(lp590
g40
ag41
ag100
ag101
aa(lp591
g40
ag41
ag103
ag104
aa(lp592
g40
ag41
ag106
ag107
aa(lp593
g40
ag41
ag109
ag110
aa(lp594
g40
ag41
ag112
ag113
aa(lp595
g43
ag44
ag2
ag3
aa(lp596
g43
ag44
ag4
ag5
aa(lp597
g43
ag44
ag7
ag8
aa(lp598
g43
ag44
ag10
ag11
aa(lp599
g43
ag44
ag13
ag14
aa(lp600
g43
ag44
ag16
ag17
aa(lp601
g43
ag44
ag19
ag20
aa(lp602
g43
ag44
ag22
ag23
aa(lp603
g43
ag44
ag25
ag26
aa(lp604
g43
ag44
ag28
ag29
aa(lp605
g43
ag44
ag31
ag32
aa(lp606
g43
ag44
ag34
ag35
aa(lp607
g43
ag44
ag37
ag38
aa(lp608
g43
ag44
ag40
ag41
aa(lp609
g43
ag44
ag46
ag47
aa(lp610
g43
ag44
ag49
ag50
aa(lp611
g43
ag44
ag52
ag53
aa(lp612
g43
ag44
ag55
ag56
aa(lp613
g43
ag44
ag58
ag59
aa(lp614
g43
ag44
ag61
ag62
aa(lp615
g43
ag44
ag64
ag65
aa(lp616
g43
ag44
ag67
ag68
aa(lp617
g43
ag44
ag70
ag71
aa(lp618
g43
ag44
ag73
ag74
aa(lp619
g43
ag44
ag76
ag77
aa(lp620
g43
ag44
ag79
ag80
aa(lp621
g43
ag44
ag82
ag83
aa(lp622
g43
ag44
ag85
ag86
aa(lp623
g43
ag44
ag88
ag89
aa(lp624
g43
ag44
ag91
ag92
aa(lp625
g43
ag44
ag94
ag95
aa(lp626
g43
ag44
ag97
ag98
aa(lp627
g43
ag44
ag100
ag101
aa(lp628
g43
ag44
ag103
ag104
aa(lp629
g43
ag44
ag106
ag107
aa(lp630
g43
ag44
ag109
ag110
aa(lp631
g43
ag44
ag112
ag113
aa(lp632
g46
ag47
ag2
ag3
aa(lp633
g46
ag47
ag4
ag5
aa(lp634
g46
ag47
ag7
ag8
aa(lp635
g46
ag47
ag10
ag11
aa(lp636
g46
ag47
ag13
ag14
aa(lp637
g46
ag47
ag16
ag17
aa(lp638
g46
ag47
ag19
ag20
aa(lp639
g46
ag47
ag22
ag23
aa(lp640
g46
ag47
ag25
ag26
aa(lp641
g46
ag47
ag28
ag29
aa(lp642
g46
ag47
ag31
ag32
aa(lp643
g46
ag47
ag34
ag35
aa(lp644
g46
ag47
ag37
ag38
aa(lp645
g46
ag47
ag40
ag41
aa(lp646
g46
ag47
ag43
ag44
aa(lp647
g46
ag47
ag49
ag50
aa(lp648
g46
ag47
ag52
ag53
aa(lp649
g46
ag47
ag55
ag56
aa(lp650
g46
ag47
ag58
ag59
aa(lp651
g46
ag47
ag61
ag62
aa(lp652
g46
ag47
ag64
ag65
aa(lp653
g46
ag47
ag67
ag68
aa(lp654
g46
ag47
ag70
ag71
aa(lp655
g46
ag47
ag73
ag74
aa(lp656
g46
ag47
ag76
ag77
aa(lp657
g46
ag47
ag79
ag80
aa(lp658
g46
ag47
ag82
ag83
aa(lp659
g46
ag47
ag85
ag86
aa(lp660
g46
ag47
ag88
ag89
aa(lp661
g46
ag47
ag91
ag92
aa(lp662
g46
ag47
ag94
ag95
aa(lp663
g46
ag47
ag97
ag98
aa(lp664
g46
ag47
ag100
ag101
aa(lp665
g46
ag47
ag103
ag104
aa(lp666
g46
ag47
ag106
ag107
aa(lp667
g46
ag47
ag109
ag110
aa(lp668
g46
ag47
ag112
ag113
aa(lp669
g49
ag50
ag2
ag3
aa(lp670
g49
ag50
ag4
ag5
aa(lp671
g49
ag50
ag7
ag8
aa(lp672
g49
ag50
ag10
ag11
aa(lp673
g49
ag50
ag13
ag14
aa(lp674
g49
ag50
ag16
ag17
aa(lp675
g49
ag50
ag19
ag20
aa(lp676
g49
ag50
ag22
ag23
aa(lp677
g49
ag50
ag25
ag26
aa(lp678
g49
ag50
ag28
ag29
aa(lp679
g49
ag50
ag31
ag32
aa(lp680
g49
ag50
ag34
ag35
aa(lp681
g49
ag50
ag37
ag38
aa(lp682
g49
ag50
ag40
ag41
aa(lp683
g49
ag50
ag43
ag44
aa(lp684
g49
ag50
ag46
ag47
aa(lp685
g49
ag50
ag52
ag53
aa(lp686
g49
ag50
ag55
ag56
aa(lp687
g49
ag50
ag58
ag59
aa(lp688
g49
ag50
ag61
ag62
aa(lp689
g49
ag50
ag64
ag65
aa(lp690
g49
ag50
ag67
ag68
aa(lp691
g49
ag50
ag70
ag71
aa(lp692
g49
ag50
ag73
ag74
aa(lp693
g49
ag50
ag76
ag77
aa(lp694
g49
ag50
ag79
ag80
aa(lp695
g49
ag50
ag82
ag83
aa(lp696
g49
ag50
ag85
ag86
aa(lp697
g49
ag50
ag88
ag89
aa(lp698
g49
ag50
ag91
ag92
aa(lp699
g49
ag50
ag94
ag95
aa(lp700
g49
ag50
ag97
ag98
aa(lp701
g49
ag50
ag100
ag101
aa(lp702
g49
ag50
ag103
ag104
aa(lp703
g49
ag50
ag106
ag107
aa(lp704
g49
ag50
ag109
ag110
aa(lp705
g49
ag50
ag112
ag113
aa(lp706
g52
ag53
ag2
ag3
aa(lp707
g52
ag53
ag4
ag5
aa(lp708
g52
ag53
ag7
ag8
aa(lp709
g52
ag53
ag10
ag11
aa(lp710
g52
ag53
ag13
ag14
aa(lp711
g52
ag53
ag16
ag17
aa(lp712
g52
ag53
ag19
ag20
aa(lp713
g52
ag53
ag22
ag23
aa(lp714
g52
ag53
ag25
ag26
aa(lp715
g52
ag53
ag28
ag29
aa(lp716
g52
ag53
ag31
ag32
aa(lp717
g52
ag53
ag34
ag35
aa(lp718
g52
ag53
ag37
ag38
aa(lp719
g52
ag53
ag40
ag41
aa(lp720
g52
ag53
ag43
ag44
aa(lp721
g52
ag53
ag46
ag47
aa(lp722
g52
ag53
ag49
ag50
aa(lp723
g52
ag53
ag55
ag56
aa(lp724
g52
ag53
ag58
ag59
aa(lp725
g52
ag53
ag61
ag62
aa(lp726
g52
ag53
ag64
ag65
aa(lp727
g52
ag53
ag67
ag68
aa(lp728
g52
ag53
ag70
ag71
aa(lp729
g52
ag53
ag73
ag74
aa(lp730
g52
ag53
ag76
ag77
aa(lp731
g52
ag53
ag79
ag80
aa(lp732
g52
ag53
ag82
ag83
aa(lp733
g52
ag53
ag85
ag86
aa(lp734
g52
ag53
ag88
ag89
aa(lp735
g52
ag53
ag91
ag92
aa(lp736
g52
ag53
ag94
ag95
aa(lp737
g52
ag53
ag97
ag98
aa(lp738
g52
ag53
ag100
ag101
aa(lp739
g52
ag53
ag103
ag104
aa(lp740
g52
ag53
ag106
ag107
aa(lp741
g52
ag53
ag109
ag110
aa(lp742
g52
ag53
ag112
ag113
aa(lp743
g55
ag56
ag2
ag3
aa(lp744
g55
ag56
ag4
ag5
aa(lp745
g55
ag56
ag7
ag8
aa(lp746
g55
ag56
ag10
ag11
aa(lp747
g55
ag56
ag13
ag14
aa(lp748
g55
ag56
ag16
ag17
aa(lp749
g55
ag56
ag19
ag20
aa(lp750
g55
ag56
ag22
ag23
aa(lp751
g55
ag56
ag25
ag26
aa(lp752
g55
ag56
ag28
ag29
aa(lp753
g55
ag56
ag31
ag32
aa(lp754
g55
ag56
ag34
ag35
aa(lp755
g55
ag56
ag37
ag38
aa(lp756
g55
ag56
ag40
ag41
aa(lp757
g55
ag56
ag43
ag44
aa(lp758
g55
ag56
ag46
ag47
aa(lp759
g55
ag56
ag49
ag50
aa(lp760
g55
ag56
ag52
ag53
aa(lp761
g55
ag56
ag58
ag59
aa(lp762
g55
ag56
ag61
ag62
aa(lp763
g55
ag56
ag64
ag65
aa(lp764
g55
ag56
ag67
ag68
aa(lp765
g55
ag56
ag70
ag71
aa(lp766
g55
ag56
ag73
ag74
aa(lp767
g55
ag56
ag76
ag77
aa(lp768
g55
ag56
ag79
ag80
aa(lp769
g55
ag56
ag82
ag83
aa(lp770
g55
ag56
ag85
ag86
aa(lp771
g55
ag56
ag88
ag89
aa(lp772
g55
ag56
ag91
ag92
aa(lp773
g55
ag56
ag94
ag95
aa(lp774
g55
ag56
ag97
ag98
aa(lp775
g55
ag56
ag100
ag101
aa(lp776
g55
ag56
ag103
ag104
aa(lp777
g55
ag56
ag106
ag107
aa(lp778
g55
ag56
ag109
ag110
aa(lp779
g55
ag56
ag112
ag113
aa(lp780
g58
ag59
ag2
ag3
aa(lp781
g58
ag59
ag4
ag5
aa(lp782
g58
ag59
ag7
ag8
aa(lp783
g58
ag59
ag10
ag11
aa(lp784
g58
ag59
ag13
ag14
aa(lp785
g58
ag59
ag16
ag17
aa(lp786
g58
ag59
ag19
ag20
aa(lp787
g58
ag59
ag22
ag23
aa(lp788
g58
ag59
ag25
ag26
aa(lp789
g58
ag59
ag28
ag29
aa(lp790
g58
ag59
ag31
ag32
aa(lp791
g58
ag59
ag34
ag35
aa(lp792
g58
ag59
ag37
ag38
aa(lp793
g58
ag59
ag40
ag41
aa(lp794
g58
ag59
ag43
ag44
aa(lp795
g58
ag59
ag46
ag47
aa(lp796
g58
ag59
ag49
ag50
aa(lp797
g58
ag59
ag52
ag53
aa(lp798
g58
ag59
ag55
ag56
aa(lp799
g58
ag59
ag61
ag62
aa(lp800
g58
ag59
ag64
ag65
aa(lp801
g58
ag59
ag67
ag68
aa(lp802
g58
ag59
ag70
ag71
aa(lp803
g58
ag59
ag73
ag74
aa(lp804
g58
ag59
ag76
ag77
aa(lp805
g58
ag59
ag79
ag80
aa(lp806
g58
ag59
ag82
ag83
aa(lp807
g58
ag59
ag85
ag86
aa(lp808
g58
ag59
ag88
ag89
aa(lp809
g58
ag59
ag91
ag92
aa(lp810
g58
ag59
ag94
ag95
aa(lp811
g58
ag59
ag97
ag98
aa(lp812
g58
ag59
ag100
ag101
aa(lp813
g58
ag59
ag103
ag104
aa(lp814
g58
ag59
ag106
ag107
aa(lp815
g58
ag59
ag109
ag110
aa(lp816
g58
ag59
ag112
ag113
aa(lp817
g61
ag62
ag2
ag3
aa(lp818
g61
ag62
ag4
ag5
aa(lp819
g61
ag62
ag7
ag8
aa(lp820
g61
ag62
ag10
ag11
aa(lp821
g61
ag62
ag13
ag14
aa(lp822
g61
ag62
ag16
ag17
aa(lp823
g61
ag62
ag19
ag20
aa(lp824
g61
ag62
ag22
ag23
aa(lp825
g61
ag62
ag25
ag26
aa(lp826
g61
ag62
ag28
ag29
aa(lp827
g61
ag62
ag31
ag32
aa(lp828
g61
ag62
ag34
ag35
aa(lp829
g61
ag62
ag37
ag38
aa(lp830
g61
ag62
ag40
ag41
aa(lp831
g61
ag62
ag43
ag44
aa(lp832
g61
ag62
ag46
ag47
aa(lp833
g61
ag62
ag49
ag50
aa(lp834
g61
ag62
ag52
ag53
aa(lp835
g61
ag62
ag55
ag56
aa(lp836
g61
ag62
ag58
ag59
aa(lp837
g61
ag62
ag64
ag65
aa(lp838
g61
ag62
ag67
ag68
aa(lp839
g61
ag62
ag70
ag71
aa(lp840
g61
ag62
ag73
ag74
aa(lp841
g61
ag62
ag76
ag77
aa(lp842
g61
ag62
ag79
ag80
aa(lp843
g61
ag62
ag82
ag83
aa(lp844
g61
ag62
ag85
ag86
aa(lp845
g61
ag62
ag88
ag89
aa(lp846
g61
ag62
ag91
ag92
aa(lp847
g61
ag62
ag94
ag95
aa(lp848
g61
ag62
ag97
ag98
aa(lp849
g61
ag62
ag100
ag101
aa(lp850
g61
ag62
ag103
ag104
aa(lp851
g61
ag62
ag106
ag107
aa(lp852
g61
ag62
ag109
ag110
aa(lp853
g61
ag62
ag112
ag113
aa(lp854
g64
ag65
ag2
ag3
aa(lp855
g64
ag65
ag4
ag5
aa(lp856
g64
ag65
ag7
ag8
aa(lp857
g64
ag65
ag10
ag11
aa(lp858
g64
ag65
ag13
ag14
aa(lp859
g64
ag65
ag16
ag17
aa(lp860
g64
ag65
ag19
ag20
aa(lp861
g64
ag65
ag22
ag23
aa(lp862
g64
ag65
ag25
ag26
aa(lp863
g64
ag65
ag28
ag29
aa(lp864
g64
ag65
ag31
ag32
aa(lp865
g64
ag65
ag34
ag35
aa(lp866
g64
ag65
ag37
ag38
aa(lp867
g64
ag65
ag40
ag41
aa(lp868
g64
ag65
ag43
ag44
aa(lp869
g64
ag65
ag46
ag47
aa(lp870
g64
ag65
ag49
ag50
aa(lp871
g64
ag65
ag52
ag53
aa(lp872
g64
ag65
ag55
ag56
aa(lp873
g64
ag65
ag58
ag59
aa(lp874
g64
ag65
ag61
ag62
aa(lp875
g64
ag65
ag67
ag68
aa(lp876
g64
ag65
ag70
ag71
aa(lp877
g64
ag65
ag73
ag74
aa(lp878
g64
ag65
ag76
ag77
aa(lp879
g64
ag65
ag79
ag80
aa(lp880
g64
ag65
ag82
ag83
aa(lp881
g64
ag65
ag85
ag86
aa(lp882
g64
ag65
ag88
ag89
aa(lp883
g64
ag65
ag91
ag92
aa(lp884
g64
ag65
ag94
ag95
aa(lp885
g64
ag65
ag97
ag98
aa(lp886
g64
ag65
ag100
ag101
aa(lp887
g64
ag65
ag103
ag104
aa(lp888
g64
ag65
ag106
ag107
aa(lp889
g64
ag65
ag109
ag110
aa(lp890
g64
ag65
ag112
ag113
aa(lp891
g67
ag68
ag2
ag3
aa(lp892
g67
ag68
ag4
ag5
aa(lp893
g67
ag68
ag7
ag8
aa(lp894
g67
ag68
ag10
ag11
aa(lp895
g67
ag68
ag13
ag14
aa(lp896
g67
ag68
ag16
ag17
aa(lp897
g67
ag68
ag19
ag20
aa(lp898
g67
ag68
ag22
ag23
aa(lp899
g67
ag68
ag25
ag26
aa(lp900
g67
ag68
ag28
ag29
aa(lp901
g67
ag68
ag31
ag32
aa(lp902
g67
ag68
ag34
ag35
aa(lp903
g67
ag68
ag37
ag38
aa(lp904
g67
ag68
ag40
ag41
aa(lp905
g67
ag68
ag43
ag44
aa(lp906
g67
ag68
ag46
ag47
aa(lp907
g67
ag68
ag49
ag50
aa(lp908
g67
ag68
ag52
ag53
aa(lp909
g67
ag68
ag55
ag56
aa(lp910
g67
ag68
ag58
ag59
aa(lp911
g67
ag68
ag61
ag62
aa(lp912
g67
ag68
ag64
ag65
aa(lp913
g67
ag68
ag70
ag71
aa(lp914
g67
ag68
ag73
ag74
aa(lp915
g67
ag68
ag76
ag77
aa(lp916
g67
ag68
ag79
ag80
aa(lp917
g67
ag68
ag82
ag83
aa(lp918
g67
ag68
ag85
ag86
aa(lp919
g67
ag68
ag88
ag89
aa(lp920
g67
ag68
ag91
ag92
aa(lp921
g67
ag68
ag94
ag95
aa(lp922
g67
ag68
ag97
ag98
aa(lp923
g67
ag68
ag100
ag101
aa(lp924
g67
ag68
ag103
ag104
aa(lp925
g67
ag68
ag106
ag107
aa(lp926
g67
ag68
ag109
ag110
aa(lp927
g67
ag68
ag112
ag113
aa(lp928
g70
ag71
ag2
ag3
aa(lp929
g70
ag71
ag4
ag5
aa(lp930
g70
ag71
ag7
ag8
aa(lp931
g70
ag71
ag10
ag11
aa(lp932
g70
ag71
ag13
ag14
aa(lp933
g70
ag71
ag16
ag17
aa(lp934
g70
ag71
ag19
ag20
aa(lp935
g70
ag71
ag22
ag23
aa(lp936
g70
ag71
ag25
ag26
aa(lp937
g70
ag71
ag28
ag29
aa(lp938
g70
ag71
ag31
ag32
aa(lp939
g70
ag71
ag34
ag35
aa(lp940
g70
ag71
ag37
ag38
aa(lp941
g70
ag71
ag40
ag41
aa(lp942
g70
ag71
ag43
ag44
aa(lp943
g70
ag71
ag46
ag47
aa(lp944
g70
ag71
ag49
ag50
aa(lp945
g70
ag71
ag52
ag53
aa(lp946
g70
ag71
ag55
ag56
aa(lp947
g70
ag71
ag58
ag59
aa(lp948
g70
ag71
ag61
ag62
aa(lp949
g70
ag71
ag64
ag65
aa(lp950
g70
ag71
ag67
ag68
aa(lp951
g70
ag71
ag73
ag74
aa(lp952
g70
ag71
ag76
ag77
aa(lp953
g70
ag71
ag79
ag80
aa(lp954
g70
ag71
ag82
ag83
aa(lp955
g70
ag71
ag85
ag86
aa(lp956
g70
ag71
ag88
ag89
aa(lp957
g70
ag71
ag91
ag92
aa(lp958
g70
ag71
ag94
ag95
aa(lp959
g70
ag71
ag97
ag98
aa(lp960
g70
ag71
ag100
ag101
aa(lp961
g70
ag71
ag103
ag104
aa(lp962
g70
ag71
ag106
ag107
aa(lp963
g70
ag71
ag109
ag110
aa(lp964
g70
ag71
ag112
ag113
aa(lp965
g73
ag74
ag2
ag3
aa(lp966
g73
ag74
ag4
ag5
aa(lp967
g73
ag74
ag7
ag8
aa(lp968
g73
ag74
ag10
ag11
aa(lp969
g73
ag74
ag13
ag14
aa(lp970
g73
ag74
ag16
ag17
aa(lp971
g73
ag74
ag19
ag20
aa(lp972
g73
ag74
ag22
ag23
aa(lp973
g73
ag74
ag25
ag26
aa(lp974
g73
ag74
ag28
ag29
aa(lp975
g73
ag74
ag31
ag32
aa(lp976
g73
ag74
ag34
ag35
aa(lp977
g73
ag74
ag37
ag38
aa(lp978
g73
ag74
ag40
ag41
aa(lp979
g73
ag74
ag43
ag44
aa(lp980
g73
ag74
ag46
ag47
aa(lp981
g73
ag74
ag49
ag50
aa(lp982
g73
ag74
ag52
ag53
aa(lp983
g73
ag74
ag55
ag56
aa(lp984
g73
ag74
ag58
ag59
aa(lp985
g73
ag74
ag61
ag62
aa(lp986
g73
ag74
ag64
ag65
aa(lp987
g73
ag74
ag67
ag68
aa(lp988
g73
ag74
ag70
ag71
aa(lp989
g73
ag74
ag76
ag77
aa(lp990
g73
ag74
ag79
ag80
aa(lp991
g73
ag74
ag82
ag83
aa(lp992
g73
ag74
ag85
ag86
aa(lp993
g73
ag74
ag88
ag89
aa(lp994
g73
ag74
ag91
ag92
aa(lp995
g73
ag74
ag94
ag95
aa(lp996
g73
ag74
ag97
ag98
aa(lp997
g73
ag74
ag100
ag101
aa(lp998
g73
ag74
ag103
ag104
aa(lp999
g73
ag74
ag106
ag107
aa(lp1000
g73
ag74
ag109
ag110
aa(lp1001
g73
ag74
ag112
ag113
aa(lp1002
g76
ag77
ag2
ag3
aa(lp1003
g76
ag77
ag4
ag5
aa(lp1004
g76
ag77
ag7
ag8
aa(lp1005
g76
ag77
ag10
ag11
aa(lp1006
g76
ag77
ag13
ag14
aa(lp1007
g76
ag77
ag16
ag17
aa(lp1008
g76
ag77
ag19
ag20
aa(lp1009
g76
ag77
ag22
ag23
aa(lp1010
g76
ag77
ag25
ag26
aa(lp1011
g76
ag77
ag28
ag29
aa(lp1012
g76
ag77
ag31
ag32
aa(lp1013
g76
ag77
ag34
ag35
aa(lp1014
g76
ag77
ag37
ag38
aa(lp1015
g76
ag77
ag40
ag41
aa(lp1016
g76
ag77
ag43
ag44
aa(lp1017
g76
ag77
ag46
ag47
aa(lp1018
g76
ag77
ag49
ag50
aa(lp1019
g76
ag77
ag52
ag53
aa(lp1020
g76
ag77
ag55
ag56
aa(lp1021
g76
ag77
ag58
ag59
aa(lp1022
g76
ag77
ag61
ag62
aa(lp1023
g76
ag77
ag64
ag65
aa(lp1024
g76
ag77
ag67
ag68
aa(lp1025
g76
ag77
ag70
ag71
aa(lp1026
g76
ag77
ag73
ag74
aa(lp1027
g76
ag77
ag79
ag80
aa(lp1028
g76
ag77
ag82
ag83
aa(lp1029
g76
ag77
ag85
ag86
aa(lp1030
g76
ag77
ag88
ag89
aa(lp1031
g76
ag77
ag91
ag92
aa(lp1032
g76
ag77
ag94
ag95
aa(lp1033
g76
ag77
ag97
ag98
aa(lp1034
g76
ag77
ag100
ag101
aa(lp1035
g76
ag77
ag103
ag104
aa(lp1036
g76
ag77
ag106
ag107
aa(lp1037
g76
ag77
ag109
ag110
aa(lp1038
g76
ag77
ag112
ag113
aa(lp1039
g79
ag80
ag2
ag3
aa(lp1040
g79
ag80
ag4
ag5
aa(lp1041
g79
ag80
ag7
ag8
aa(lp1042
g79
ag80
ag10
ag11
aa(lp1043
g79
ag80
ag13
ag14
aa(lp1044
g79
ag80
ag16
ag17
aa(lp1045
g79
ag80
ag19
ag20
aa(lp1046
g79
ag80
ag22
ag23
aa(lp1047
g79
ag80
ag25
ag26
aa(lp1048
g79
ag80
ag28
ag29
aa(lp1049
g79
ag80
ag31
ag32
aa(lp1050
g79
ag80
ag34
ag35
aa(lp1051
g79
ag80
ag37
ag38
aa(lp1052
g79
ag80
ag40
ag41
aa(lp1053
g79
ag80
ag43
ag44
aa(lp1054
g79
ag80
ag46
ag47
aa(lp1055
g79
ag80
ag49
ag50
aa(lp1056
g79
ag80
ag52
ag53
aa(lp1057
g79
ag80
ag55
ag56
aa(lp1058
g79
ag80
ag58
ag59
aa(lp1059
g79
ag80
ag61
ag62
aa(lp1060
g79
ag80
ag64
ag65
aa(lp1061
g79
ag80
ag67
ag68
aa(lp1062
g79
ag80
ag70
ag71
aa(lp1063
g79
ag80
ag73
ag74
aa(lp1064
g79
ag80
ag76
ag77
aa(lp1065
g79
ag80
ag82
ag83
aa(lp1066
g79
ag80
ag85
ag86
aa(lp1067
g79
ag80
ag88
ag89
aa(lp1068
g79
ag80
ag91
ag92
aa(lp1069
g79
ag80
ag94
ag95
aa(lp1070
g79
ag80
ag97
ag98
aa(lp1071
g79
ag80
ag100
ag101
aa(lp1072
g79
ag80
ag103
ag104
aa(lp1073
g79
ag80
ag106
ag107
aa(lp1074
g79
ag80
ag109
ag110
aa(lp1075
g79
ag80
ag112
ag113
aa(lp1076
g82
ag83
ag2
ag3
aa(lp1077
g82
ag83
ag4
ag5
aa(lp1078
g82
ag83
ag7
ag8
aa(lp1079
g82
ag83
ag10
ag11
aa(lp1080
g82
ag83
ag13
ag14
aa(lp1081
g82
ag83
ag16
ag17
aa(lp1082
g82
ag83
ag19
ag20
aa(lp1083
g82
ag83
ag22
ag23
aa(lp1084
g82
ag83
ag25
ag26
aa(lp1085
g82
ag83
ag28
ag29
aa(lp1086
g82
ag83
ag31
ag32
aa(lp1087
g82
ag83
ag34
ag35
aa(lp1088
g82
ag83
ag37
ag38
aa(lp1089
g82
ag83
ag40
ag41
aa(lp1090
g82
ag83
ag43
ag44
aa(lp1091
g82
ag83
ag46
ag47
aa(lp1092
g82
ag83
ag49
ag50
aa(lp1093
g82
ag83
ag52
ag53
aa(lp1094
g82
ag83
ag55
ag56
aa(lp1095
g82
ag83
ag58
ag59
aa(lp1096
g82
ag83
ag61
ag62
aa(lp1097
g82
ag83
ag64
ag65
aa(lp1098
g82
ag83
ag67
ag68
aa(lp1099
g82
ag83
ag70
ag71
aa(lp1100
g82
ag83
ag73
ag74
aa(lp1101
g82
ag83
ag76
ag77
aa(lp1102
g82
ag83
ag79
ag80
aa(lp1103
g82
ag83
ag85
ag86
aa(lp1104
g82
ag83
ag88
ag89
aa(lp1105
g82
ag83
ag91
ag92
aa(lp1106
g82
ag83
ag94
ag95
aa(lp1107
g82
ag83
ag97
ag98
aa(lp1108
g82
ag83
ag100
ag101
aa(lp1109
g82
ag83
ag103
ag104
aa(lp1110
g82
ag83
ag106
ag107
aa(lp1111
g82
ag83
ag109
ag110
aa(lp1112
g82
ag83
ag112
ag113
aa(lp1113
g85
ag86
ag2
ag3
aa(lp1114
g85
ag86
ag4
ag5
aa(lp1115
g85
ag86
ag7
ag8
aa(lp1116
g85
ag86
ag10
ag11
aa(lp1117
g85
ag86
ag13
ag14
aa(lp1118
g85
ag86
ag16
ag17
aa(lp1119
g85
ag86
ag19
ag20
aa(lp1120
g85
ag86
ag22
ag23
aa(lp1121
g85
ag86
ag25
ag26
aa(lp1122
g85
ag86
ag28
ag29
aa(lp1123
g85
ag86
ag31
ag32
aa(lp1124
g85
ag86
ag34
ag35
aa(lp1125
g85
ag86
ag37
ag38
aa(lp1126
g85
ag86
ag40
ag41
aa(lp1127
g85
ag86
ag43
ag44
aa(lp1128
g85
ag86
ag46
ag47
aa(lp1129
g85
ag86
ag49
ag50
aa(lp1130
g85
ag86
ag52
ag53
aa(lp1131
g85
ag86
ag55
ag56
aa(lp1132
g85
ag86
ag58
ag59
aa(lp1133
g85
ag86
ag61
ag62
aa(lp1134
g85
ag86
ag64
ag65
aa(lp1135
g85
ag86
ag67
ag68
aa(lp1136
g85
ag86
ag70
ag71
aa(lp1137
g85
ag86
ag73
ag74
aa(lp1138
g85
ag86
ag76
ag77
aa(lp1139
g85
ag86
ag79
ag80
aa(lp1140
g85
ag86
ag82
ag83
aa(lp1141
g85
ag86
ag88
ag89
aa(lp1142
g85
ag86
ag91
ag92
aa(lp1143
g85
ag86
ag94
ag95
aa(lp1144
g85
ag86
ag97
ag98
aa(lp1145
g85
ag86
ag100
ag101
aa(lp1146
g85
ag86
ag103
ag104
aa(lp1147
g85
ag86
ag106
ag107
aa(lp1148
g85
ag86
ag109
ag110
aa(lp1149
g85
ag86
ag112
ag113
aa(lp1150
g88
ag89
ag2
ag3
aa(lp1151
g88
ag89
ag4
ag5
aa(lp1152
g88
ag89
ag7
ag8
aa(lp1153
g88
ag89
ag10
ag11
aa(lp1154
g88
ag89
ag13
ag14
aa(lp1155
g88
ag89
ag16
ag17
aa(lp1156
g88
ag89
ag19
ag20
aa(lp1157
g88
ag89
ag22
ag23
aa(lp1158
g88
ag89
ag25
ag26
aa(lp1159
g88
ag89
ag28
ag29
aa(lp1160
g88
ag89
ag31
ag32
aa(lp1161
g88
ag89
ag34
ag35
aa(lp1162
g88
ag89
ag37
ag38
aa(lp1163
g88
ag89
ag40
ag41
aa(lp1164
g88
ag89
ag43
ag44
aa(lp1165
g88
ag89
ag46
ag47
aa(lp1166
g88
ag89
ag49
ag50
aa(lp1167
g88
ag89
ag52
ag53
aa(lp1168
g88
ag89
ag55
ag56
aa(lp1169
g88
ag89
ag58
ag59
aa(lp1170
g88
ag89
ag61
ag62
aa(lp1171
g88
ag89
ag64
ag65
aa(lp1172
g88
ag89
ag67
ag68
aa(lp1173
g88
ag89
ag70
ag71
aa(lp1174
g88
ag89
ag73
ag74
aa(lp1175
g88
ag89
ag76
ag77
aa(lp1176
g88
ag89
ag79
ag80
aa(lp1177
g88
ag89
ag82
ag83
aa(lp1178
g88
ag89
ag85
ag86
aa(lp1179
g88
ag89
ag91
ag92
aa(lp1180
g88
ag89
ag94
ag95
aa(lp1181
g88
ag89
ag97
ag98
aa(lp1182
g88
ag89
ag100
ag101
aa(lp1183
g88
ag89
ag103
ag104
aa(lp1184
g88
ag89
ag106
ag107
aa(lp1185
g88
ag89
ag109
ag110
aa(lp1186
g88
ag89
ag112
ag113
aa(lp1187
g91
ag92
ag2
ag3
aa(lp1188
g91
ag92
ag4
ag5
aa(lp1189
g91
ag92
ag7
ag8
aa(lp1190
g91
ag92
ag10
ag11
aa(lp1191
g91
ag92
ag13
ag14
aa(lp1192
g91
ag92
ag16
ag17
aa(lp1193
g91
ag92
ag19
ag20
aa(lp1194
g91
ag92
ag22
ag23
aa(lp1195
g91
ag92
ag25
ag26
aa(lp1196
g91
ag92
ag28
ag29
aa(lp1197
g91
ag92
ag31
ag32
aa(lp1198
g91
ag92
ag34
ag35
aa(lp1199
g91
ag92
ag37
ag38
aa(lp1200
g91
ag92
ag40
ag41
aa(lp1201
g91
ag92
ag43
ag44
aa(lp1202
g91
ag92
ag46
ag47
aa(lp1203
g91
ag92
ag49
ag50
aa(lp1204
g91
ag92
ag52
ag53
aa(lp1205
g91
ag92
ag55
ag56
aa(lp1206
g91
ag92
ag58
ag59
aa(lp1207
g91
ag92
ag61
ag62
aa(lp1208
g91
ag92
ag64
ag65
aa(lp1209
g91
ag92
ag67
ag68
aa(lp1210
g91
ag92
ag70
ag71
aa(lp1211
g91
ag92
ag73
ag74
aa(lp1212
g91
ag92
ag76
ag77
aa(lp1213
g91
ag92
ag79
ag80
aa(lp1214
g91
ag92
ag82
ag83
aa(lp1215
g91
ag92
ag85
ag86
aa(lp1216
g91
ag92
ag88
ag89
aa(lp1217
g91
ag92
ag94
ag95
aa(lp1218
g91
ag92
ag97
ag98
aa(lp1219
g91
ag92
ag100
ag101
aa(lp1220
g91
ag92
ag103
ag104
aa(lp1221
g91
ag92
ag106
ag107
aa(lp1222
g91
ag92
ag109
ag110
aa(lp1223
g91
ag92
ag112
ag113
aa(lp1224
g94
ag95
ag2
ag3
aa(lp1225
g94
ag95
ag4
ag5
aa(lp1226
g94
ag95
ag7
ag8
aa(lp1227
g94
ag95
ag10
ag11
aa(lp1228
g94
ag95
ag13
ag14
aa(lp1229
g94
ag95
ag16
ag17
aa(lp1230
g94
ag95
ag19
ag20
aa(lp1231
g94
ag95
ag22
ag23
aa(lp1232
g94
ag95
ag25
ag26
aa(lp1233
g94
ag95
ag28
ag29
aa(lp1234
g94
ag95
ag31
ag32
aa(lp1235
g94
ag95
ag34
ag35
aa(lp1236
g94
ag95
ag37
ag38
aa(lp1237
g94
ag95
ag40
ag41
aa(lp1238
g94
ag95
ag43
ag44
aa(lp1239
g94
ag95
ag46
ag47
aa(lp1240
g94
ag95
ag49
ag50
aa(lp1241
g94
ag95
ag52
ag53
aa(lp1242
g94
ag95
ag55
ag56
aa(lp1243
g94
ag95
ag58
ag59
aa(lp1244
g94
ag95
ag61
ag62
aa(lp1245
g94
ag95
ag64
ag65
aa(lp1246
g94
ag95
ag67
ag68
aa(lp1247
g94
ag95
ag70
ag71
aa(lp1248
g94
ag95
ag73
ag74
aa(lp1249
g94
ag95
ag76
ag77
aa(lp1250
g94
ag95
ag79
ag80
aa(lp1251
g94
ag95
ag82
ag83
aa(lp1252
g94
ag95
ag85
ag86
aa(lp1253
g94
ag95
ag88
ag89
aa(lp1254
g94
ag95
ag91
ag92
aa(lp1255
g94
ag95
ag97
ag98
aa(lp1256
g94
ag95
ag100
ag101
aa(lp1257
g94
ag95
ag103
ag104
aa(lp1258
g94
ag95
ag106
ag107
aa(lp1259
g94
ag95
ag109
ag110
aa(lp1260
g94
ag95
ag112
ag113
aa(lp1261
g97
ag98
ag2
ag3
aa(lp1262
g97
ag98
ag4
ag5
aa(lp1263
g97
ag98
ag7
ag8
aa(lp1264
g97
ag98
ag10
ag11
aa(lp1265
g97
ag98
ag13
ag14
aa(lp1266
g97
ag98
ag16
ag17
aa(lp1267
g97
ag98
ag19
ag20
aa(lp1268
g97
ag98
ag22
ag23
aa(lp1269
g97
ag98
ag25
ag26
aa(lp1270
g97
ag98
ag28
ag29
aa(lp1271
g97
ag98
ag31
ag32
aa(lp1272
g97
ag98
ag34
ag35
aa(lp1273
g97
ag98
ag37
ag38
aa(lp1274
g97
ag98
ag40
ag41
aa(lp1275
g97
ag98
ag43
ag44
aa(lp1276
g97
ag98
ag46
ag47
aa(lp1277
g97
ag98
ag49
ag50
aa(lp1278
g97
ag98
ag52
ag53
aa(lp1279
g97
ag98
ag55
ag56
aa(lp1280
g97
ag98
ag58
ag59
aa(lp1281
g97
ag98
ag61
ag62
aa(lp1282
g97
ag98
ag64
ag65
aa(lp1283
g97
ag98
ag67
ag68
aa(lp1284
g97
ag98
ag70
ag71
aa(lp1285
g97
ag98
ag73
ag74
aa(lp1286
g97
ag98
ag76
ag77
aa(lp1287
g97
ag98
ag79
ag80
aa(lp1288
g97
ag98
ag82
ag83
aa(lp1289
g97
ag98
ag85
ag86
aa(lp1290
g97
ag98
ag88
ag89
aa(lp1291
g97
ag98
ag91
ag92
aa(lp1292
g97
ag98
ag94
ag95
aa(lp1293
g97
ag98
ag100
ag101
aa(lp1294
g97
ag98
ag103
ag104
aa(lp1295
g97
ag98
ag106
ag107
aa(lp1296
g97
ag98
ag109
ag110
aa(lp1297
g97
ag98
ag112
ag113
aa(lp1298
g100
ag101
ag2
ag3
aa(lp1299
g100
ag101
ag4
ag5
aa(lp1300
g100
ag101
ag7
ag8
aa(lp1301
g100
ag101
ag10
ag11
aa(lp1302
g100
ag101
ag13
ag14
aa(lp1303
g100
ag101
ag16
ag17
aa(lp1304
g100
ag101
ag19
ag20
aa(lp1305
g100
ag101
ag22
ag23
aa(lp1306
g100
ag101
ag25
ag26
aa(lp1307
g100
ag101
ag28
ag29
aa(lp1308
g100
ag101
ag31
ag32
aa(lp1309
g100
ag101
ag34
ag35
aa(lp1310
g100
ag101
ag37
ag38
aa(lp1311
g100
ag101
ag40
ag41
aa(lp1312
g100
ag101
ag43
ag44
aa(lp1313
g100
ag101
ag46
ag47
aa(lp1314
g100
ag101
ag49
ag50
aa(lp1315
g100
ag101
ag52
ag53
aa(lp1316
g100
ag101
ag55
ag56
aa(lp1317
g100
ag101
ag58
ag59
aa(lp1318
g100
ag101
ag61
ag62
aa(lp1319
g100
ag101
ag64
ag65
aa(lp1320
g100
ag101
ag67
ag68
aa(lp1321
g100
ag101
ag70
ag71
aa(lp1322
g100
ag101
ag73
ag74
aa(lp1323
g100
ag101
ag76
ag77
aa(lp1324
g100
ag101
ag79
ag80
aa(lp1325
g100
ag101
ag82
ag83
aa(lp1326
g100
ag101
ag85
ag86
aa(lp1327
g100
ag101
ag88
ag89
aa(lp1328
g100
ag101
ag91
ag92
aa(lp1329
g100
ag101
ag94
ag95
aa(lp1330
g100
ag101
ag97
ag98
aa(lp1331
g100
ag101
ag103
ag104
aa(lp1332
g100
ag101
ag106
ag107
aa(lp1333
g100
ag101
ag109
ag110
aa(lp1334
g100
ag101
ag112
ag113
aa(lp1335
g103
ag104
ag2
ag3
aa(lp1336
g103
ag104
ag4
ag5
aa(lp1337
g103
ag104
ag7
ag8
aa(lp1338
g103
ag104
ag10
ag11
aa(lp1339
g103
ag104
ag13
ag14
aa(lp1340
g103
ag104
ag16
ag17
aa(lp1341
g103
ag104
ag19
ag20
aa(lp1342
g103
ag104
ag22
ag23
aa(lp1343
g103
ag104
ag25
ag26
aa(lp1344
g103
ag104
ag28
ag29
aa(lp1345
g103
ag104
ag31
ag32
aa(lp1346
g103
ag104
ag34
ag35
aa(lp1347
g103
ag104
ag37
ag38
aa(lp1348
g103
ag104
ag40
ag41
aa(lp1349
g103
ag104
ag43
ag44
aa(lp1350
g103
ag104
ag46
ag47
aa(lp1351
g103
ag104
ag49
ag50
aa(lp1352
g103
ag104
ag52
ag53
aa(lp1353
g103
ag104
ag55
ag56
aa(lp1354
g103
ag104
ag58
ag59
aa(lp1355
g103
ag104
ag61
ag62
aa(lp1356
g103
ag104
ag64
ag65
aa(lp1357
g103
ag104
ag67
ag68
aa(lp1358
g103
ag104
ag70
ag71
aa(lp1359
g103
ag104
ag73
ag74
aa(lp1360
g103
ag104
ag76
ag77
aa(lp1361
g103
ag104
ag79
ag80
aa(lp1362
g103
ag104
ag82
ag83
aa(lp1363
g103
ag104
ag85
ag86
aa(lp1364
g103
ag104
ag88
ag89
aa(lp1365
g103
ag104
ag91
ag92
aa(lp1366
g103
ag104
ag94
ag95
aa(lp1367
g103
ag104
ag97
ag98
aa(lp1368
g103
ag104
ag100
ag101
aa(lp1369
g103
ag104
ag106
ag107
aa(lp1370
g103
ag104
ag109
ag110
aa(lp1371
g103
ag104
ag112
ag113
aa(lp1372
g106
ag107
ag2
ag3
aa(lp1373
g106
ag107
ag4
ag5
aa(lp1374
g106
ag107
ag7
ag8
aa(lp1375
g106
ag107
ag10
ag11
aa(lp1376
g106
ag107
ag13
ag14
aa(lp1377
g106
ag107
ag16
ag17
aa(lp1378
g106
ag107
ag19
ag20
aa(lp1379
g106
ag107
ag22
ag23
aa(lp1380
g106
ag107
ag25
ag26
aa(lp1381
g106
ag107
ag28
ag29
aa(lp1382
g106
ag107
ag31
ag32
aa(lp1383
g106
ag107
ag34
ag35
aa(lp1384
g106
ag107
ag37
ag38
aa(lp1385
g106
ag107
ag40
ag41
aa(lp1386
g106
ag107
ag43
ag44
aa(lp1387
g106
ag107
ag46
ag47
aa(lp1388
g106
ag107
ag49
ag50
aa(lp1389
g106
ag107
ag52
ag53
aa(lp1390
g106
ag107
ag55
ag56
aa(lp1391
g106
ag107
ag58
ag59
aa(lp1392
g106
ag107
ag61
ag62
aa(lp1393
g106
ag107
ag64
ag65
aa(lp1394
g106
ag107
ag67
ag68
aa(lp1395
g106
ag107
ag70
ag71
aa(lp1396
g106
ag107
ag73
ag74
aa(lp1397
g106
ag107
ag76
ag77
aa(lp1398
g106
ag107
ag79
ag80
aa(lp1399
g106
ag107
ag82
ag83
aa(lp1400
g106
ag107
ag85
ag86
aa(lp1401
g106
ag107
ag88
ag89
aa(lp1402
g106
ag107
ag91
ag92
aa(lp1403
g106
ag107
ag94
ag95
aa(lp1404
g106
ag107
ag97
ag98
aa(lp1405
g106
ag107
ag100
ag101
aa(lp1406
g106
ag107
ag103
ag104
aa(lp1407
g106
ag107
ag109
ag110
aa(lp1408
g106
ag107
ag112
ag113
aa(lp1409
g109
ag110
ag2
ag3
aa(lp1410
g109
ag110
ag4
ag5
aa(lp1411
g109
ag110
ag7
ag8
aa(lp1412
g109
ag110
ag10
ag11
aa(lp1413
g109
ag110
ag13
ag14
aa(lp1414
g109
ag110
ag16
ag17
aa(lp1415
g109
ag110
ag19
ag20
aa(lp1416
g109
ag110
ag22
ag23
aa(lp1417
g109
ag110
ag25
ag26
aa(lp1418
g109
ag110
ag28
ag29
aa(lp1419
g109
ag110
ag31
ag32
aa(lp1420
g109
ag110
ag34
ag35
aa(lp1421
g109
ag110
ag37
ag38
aa(lp1422
g109
ag110
ag40
ag41
aa(lp1423
g109
ag110
ag43
ag44
aa(lp1424
g109
ag110
ag46
ag47
aa(lp1425
g109
ag110
ag49
ag50
aa(lp1426
g109
ag110
ag52
ag53
aa(lp1427
g109
ag110
ag55
ag56
aa(lp1428
g109
ag110
ag58
ag59
aa(lp1429
g109
ag110
ag61
ag62
aa(lp1430
g109
ag110
ag64
ag65
aa(lp1431
g109
ag110
ag67
ag68
aa(lp1432
g109
ag110
ag70
ag71
aa(lp1433
g109
ag110
ag73
ag74
aa(lp1434
g109
ag110
ag76
ag77
aa(lp1435
g109
ag110
ag79
ag80
aa(lp1436
g109
ag110
ag82
ag83
aa(lp1437
g109
ag110
ag85
ag86
aa(lp1438
g109
ag110
ag88
ag89
aa(lp1439
g109
ag110
ag91
ag92
aa(lp1440
g109
ag110
ag94
ag95
aa(lp1441
g109
ag110
ag97
ag98
aa(lp1442
g109
ag110
ag100
ag101
aa(lp1443
g109
ag110
ag103
ag104
aa(lp1444
g109
ag110
ag106
ag107
aa(lp1445
g109
ag110
ag112
ag113
aa(lp1446
g112
ag113
ag2
ag3
aa(lp1447
g112
ag113
ag4
ag5
aa(lp1448
g112
ag113
ag7
ag8
aa(lp1449
g112
ag113
ag10
ag11
aa(lp1450
g112
ag113
ag13
ag14
aa(lp1451
g112
ag113
ag16
ag17
aa(lp1452
g112
ag113
ag19
ag20
aa(lp1453
g112
ag113
ag22
ag23
aa(lp1454
g112
ag113
ag25
ag26
aa(lp1455
g112
ag113
ag28
ag29
aa(lp1456
g112
ag113
ag31
ag32
aa(lp1457
g112
ag113
ag34
ag35
aa(lp1458
g112
ag113
ag37
ag38
aa(lp1459
g112
ag113
ag40
ag41
aa(lp1460
g112
ag113
ag43
ag44
aa(lp1461
g112
ag113
ag46
ag47
aa(lp1462
g112
ag113
ag49
ag50
aa(lp1463
g112
ag113
ag52
ag53
aa(lp1464
g112
ag113
ag55
ag56
aa(lp1465
g112
ag113
ag58
ag59
aa(lp1466
g112
ag113
ag61
ag62
aa(lp1467
g112
ag113
ag64
ag65
aa(lp1468
g112
ag113
ag67
ag68
aa(lp1469
g112
ag113
ag70
ag71
aa(lp1470
g112
ag113
ag73
ag74
aa(lp1471
g112
ag113
ag76
ag77
aa(lp1472
g112
ag113
ag79
ag80
aa(lp1473
g112
ag113
ag82
ag83
aa(lp1474
g112
ag113
ag85
ag86
aa(lp1475
g112
ag113
ag88
ag89
aa(lp1476
g112
ag113
ag91
ag92
aa(lp1477
g112
ag113
ag94
ag95
aa(lp1478
g112
ag113
ag97
ag98
aa(lp1479
g112
ag113
ag100
ag101
aa(lp1480
g112
ag113
ag103
ag104
aa(lp1481
g112
ag113
ag106
ag107
aa(lp1482
g112
ag113
ag109
ag110
aa.