(lp0
(lp1
S'cut_VB'
p2
aS'knife_NN'
p3
aS'wash_VB'
p4
aS'detergent_NN'
p5
aa(lp6
g2
ag3
aS'unlock_VB'
p7
aS'key_NN'
p8
aa(lp9
g2
ag3
aS'dig_VB'
p10
aS'shovel_NN'
p11
aa(lp12
g2
ag3
aS'sweep_VB'
p13
aS'broom_NN'
p14
aa(lp15
g2
ag3
aS'spread_VB'
p16
aS'knife_NN'
p17
aa(lp18
g2
ag3
aS'scrub_VB'
p19
aS'rag_NN'
p20
aa(lp21
g2
ag3
aS'activate_VB'
p22
aS'switch_NN'
p23
aa(lp24
g2
ag3
aS'cut_VB'
p25
aS'scissors_NN'
p26
aa(lp27
g2
ag3
aS'vacuum_VB'
p28
aS'vacuum_NN'
p29
aa(lp30
g2
ag3
aS'mop_VB'
p31
aS'mop_NN'
p32
aa(lp33
g2
ag3
aS'iron_VB'
p34
aS'iron_NN'
p35
aa(lp36
g2
ag3
aS'cook_VB'
p37
aS'pan_NN'
p38
aa(lp39
g2
ag3
aS'bake_VB'
p40
aS'oven_NN'
p41
aa(lp42
g2
ag3
aS'toast_VB'
p43
aS'toaster_NN'
p44
aa(lp45
g2
ag3
aS'crack_VB'
p46
aS'nutcracker_NN'
p47
aa(lp48
g2
ag3
aS'hit_VB'
p49
aS'hammer_NN'
p50
aa(lp51
g2
ag3
aS'drill_VB'
p52
aS'drill_NN'
p53
aa(lp54
g2
ag3
aS'pull_VB'
p55
aS'pliers_NN'
p56
aa(lp57
g2
ag3
aS'clamp_VB'
p58
aS'clamp_NN'
p59
aa(lp60
g2
ag3
aS'type_VB'
p61
aS'keyboard_NN'
p62
aa(lp63
g2
ag3
aS'stir_VB'
p64
aS'spoon_NN'
p65
aa(lp66
g2
ag3
aS'eat_VB'
p67
aS'fork_NN'
p68
aa(lp69
g4
ag5
ag2
ag3
aa(lp70
g4
ag5
ag7
ag8
aa(lp71
g4
ag5
ag10
ag11
aa(lp72
g4
ag5
ag13
ag14
aa(lp73
g4
ag5
ag16
ag17
aa(lp74
g4
ag5
ag19
ag20
aa(lp75
g4
ag5
ag22
ag23
aa(lp76
g4
ag5
ag25
ag26
aa(lp77
g4
ag5
ag28
ag29
aa(lp78
g4
ag5
ag31
ag32
aa(lp79
g4
ag5
ag34
ag35
aa(lp80
g4
ag5
ag37
ag38
aa(lp81
g4
ag5
ag40
ag41
aa(lp82
g4
ag5
ag43
ag44
aa(lp83
g4
ag5
ag46
ag47
aa(lp84
g4
ag5
ag49
ag50
aa(lp85
g4
ag5
ag52
ag53
aa(lp86
g4
ag5
ag55
ag56
aa(lp87
g4
ag5
ag58
ag59
aa(lp88
g4
ag5
ag61
ag62
aa(lp89
g4
ag5
ag64
ag65
aa(lp90
g4
ag5
ag67
ag68
aa(lp91
g7
ag8
ag2
ag3
aa(lp92
g7
ag8
ag4
ag5
aa(lp93
g7
ag8
ag10
ag11
aa(lp94
g7
ag8
ag13
ag14
aa(lp95
g7
ag8
ag16
ag17
aa(lp96
g7
ag8
ag19
ag20
aa(lp97
g7
ag8
ag22
ag23
aa(lp98
g7
ag8
ag25
ag26
aa(lp99
g7
ag8
ag28
ag29
aa(lp100
g7
ag8
ag31
ag32
aa(lp101
g7
ag8
ag34
ag35
aa(lp102
g7
ag8
ag37
ag38
aa(lp103
g7
ag8
ag40
ag41
aa(lp104
g7
ag8
ag43
ag44
aa(lp105
g7
ag8
ag46
ag47
aa(lp106
g7
ag8
ag49
ag50
aa(lp107
g7
ag8
ag52
ag53
aa(lp108
g7
ag8
ag55
ag56
aa(lp109
g7
ag8
ag58
ag59
aa(lp110
g7
ag8
ag61
ag62
aa(lp111
g7
ag8
ag64
ag65
aa(lp112
g7
ag8
ag67
ag68
aa(lp113
g10
ag11
ag2
ag3
aa(lp114
g10
ag11
ag4
ag5
aa(lp115
g10
ag11
ag7
ag8
aa(lp116
g10
ag11
ag13
ag14
aa(lp117
g10
ag11
ag16
ag17
aa(lp118
g10
ag11
ag19
ag20
aa(lp119
g10
ag11
ag22
ag23
aa(lp120
g10
ag11
ag25
ag26
aa(lp121
g10
ag11
ag28
ag29
aa(lp122
g10
ag11
ag31
ag32
aa(lp123
g10
ag11
ag34
ag35
aa(lp124
g10
ag11
ag37
ag38
aa(lp125
g10
ag11
ag40
ag41
aa(lp126
g10
ag11
ag43
ag44
aa(lp127
g10
ag11
ag46
ag47
aa(lp128
g10
ag11
ag49
ag50
aa(lp129
g10
ag11
ag52
ag53
aa(lp130
g10
ag11
ag55
ag56
aa(lp131
g10
ag11
ag58
ag59
aa(lp132
g10
ag11
ag61
ag62
aa(lp133
g10
ag11
ag64
ag65
aa(lp134
g10
ag11
ag67
ag68
aa(lp135
g13
ag14
ag2
ag3
aa(lp136
g13
ag14
ag4
ag5
aa(lp137
g13
ag14
ag7
ag8
aa(lp138
g13
ag14
ag10
ag11
aa(lp139
g13
ag14
ag16
ag17
aa(lp140
g13
ag14
ag19
ag20
aa(lp141
g13
ag14
ag22
ag23
aa(lp142
g13
ag14
ag25
ag26
aa(lp143
g13
ag14
ag28
ag29
aa(lp144
g13
ag14
ag31
ag32
aa(lp145
g13
ag14
ag34
ag35
aa(lp146
g13
ag14
ag37
ag38
aa(lp147
g13
ag14
ag40
ag41
aa(lp148
g13
ag14
ag43
ag44
aa(lp149
g13
ag14
ag46
ag47
aa(lp150
g13
ag14
ag49
ag50
aa(lp151
g13
ag14
ag52
ag53
aa(lp152
g13
ag14
ag55
ag56
aa(lp153
g13
ag14
ag58
ag59
aa(lp154
g13
ag14
ag61
ag62
aa(lp155
g13
ag14
ag64
ag65
aa(lp156
g13
ag14
ag67
ag68
aa(lp157
g16
ag17
ag2
ag3
aa(lp158
g16
ag17
ag4
ag5
aa(lp159
g16
ag17
ag7
ag8
aa(lp160
g16
ag17
ag10
ag11
aa(lp161
g16
ag17
ag13
ag14
aa(lp162
g16
ag17
ag19
ag20
aa(lp163
g16
ag17
ag22
ag23
aa(lp164
g16
ag17
ag25
ag26
aa(lp165
g16
ag17
ag28
ag29
aa(lp166
g16
ag17
ag31
ag32
aa(lp167
g16
ag17
ag34
ag35
aa(lp168
g16
ag17
ag37
ag38
aa(lp169
g16
ag17
ag40
ag41
aa(lp170
g16
ag17
ag43
ag44
aa(lp171
g16
ag17
ag46
ag47
aa(lp172
g16
ag17
ag49
ag50
aa(lp173
g16
ag17
ag52
ag53
aa(lp174
g16
ag17
ag55
ag56
aa(lp175
g16
ag17
ag58
ag59
aa(lp176
g16
ag17
ag61
ag62
aa(lp177
g16
ag17
ag64
ag65
aa(lp178
g16
ag17
ag67
ag68
aa(lp179
g19
ag20
ag2
ag3
aa(lp180
g19
ag20
ag4
ag5
aa(lp181
g19
ag20
ag7
ag8
aa(lp182
g19
ag20
ag10
ag11
aa(lp183
g19
ag20
ag13
ag14
aa(lp184
g19
ag20
ag16
ag17
aa(lp185
g19
ag20
ag22
ag23
aa(lp186
g19
ag20
ag25
ag26
aa(lp187
g19
ag20
ag28
ag29
aa(lp188
g19
ag20
ag31
ag32
aa(lp189
g19
ag20
ag34
ag35
aa(lp190
g19
ag20
ag37
ag38
aa(lp191
g19
ag20
ag40
ag41
aa(lp192
g19
ag20
ag43
ag44
aa(lp193
g19
ag20
ag46
ag47
aa(lp194
g19
ag20
ag49
ag50
aa(lp195
g19
ag20
ag52
ag53
aa(lp196
g19
ag20
ag55
ag56
aa(lp197
g19
ag20
ag58
ag59
aa(lp198
g19
ag20
ag61
ag62
aa(lp199
g19
ag20
ag64
ag65
aa(lp200
g19
ag20
ag67
ag68
aa(lp201
g22
ag23
ag2
ag3
aa(lp202
g22
ag23
ag4
ag5
aa(lp203
g22
ag23
ag7
ag8
aa(lp204
g22
ag23
ag10
ag11
aa(lp205
g22
ag23
ag13
ag14
aa(lp206
g22
ag23
ag16
ag17
aa(lp207
g22
ag23
ag19
ag20
aa(lp208
g22
ag23
ag25
ag26
aa(lp209
g22
ag23
ag28
ag29
aa(lp210
g22
ag23
ag31
ag32
aa(lp211
g22
ag23
ag34
ag35
aa(lp212
g22
ag23
ag37
ag38
aa(lp213
g22
ag23
ag40
ag41
aa(lp214
g22
ag23
ag43
ag44
aa(lp215
g22
ag23
ag46
ag47
aa(lp216
g22
ag23
ag49
ag50
aa(lp217
g22
ag23
ag52
ag53
aa(lp218
g22
ag23
ag55
ag56
aa(lp219
g22
ag23
ag58
ag59
aa(lp220
g22
ag23
ag61
ag62
aa(lp221
g22
ag23
ag64
ag65
aa(lp222
g22
ag23
ag67
ag68
aa(lp223
g25
ag26
ag2
ag3
aa(lp224
g25
ag26
ag4
ag5
aa(lp225
g25
ag26
ag7
ag8
aa(lp226
g25
ag26
ag10
ag11
aa(lp227
g25
ag26
ag13
ag14
aa(lp228
g25
ag26
ag16
ag17
aa(lp229
g25
ag26
ag19
ag20
aa(lp230
g25
ag26
ag22
ag23
aa(lp231
g25
ag26
ag28
ag29
aa(lp232
g25
ag26
ag31
ag32
aa(lp233
g25
ag26
ag34
ag35
aa(lp234
g25
ag26
ag37
ag38
aa(lp235
g25
ag26
ag40
ag41
aa(lp236
g25
ag26
ag43
ag44
aa(lp237
g25
ag26
ag46
ag47
aa(lp238
g25
ag26
ag49
ag50
aa(lp239
g25
ag26
ag52
ag53
aa(lp240
g25
ag26
ag55
ag56
aa(lp241
g25
ag26
ag58
ag59
aa(lp242
g25
ag26
ag61
ag62
aa(lp243
g25
ag26
ag64
ag65
aa(lp244
g25
ag26
ag67
ag68
aa(lp245
g28
ag29
ag2
ag3
aa(lp246
g28
ag29
ag4
ag5
aa(lp247
g28
ag29
ag7
ag8
aa(lp248
g28
ag29
ag10
ag11
aa(lp249
g28
ag29
ag13
ag14
aa(lp250
g28
ag29
ag16
ag17
aa(lp251
g28
ag29
ag19
ag20
aa(lp252
g28
ag29
ag22
ag23
aa(lp253
g28
ag29
ag25
ag26
aa(lp254
g28
ag29
ag31
ag32
aa(lp255
g28
ag29
ag34
ag35
aa(lp256
g28
ag29
ag37
ag38
aa(lp257
g28
ag29
ag40
ag41
aa(lp258
g28
ag29
ag43
ag44
aa(lp259
g28
ag29
ag46
ag47
aa(lp260
g28
ag29
ag49
ag50
aa(lp261
g28
ag29
ag52
ag53
aa(lp262
g28
ag29
ag55
ag56
aa(lp263
g28
ag29
ag58
ag59
aa(lp264
g28
ag29
ag61
ag62
aa(lp265
g28
ag29
ag64
ag65
aa(lp266
g28
ag29
ag67
ag68
aa(lp267
g31
ag32
ag2
ag3
aa(lp268
g31
ag32
ag4
ag5
aa(lp269
g31
ag32
ag7
ag8
aa(lp270
g31
ag32
ag10
ag11
aa(lp271
g31
ag32
ag13
ag14
aa(lp272
g31
ag32
ag16
ag17
aa(lp273
g31
ag32
ag19
ag20
aa(lp274
g31
ag32
ag22
ag23
aa(lp275
g31
ag32
ag25
ag26
aa(lp276
g31
ag32
ag28
ag29
aa(lp277
g31
ag32
ag34
ag35
aa(lp278
g31
ag32
ag37
ag38
aa(lp279
g31
ag32
ag40
ag41
aa(lp280
g31
ag32
ag43
ag44
aa(lp281
g31
ag32
ag46
ag47
aa(lp282
g31
ag32
ag49
ag50
aa(lp283
g31
ag32
ag52
ag53
aa(lp284
g31
ag32
ag55
ag56
aa(lp285
g31
ag32
ag58
ag59
aa(lp286
g31
ag32
ag61
ag62
aa(lp287
g31
ag32
ag64
ag65
aa(lp288
g31
ag32
ag67
ag68
aa(lp289
g34
ag35
ag2
ag3
aa(lp290
g34
ag35
ag4
ag5
aa(lp291
g34
ag35
ag7
ag8
aa(lp292
g34
ag35
ag10
ag11
aa(lp293
g34
ag35
ag13
ag14
aa(lp294
g34
ag35
ag16
ag17
aa(lp295
g34
ag35
ag19
ag20
aa(lp296
g34
ag35
ag22
ag23
aa(lp297
g34
ag35
ag25
ag26
aa(lp298
g34
ag35
ag28
ag29
aa(lp299
g34
ag35
ag31
ag32
aa(lp300
g34
ag35
ag37
ag38
aa(lp301
g34
ag35
ag40
ag41
aa(lp302
g34
ag35
ag43
ag44
aa(lp303
g34
ag35
ag46
ag47
aa(lp304
g34
ag35
ag49
ag50
aa(lp305
g34
ag35
ag52
ag53
aa(lp306
g34
ag35
ag55
ag56
aa(lp307
g34
ag35
ag58
ag59
aa(lp308
g34
ag35
ag61
ag62
aa(lp309
g34
ag35
ag64
ag65
aa(lp310
g34
ag35
ag67
ag68
aa(lp311
g37
ag38
ag2
ag3
aa(lp312
g37
ag38
ag4
ag5
aa(lp313
g37
ag38
ag7
ag8
aa(lp314
g37
ag38
ag10
ag11
aa(lp315
g37
ag38
ag13
ag14
aa(lp316
g37
ag38
ag16
ag17
aa(lp317
g37
ag38
ag19
ag20
aa(lp318
g37
ag38
ag22
ag23
aa(lp319
g37
ag38
ag25
ag26
aa(lp320
g37
ag38
ag28
ag29
aa(lp321
g37
ag38
ag31
ag32
aa(lp322
g37
ag38
ag34
ag35
aa(lp323
g37
ag38
ag40
ag41
aa(lp324
g37
ag38
ag43
ag44
aa(lp325
g37
ag38
ag46
ag47
aa(lp326
g37
ag38
ag49
ag50
aa(lp327
g37
ag38
ag52
ag53
aa(lp328
g37
ag38
ag55
ag56
aa(lp329
g37
ag38
ag58
ag59
aa(lp330
g37
ag38
ag61
ag62
aa(lp331
g37
ag38
ag64
ag65
aa(lp332
g37
ag38
ag67
ag68
aa(lp333
g40
ag41
ag2
ag3
aa(lp334
g40
ag41
ag4
ag5
aa(lp335
g40
ag41
ag7
ag8
aa(lp336
g40
ag41
ag10
ag11
aa(lp337
g40
ag41
ag13
ag14
aa(lp338
g40
ag41
ag16
ag17
aa(lp339
g40
ag41
ag19
ag20
aa(lp340
g40
ag41
ag22
ag23
aa(lp341
g40
ag41
ag25
ag26
aa(lp342
g40
ag41
ag28
ag29
aa(lp343
g40
ag41
ag31
ag32
aa(lp344
g40
ag41
ag34
ag35
aa(lp345
g40
ag41
ag37
ag38
aa(lp346
g40
ag41
ag43
ag44
aa(lp347
g40
ag41
ag46
ag47
aa(lp348
g40
ag41
ag49
ag50
aa(lp349
g40
ag41
ag52
ag53
aa(lp350
g40
ag41
ag55
ag56
aa(lp351
g40
ag41
ag58
ag59
aa(lp352
g40
ag41
ag61
ag62
aa(lp353
g40
ag41
ag64
ag65
aa(lp354
g40
ag41
ag67
ag68
aa(lp355
g43
ag44
ag2
ag3
aa(lp356
g43
ag44
ag4
ag5
aa(lp357
g43
ag44
ag7
ag8
aa(lp358
g43
ag44
ag10
ag11
aa(lp359
g43
ag44
ag13
ag14
aa(lp360
g43
ag44
ag16
ag17
aa(lp361
g43
ag44
ag19
ag20
aa(lp362
g43
ag44
ag22
ag23
aa(lp363
g43
ag44
ag25
ag26
aa(lp364
g43
ag44
ag28
ag29
aa(lp365
g43
ag44
ag31
ag32
aa(lp366
g43
ag44
ag34
ag35
aa(lp367
g43
ag44
ag37
ag38
aa(lp368
g43
ag44
ag40
ag41
aa(lp369
g43
ag44
ag46
ag47
aa(lp370
g43
ag44
ag49
ag50
aa(lp371
g43
ag44
ag52
ag53
aa(lp372
g43
ag44
ag55
ag56
aa(lp373
g43
ag44
ag58
ag59
aa(lp374
g43
ag44
ag61
ag62
aa(lp375
g43
ag44
ag64
ag65
aa(lp376
g43
ag44
ag67
ag68
aa(lp377
g46
ag47
ag2
ag3
aa(lp378
g46
ag47
ag4
ag5
aa(lp379
g46
ag47
ag7
ag8
aa(lp380
g46
ag47
ag10
ag11
aa(lp381
g46
ag47
ag13
ag14
aa(lp382
g46
ag47
ag16
ag17
aa(lp383
g46
ag47
ag19
ag20
aa(lp384
g46
ag47
ag22
ag23
aa(lp385
g46
ag47
ag25
ag26
aa(lp386
g46
ag47
ag28
ag29
aa(lp387
g46
ag47
ag31
ag32
aa(lp388
g46
ag47
ag34
ag35
aa(lp389
g46
ag47
ag37
ag38
aa(lp390
g46
ag47
ag40
ag41
aa(lp391
g46
ag47
ag43
ag44
aa(lp392
g46
ag47
ag49
ag50
aa(lp393
g46
ag47
ag52
ag53
aa(lp394
g46
ag47
ag55
ag56
aa(lp395
g46
ag47
ag58
ag59
aa(lp396
g46
ag47
ag61
ag62
aa(lp397
g46
ag47
ag64
ag65
aa(lp398
g46
ag47
ag67
ag68
aa(lp399
g49
ag50
ag2
ag3
aa(lp400
g49
ag50
ag4
ag5
aa(lp401
g49
ag50
ag7
ag8
aa(lp402
g49
ag50
ag10
ag11
aa(lp403
g49
ag50
ag13
ag14
aa(lp404
g49
ag50
ag16
ag17
aa(lp405
g49
ag50
ag19
ag20
aa(lp406
g49
ag50
ag22
ag23
aa(lp407
g49
ag50
ag25
ag26
aa(lp408
g49
ag50
ag28
ag29
aa(lp409
g49
ag50
ag31
ag32
aa(lp410
g49
ag50
ag34
ag35
aa(lp411
g49
ag50
ag37
ag38
aa(lp412
g49
ag50
ag40
ag41
aa(lp413
g49
ag50
ag43
ag44
aa(lp414
g49
ag50
ag46
ag47
aa(lp415
g49
ag50
ag52
ag53
aa(lp416
g49
ag50
ag55
ag56
aa(lp417
g49
ag50
ag58
ag59
aa(lp418
g49
ag50
ag61
ag62
aa(lp419
g49
ag50
ag64
ag65
aa(lp420
g49
ag50
ag67
ag68
aa(lp421
g52
ag53
ag2
ag3
aa(lp422
g52
ag53
ag4
ag5
aa(lp423
g52
ag53
ag7
ag8
aa(lp424
g52
ag53
ag10
ag11
aa(lp425
g52
ag53
ag13
ag14
aa(lp426
g52
ag53
ag16
ag17
aa(lp427
g52
ag53
ag19
ag20
aa(lp428
g52
ag53
ag22
ag23
aa(lp429
g52
ag53
ag25
ag26
aa(lp430
g52
ag53
ag28
ag29
aa(lp431
g52
ag53
ag31
ag32
aa(lp432
g52
ag53
ag34
ag35
aa(lp433
g52
ag53
ag37
ag38
aa(lp434
g52
ag53
ag40
ag41
aa(lp435
g52
ag53
ag43
ag44
aa(lp436
g52
ag53
ag46
ag47
aa(lp437
g52
ag53
ag49
ag50
aa(lp438
g52
ag53
ag55
ag56
aa(lp439
g52
ag53
ag58
ag59
aa(lp440
g52
ag53
ag61
ag62
aa(lp441
g52
ag53
ag64
ag65
aa(lp442
g52
ag53
ag67
ag68
aa(lp443
g55
ag56
ag2
ag3
aa(lp444
g55
ag56
ag4
ag5
aa(lp445
g55
ag56
ag7
ag8
aa(lp446
g55
ag56
ag10
ag11
aa(lp447
g55
ag56
ag13
ag14
aa(lp448
g55
ag56
ag16
ag17
aa(lp449
g55
ag56
ag19
ag20
aa(lp450
g55
ag56
ag22
ag23
aa(lp451
g55
ag56
ag25
ag26
aa(lp452
g55
ag56
ag28
ag29
aa(lp453
g55
ag56
ag31
ag32
aa(lp454
g55
ag56
ag34
ag35
aa(lp455
g55
ag56
ag37
ag38
aa(lp456
g55
ag56
ag40
ag41
aa(lp457
g55
ag56
ag43
ag44
aa(lp458
g55
ag56
ag46
ag47
aa(lp459
g55
ag56
ag49
ag50
aa(lp460
g55
ag56
ag52
ag53
aa(lp461
g55
ag56
ag58
ag59
aa(lp462
g55
ag56
ag61
ag62
aa(lp463
g55
ag56
ag64
ag65
aa(lp464
g55
ag56
ag67
ag68
aa(lp465
g58
ag59
ag2
ag3
aa(lp466
g58
ag59
ag4
ag5
aa(lp467
g58
ag59
ag7
ag8
aa(lp468
g58
ag59
ag10
ag11
aa(lp469
g58
ag59
ag13
ag14
aa(lp470
g58
ag59
ag16
ag17
aa(lp471
g58
ag59
ag19
ag20
aa(lp472
g58
ag59
ag22
ag23
aa(lp473
g58
ag59
ag25
ag26
aa(lp474
g58
ag59
ag28
ag29
aa(lp475
g58
ag59
ag31
ag32
aa(lp476
g58
ag59
ag34
ag35
aa(lp477
g58
ag59
ag37
ag38
aa(lp478
g58
ag59
ag40
ag41
aa(lp479
g58
ag59
ag43
ag44
aa(lp480
g58
ag59
ag46
ag47
aa(lp481
g58
ag59
ag49
ag50
aa(lp482
g58
ag59
ag52
ag53
aa(lp483
g58
ag59
ag55
ag56
aa(lp484
g58
ag59
ag61
ag62
aa(lp485
g58
ag59
ag64
ag65
aa(lp486
g58
ag59
ag67
ag68
aa(lp487
g61
ag62
ag2
ag3
aa(lp488
g61
ag62
ag4
ag5
aa(lp489
g61
ag62
ag7
ag8
aa(lp490
g61
ag62
ag10
ag11
aa(lp491
g61
ag62
ag13
ag14
aa(lp492
g61
ag62
ag16
ag17
aa(lp493
g61
ag62
ag19
ag20
aa(lp494
g61
ag62
ag22
ag23
aa(lp495
g61
ag62
ag25
ag26
aa(lp496
g61
ag62
ag28
ag29
aa(lp497
g61
ag62
ag31
ag32
aa(lp498
g61
ag62
ag34
ag35
aa(lp499
g61
ag62
ag37
ag38
aa(lp500
g61
ag62
ag40
ag41
aa(lp501
g61
ag62
ag43
ag44
aa(lp502
g61
ag62
ag46
ag47
aa(lp503
g61
ag62
ag49
ag50
aa(lp504
g61
ag62
ag52
ag53
aa(lp505
g61
ag62
ag55
ag56
aa(lp506
g61
ag62
ag58
ag59
aa(lp507
g61
ag62
ag64
ag65
aa(lp508
g61
ag62
ag67
ag68
aa(lp509
g64
ag65
ag2
ag3
aa(lp510
g64
ag65
ag4
ag5
aa(lp511
g64
ag65
ag7
ag8
aa(lp512
g64
ag65
ag10
ag11
aa(lp513
g64
ag65
ag13
ag14
aa(lp514
g64
ag65
ag16
ag17
aa(lp515
g64
ag65
ag19
ag20
aa(lp516
g64
ag65
ag22
ag23
aa(lp517
g64
ag65
ag25
ag26
aa(lp518
g64
ag65
ag28
ag29
aa(lp519
g64
ag65
ag31
ag32
aa(lp520
g64
ag65
ag34
ag35
aa(lp521
g64
ag65
ag37
ag38
aa(lp522
g64
ag65
ag40
ag41
aa(lp523
g64
ag65
ag43
ag44
aa(lp524
g64
ag65
ag46
ag47
aa(lp525
g64
ag65
ag49
ag50
aa(lp526
g64
ag65
ag52
ag53
aa(lp527
g64
ag65
ag55
ag56
aa(lp528
g64
ag65
ag58
ag59
aa(lp529
g64
ag65
ag61
ag62
aa(lp530
g64
ag65
ag67
ag68
aa(lp531
g67
ag68
ag2
ag3
aa(lp532
g67
ag68
ag4
ag5
aa(lp533
g67
ag68
ag7
ag8
aa(lp534
g67
ag68
ag10
ag11
aa(lp535
g67
ag68
ag13
ag14
aa(lp536
g67
ag68
ag16
ag17
aa(lp537
g67
ag68
ag19
ag20
aa(lp538
g67
ag68
ag22
ag23
aa(lp539
g67
ag68
ag25
ag26
aa(lp540
g67
ag68
ag28
ag29
aa(lp541
g67
ag68
ag31
ag32
aa(lp542
g67
ag68
ag34
ag35
aa(lp543
g67
ag68
ag37
ag38
aa(lp544
g67
ag68
ag40
ag41
aa(lp545
g67
ag68
ag43
ag44
aa(lp546
g67
ag68
ag46
ag47
aa(lp547
g67
ag68
ag49
ag50
aa(lp548
g67
ag68
ag52
ag53
aa(lp549
g67
ag68
ag55
ag56
aa(lp550
g67
ag68
ag58
ag59
aa(lp551
g67
ag68
ag61
ag62
aa(lp552
g67
ag68
ag64
ag65
aa.