(lp0
(lp1
S'airport_NN'
p2
aS'car_NN'
p3
aS'park_NN'
p4
aS'bicycle_NN'
p5
aa(lp6
S'airport_NN'
p7
aS'car_NN'
p8
aS'hotel_NN'
p9
aS'taxi_NN'
p10
aa(lp11
S'airport_NN'
p12
aS'car_NN'
p13
aS'hawaii_NN'
p14
aS'airplane_NN'
p15
aa(lp16
S'airport_NN'
p17
aS'car_NN'
p18
aS'island_NN'
p19
aS'boat_NN'
p20
aa(lp21
S'airport_NN'
p22
aS'car_NN'
p23
aS'work_NN'
p24
aS'car_NN'
p25
aa(lp26
S'airport_NN'
p27
aS'car_NN'
p28
aS'school_NN'
p29
aS'bus_NN'
p30
aa(lp31
S'airport_NN'
p32
aS'car_NN'
p33
aS'store_NN'
p34
aS'car_NN'
p35
aa(lp36
S'airport_NN'
p37
aS'car_NN'
p38
aS'spain_NN'
p39
aS'airplane_NN'
p40
aa(lp41
S'airport_NN'
p42
aS'car_NN'
p43
aS'france_NN'
p44
aS'airplane_NN'
p45
aa(lp46
S'airport_NN'
p47
aS'car_NN'
p48
aS'moon_NN'
p49
aS'rocket_NN'
p50
aa(lp51
S'airport_NN'
p52
aS'car_NN'
p53
aS'bermuda_NN'
p54
aS'airplane_NN'
p55
aa(lp56
S'airport_NN'
p57
aS'car_NN'
p58
aS'hospital_NN'
p59
aS'ambulance_NN'
p60
aa(lp61
S'airport_NN'
p62
aS'car_NN'
p63
aS'australia_NNS'
p64
aS'airplane_NN'
p65
aa(lp66
S'airport_NN'
p67
aS'car_NN'
p68
aS'canada_NNP'
p69
aS'car_NN'
p70
aa(lp71
S'airport_NN'
p72
aS'car_NN'
p73
aS'downtown_NN'
p74
aS'subway_NN'
p75
aa(lp76
S'airport_NN'
p77
aS'car_NN'
p78
aS'restaurant_NN'
p79
aS'taxi_NN'
p80
aa(lp81
S'airport_NN'
p82
aS'car_NN'
p83
aS'office_NN'
p84
aS'car_NN'
p85
aa(lp86
S'airport_NN'
p87
aS'car_NN'
p88
aS'mall_NN'
p89
aS'car_NN'
p90
aa(lp91
S'airport_NN'
p92
aS'car_NN'
p93
aS'mainland_NN'
p94
aS'boat_NN'
p95
aa(lp96
S'airport_NN'
p97
aS'car_NN'
p98
aS'portland_NN'
p99
aS'car_NN'
p100
aa(lp101
S'airport_NN'
p102
aS'car_NN'
p103
aS'washington_NN'
p104
aS'train_NN'
p105
aa(lp106
S'airport_NN'
p107
aS'car_NN'
p108
aS'theatre_NN'
p109
aS'limousine_NN'
p110
aa(lp111
S'airport_NN'
p112
aS'car_NN'
p113
aS'cemetery_NN'
p114
aS'hearse_NN'
p115
aa(lp116
S'airport_NN'
p117
aS'car_NN'
p118
aS'museum_NN'
p119
aS'bus_NN'
p120
aa(lp121
S'airport_NN'
p122
aS'car_NN'
p123
aS'mars_NNS'
p124
aS'spaceship_NN'
p125
aa(lp126
S'park_NN'
p127
aS'bicycle_NN'
p128
aS'airport_NN'
p129
aS'car_NN'
p130
aa(lp131
S'park_NN'
p132
aS'bicycle_NN'
p133
aS'hotel_NN'
p134
aS'taxi_NN'
p135
aa(lp136
S'park_NN'
p137
aS'bicycle_NN'
p138
aS'hawaii_NN'
p139
aS'airplane_NN'
p140
aa(lp141
S'park_NN'
p142
aS'bicycle_NN'
p143
aS'island_NN'
p144
aS'boat_NN'
p145
aa(lp146
S'park_NN'
p147
aS'bicycle_NN'
p148
aS'work_NN'
p149
aS'car_NN'
p150
aa(lp151
S'park_NN'
p152
aS'bicycle_NN'
p153
aS'school_NN'
p154
aS'bus_NN'
p155
aa(lp156
S'park_NN'
p157
aS'bicycle_NN'
p158
aS'store_NN'
p159
aS'car_NN'
p160
aa(lp161
S'park_NN'
p162
aS'bicycle_NN'
p163
aS'spain_NN'
p164
aS'airplane_NN'
p165
aa(lp166
S'park_NN'
p167
aS'bicycle_NN'
p168
aS'france_NN'
p169
aS'airplane_NN'
p170
aa(lp171
S'park_NN'
p172
aS'bicycle_NN'
p173
aS'moon_NN'
p174
aS'rocket_NN'
p175
aa(lp176
S'park_NN'
p177
aS'bicycle_NN'
p178
aS'bermuda_NN'
p179
aS'airplane_NN'
p180
aa(lp181
S'park_NN'
p182
aS'bicycle_NN'
p183
aS'hospital_NN'
p184
aS'ambulance_NN'
p185
aa(lp186
S'park_NN'
p187
aS'bicycle_NN'
p188
aS'australia_NNS'
p189
aS'airplane_NN'
p190
aa(lp191
S'park_NN'
p192
aS'bicycle_NN'
p193
aS'canada_NNP'
p194
aS'car_NN'
p195
aa(lp196
S'park_NN'
p197
aS'bicycle_NN'
p198
aS'downtown_NN'
p199
aS'subway_NN'
p200
aa(lp201
S'park_NN'
p202
aS'bicycle_NN'
p203
aS'restaurant_NN'
p204
aS'taxi_NN'
p205
aa(lp206
S'park_NN'
p207
aS'bicycle_NN'
p208
aS'office_NN'
p209
aS'car_NN'
p210
aa(lp211
S'park_NN'
p212
aS'bicycle_NN'
p213
aS'mall_NN'
p214
aS'car_NN'
p215
aa(lp216
S'park_NN'
p217
aS'bicycle_NN'
p218
aS'mainland_NN'
p219
aS'boat_NN'
p220
aa(lp221
S'park_NN'
p222
aS'bicycle_NN'
p223
aS'portland_NN'
p224
aS'car_NN'
p225
aa(lp226
S'park_NN'
p227
aS'bicycle_NN'
p228
aS'washington_NN'
p229
aS'train_NN'
p230
aa(lp231
S'park_NN'
p232
aS'bicycle_NN'
p233
aS'theatre_NN'
p234
aS'limousine_NN'
p235
aa(lp236
S'park_NN'
p237
aS'bicycle_NN'
p238
aS'cemetery_NN'
p239
aS'hearse_NN'
p240
aa(lp241
S'park_NN'
p242
aS'bicycle_NN'
p243
aS'museum_NN'
p244
aS'bus_NN'
p245
aa(lp246
S'park_NN'
p247
aS'bicycle_NN'
p248
aS'mars_NNS'
p249
aS'spaceship_NN'
p250
aa(lp251
S'hotel_NN'
p252
aS'taxi_NN'
p253
aS'airport_NN'
p254
aS'car_NN'
p255
aa(lp256
S'hotel_NN'
p257
aS'taxi_NN'
p258
aS'park_NN'
p259
aS'bicycle_NN'
p260
aa(lp261
S'hotel_NN'
p262
aS'taxi_NN'
p263
aS'hawaii_NN'
p264
aS'airplane_NN'
p265
aa(lp266
S'hotel_NN'
p267
aS'taxi_NN'
p268
aS'island_NN'
p269
aS'boat_NN'
p270
aa(lp271
S'hotel_NN'
p272
aS'taxi_NN'
p273
aS'work_NN'
p274
aS'car_NN'
p275
aa(lp276
S'hotel_NN'
p277
aS'taxi_NN'
p278
aS'school_NN'
p279
aS'bus_NN'
p280
aa(lp281
S'hotel_NN'
p282
aS'taxi_NN'
p283
aS'store_NN'
p284
aS'car_NN'
p285
aa(lp286
S'hotel_NN'
p287
aS'taxi_NN'
p288
aS'spain_NN'
p289
aS'airplane_NN'
p290
aa(lp291
S'hotel_NN'
p292
aS'taxi_NN'
p293
aS'france_NN'
p294
aS'airplane_NN'
p295
aa(lp296
S'hotel_NN'
p297
aS'taxi_NN'
p298
aS'moon_NN'
p299
aS'rocket_NN'
p300
aa(lp301
S'hotel_NN'
p302
aS'taxi_NN'
p303
aS'bermuda_NN'
p304
aS'airplane_NN'
p305
aa(lp306
S'hotel_NN'
p307
aS'taxi_NN'
p308
aS'hospital_NN'
p309
aS'ambulance_NN'
p310
aa(lp311
S'hotel_NN'
p312
aS'taxi_NN'
p313
aS'australia_NNS'
p314
aS'airplane_NN'
p315
aa(lp316
S'hotel_NN'
p317
aS'taxi_NN'
p318
aS'canada_NNP'
p319
aS'car_NN'
p320
aa(lp321
S'hotel_NN'
p322
aS'taxi_NN'
p323
aS'downtown_NN'
p324
aS'subway_NN'
p325
aa(lp326
S'hotel_NN'
p327
aS'taxi_NN'
p328
aS'restaurant_NN'
p329
aS'taxi_NN'
p330
aa(lp331
S'hotel_NN'
p332
aS'taxi_NN'
p333
aS'office_NN'
p334
aS'car_NN'
p335
aa(lp336
S'hotel_NN'
p337
aS'taxi_NN'
p338
aS'mall_NN'
p339
aS'car_NN'
p340
aa(lp341
S'hotel_NN'
p342
aS'taxi_NN'
p343
aS'mainland_NN'
p344
aS'boat_NN'
p345
aa(lp346
S'hotel_NN'
p347
aS'taxi_NN'
p348
aS'portland_NN'
p349
aS'car_NN'
p350
aa(lp351
S'hotel_NN'
p352
aS'taxi_NN'
p353
aS'washington_NN'
p354
aS'train_NN'
p355
aa(lp356
S'hotel_NN'
p357
aS'taxi_NN'
p358
aS'theatre_NN'
p359
aS'limousine_NN'
p360
aa(lp361
S'hotel_NN'
p362
aS'taxi_NN'
p363
aS'cemetery_NN'
p364
aS'hearse_NN'
p365
aa(lp366
S'hotel_NN'
p367
aS'taxi_NN'
p368
aS'museum_NN'
p369
aS'bus_NN'
p370
aa(lp371
S'hotel_NN'
p372
aS'taxi_NN'
p373
aS'mars_NNS'
p374
aS'spaceship_NN'
p375
aa(lp376
S'hawaii_NN'
p377
aS'airplane_NN'
p378
aS'airport_NN'
p379
aS'car_NN'
p380
aa(lp381
S'hawaii_NN'
p382
aS'airplane_NN'
p383
aS'park_NN'
p384
aS'bicycle_NN'
p385
aa(lp386
S'hawaii_NN'
p387
aS'airplane_NN'
p388
aS'hotel_NN'
p389
aS'taxi_NN'
p390
aa(lp391
S'hawaii_NN'
p392
aS'airplane_NN'
p393
aS'island_NN'
p394
aS'boat_NN'
p395
aa(lp396
S'hawaii_NN'
p397
aS'airplane_NN'
p398
aS'work_NN'
p399
aS'car_NN'
p400
aa(lp401
S'hawaii_NN'
p402
aS'airplane_NN'
p403
aS'school_NN'
p404
aS'bus_NN'
p405
aa(lp406
S'hawaii_NN'
p407
aS'airplane_NN'
p408
aS'store_NN'
p409
aS'car_NN'
p410
aa(lp411
S'hawaii_NN'
p412
aS'airplane_NN'
p413
aS'spain_NN'
p414
aS'airplane_NN'
p415
aa(lp416
S'hawaii_NN'
p417
aS'airplane_NN'
p418
aS'france_NN'
p419
aS'airplane_NN'
p420
aa(lp421
S'hawaii_NN'
p422
aS'airplane_NN'
p423
aS'moon_NN'
p424
aS'rocket_NN'
p425
aa(lp426
S'hawaii_NN'
p427
aS'airplane_NN'
p428
aS'bermuda_NN'
p429
aS'airplane_NN'
p430
aa(lp431
S'hawaii_NN'
p432
aS'airplane_NN'
p433
aS'hospital_NN'
p434
aS'ambulance_NN'
p435
aa(lp436
S'hawaii_NN'
p437
aS'airplane_NN'
p438
aS'australia_NNS'
p439
aS'airplane_NN'
p440
aa(lp441
S'hawaii_NN'
p442
aS'airplane_NN'
p443
aS'canada_NNP'
p444
aS'car_NN'
p445
aa(lp446
S'hawaii_NN'
p447
aS'airplane_NN'
p448
aS'downtown_NN'
p449
aS'subway_NN'
p450
aa(lp451
S'hawaii_NN'
p452
aS'airplane_NN'
p453
aS'restaurant_NN'
p454
aS'taxi_NN'
p455
aa(lp456
S'hawaii_NN'
p457
aS'airplane_NN'
p458
aS'office_NN'
p459
aS'car_NN'
p460
aa(lp461
S'hawaii_NN'
p462
aS'airplane_NN'
p463
aS'mall_NN'
p464
aS'car_NN'
p465
aa(lp466
S'hawaii_NN'
p467
aS'airplane_NN'
p468
aS'mainland_NN'
p469
aS'boat_NN'
p470
aa(lp471
S'hawaii_NN'
p472
aS'airplane_NN'
p473
aS'portland_NN'
p474
aS'car_NN'
p475
aa(lp476
S'hawaii_NN'
p477
aS'airplane_NN'
p478
aS'washington_NN'
p479
aS'train_NN'
p480
aa(lp481
S'hawaii_NN'
p482
aS'airplane_NN'
p483
aS'theatre_NN'
p484
aS'limousine_NN'
p485
aa(lp486
S'hawaii_NN'
p487
aS'airplane_NN'
p488
aS'cemetery_NN'
p489
aS'hearse_NN'
p490
aa(lp491
S'hawaii_NN'
p492
aS'airplane_NN'
p493
aS'museum_NN'
p494
aS'bus_NN'
p495
aa(lp496
S'hawaii_NN'
p497
aS'airplane_NN'
p498
aS'mars_NNS'
p499
aS'spaceship_NN'
p500
aa(lp501
S'island_NN'
p502
aS'boat_NN'
p503
aS'airport_NN'
p504
aS'car_NN'
p505
aa(lp506
S'island_NN'
p507
aS'boat_NN'
p508
aS'park_NN'
p509
aS'bicycle_NN'
p510
aa(lp511
S'island_NN'
p512
aS'boat_NN'
p513
aS'hotel_NN'
p514
aS'taxi_NN'
p515
aa(lp516
S'island_NN'
p517
aS'boat_NN'
p518
aS'hawaii_NN'
p519
aS'airplane_NN'
p520
aa(lp521
S'island_NN'
p522
aS'boat_NN'
p523
aS'work_NN'
p524
aS'car_NN'
p525
aa(lp526
S'island_NN'
p527
aS'boat_NN'
p528
aS'school_NN'
p529
aS'bus_NN'
p530
aa(lp531
S'island_NN'
p532
aS'boat_NN'
p533
aS'store_NN'
p534
aS'car_NN'
p535
aa(lp536
S'island_NN'
p537
aS'boat_NN'
p538
aS'spain_NN'
p539
aS'airplane_NN'
p540
aa(lp541
S'island_NN'
p542
aS'boat_NN'
p543
aS'france_NN'
p544
aS'airplane_NN'
p545
aa(lp546
S'island_NN'
p547
aS'boat_NN'
p548
aS'moon_NN'
p549
aS'rocket_NN'
p550
aa(lp551
S'island_NN'
p552
aS'boat_NN'
p553
aS'bermuda_NN'
p554
aS'airplane_NN'
p555
aa(lp556
S'island_NN'
p557
aS'boat_NN'
p558
aS'hospital_NN'
p559
aS'ambulance_NN'
p560
aa(lp561
S'island_NN'
p562
aS'boat_NN'
p563
aS'australia_NNS'
p564
aS'airplane_NN'
p565
aa(lp566
S'island_NN'
p567
aS'boat_NN'
p568
aS'canada_NNP'
p569
aS'car_NN'
p570
aa(lp571
S'island_NN'
p572
aS'boat_NN'
p573
aS'downtown_NN'
p574
aS'subway_NN'
p575
aa(lp576
S'island_NN'
p577
aS'boat_NN'
p578
aS'restaurant_NN'
p579
aS'taxi_NN'
p580
aa(lp581
S'island_NN'
p582
aS'boat_NN'
p583
aS'office_NN'
p584
aS'car_NN'
p585
aa(lp586
S'island_NN'
p587
aS'boat_NN'
p588
aS'mall_NN'
p589
aS'car_NN'
p590
aa(lp591
S'island_NN'
p592
aS'boat_NN'
p593
aS'mainland_NN'
p594
aS'boat_NN'
p595
aa(lp596
S'island_NN'
p597
aS'boat_NN'
p598
aS'portland_NN'
p599
aS'car_NN'
p600
aa(lp601
S'island_NN'
p602
aS'boat_NN'
p603
aS'washington_NN'
p604
aS'train_NN'
p605
aa(lp606
S'island_NN'
p607
aS'boat_NN'
p608
aS'theatre_NN'
p609
aS'limousine_NN'
p610
aa(lp611
S'island_NN'
p612
aS'boat_NN'
p613
aS'cemetery_NN'
p614
aS'hearse_NN'
p615
aa(lp616
S'island_NN'
p617
aS'boat_NN'
p618
aS'museum_NN'
p619
aS'bus_NN'
p620
aa(lp621
S'island_NN'
p622
aS'boat_NN'
p623
aS'mars_NNS'
p624
aS'spaceship_NN'
p625
aa(lp626
S'work_NN'
p627
aS'car_NN'
p628
aS'airport_NN'
p629
aS'car_NN'
p630
aa(lp631
S'work_NN'
p632
aS'car_NN'
p633
aS'park_NN'
p634
aS'bicycle_NN'
p635
aa(lp636
S'work_NN'
p637
aS'car_NN'
p638
aS'hotel_NN'
p639
aS'taxi_NN'
p640
aa(lp641
S'work_NN'
p642
aS'car_NN'
p643
aS'hawaii_NN'
p644
aS'airplane_NN'
p645
aa(lp646
S'work_NN'
p647
aS'car_NN'
p648
aS'island_NN'
p649
aS'boat_NN'
p650
aa(lp651
S'work_NN'
p652
aS'car_NN'
p653
aS'school_NN'
p654
aS'bus_NN'
p655
aa(lp656
S'work_NN'
p657
aS'car_NN'
p658
aS'store_NN'
p659
aS'car_NN'
p660
aa(lp661
S'work_NN'
p662
aS'car_NN'
p663
aS'spain_NN'
p664
aS'airplane_NN'
p665
aa(lp666
S'work_NN'
p667
aS'car_NN'
p668
aS'france_NN'
p669
aS'airplane_NN'
p670
aa(lp671
S'work_NN'
p672
aS'car_NN'
p673
aS'moon_NN'
p674
aS'rocket_NN'
p675
aa(lp676
S'work_NN'
p677
aS'car_NN'
p678
aS'bermuda_NN'
p679
aS'airplane_NN'
p680
aa(lp681
S'work_NN'
p682
aS'car_NN'
p683
aS'hospital_NN'
p684
aS'ambulance_NN'
p685
aa(lp686
S'work_NN'
p687
aS'car_NN'
p688
aS'australia_NNS'
p689
aS'airplane_NN'
p690
aa(lp691
S'work_NN'
p692
aS'car_NN'
p693
aS'canada_NNP'
p694
aS'car_NN'
p695
aa(lp696
S'work_NN'
p697
aS'car_NN'
p698
aS'downtown_NN'
p699
aS'subway_NN'
p700
aa(lp701
S'work_NN'
p702
aS'car_NN'
p703
aS'restaurant_NN'
p704
aS'taxi_NN'
p705
aa(lp706
S'work_NN'
p707
aS'car_NN'
p708
aS'office_NN'
p709
aS'car_NN'
p710
aa(lp711
S'work_NN'
p712
aS'car_NN'
p713
aS'mall_NN'
p714
aS'car_NN'
p715
aa(lp716
S'work_NN'
p717
aS'car_NN'
p718
aS'mainland_NN'
p719
aS'boat_NN'
p720
aa(lp721
S'work_NN'
p722
aS'car_NN'
p723
aS'portland_NN'
p724
aS'car_NN'
p725
aa(lp726
S'work_NN'
p727
aS'car_NN'
p728
aS'washington_NN'
p729
aS'train_NN'
p730
aa(lp731
S'work_NN'
p732
aS'car_NN'
p733
aS'theatre_NN'
p734
aS'limousine_NN'
p735
aa(lp736
S'work_NN'
p737
aS'car_NN'
p738
aS'cemetery_NN'
p739
aS'hearse_NN'
p740
aa(lp741
S'work_NN'
p742
aS'car_NN'
p743
aS'museum_NN'
p744
aS'bus_NN'
p745
aa(lp746
S'work_NN'
p747
aS'car_NN'
p748
aS'mars_NNS'
p749
aS'spaceship_NN'
p750
aa(lp751
S'school_NN'
p752
aS'bus_NN'
p753
aS'airport_NN'
p754
aS'car_NN'
p755
aa(lp756
S'school_NN'
p757
aS'bus_NN'
p758
aS'park_NN'
p759
aS'bicycle_NN'
p760
aa(lp761
S'school_NN'
p762
aS'bus_NN'
p763
aS'hotel_NN'
p764
aS'taxi_NN'
p765
aa(lp766
S'school_NN'
p767
aS'bus_NN'
p768
aS'hawaii_NN'
p769
aS'airplane_NN'
p770
aa(lp771
S'school_NN'
p772
aS'bus_NN'
p773
aS'island_NN'
p774
aS'boat_NN'
p775
aa(lp776
S'school_NN'
p777
aS'bus_NN'
p778
aS'work_NN'
p779
aS'car_NN'
p780
aa(lp781
S'school_NN'
p782
aS'bus_NN'
p783
aS'store_NN'
p784
aS'car_NN'
p785
aa(lp786
S'school_NN'
p787
aS'bus_NN'
p788
aS'spain_NN'
p789
aS'airplane_NN'
p790
aa(lp791
S'school_NN'
p792
aS'bus_NN'
p793
aS'france_NN'
p794
aS'airplane_NN'
p795
aa(lp796
S'school_NN'
p797
aS'bus_NN'
p798
aS'moon_NN'
p799
aS'rocket_NN'
p800
aa(lp801
S'school_NN'
p802
aS'bus_NN'
p803
aS'bermuda_NN'
p804
aS'airplane_NN'
p805
aa(lp806
S'school_NN'
p807
aS'bus_NN'
p808
aS'hospital_NN'
p809
aS'ambulance_NN'
p810
aa(lp811
S'school_NN'
p812
aS'bus_NN'
p813
aS'australia_NNS'
p814
aS'airplane_NN'
p815
aa(lp816
S'school_NN'
p817
aS'bus_NN'
p818
aS'canada_NNP'
p819
aS'car_NN'
p820
aa(lp821
S'school_NN'
p822
aS'bus_NN'
p823
aS'downtown_NN'
p824
aS'subway_NN'
p825
aa(lp826
S'school_NN'
p827
aS'bus_NN'
p828
aS'restaurant_NN'
p829
aS'taxi_NN'
p830
aa(lp831
S'school_NN'
p832
aS'bus_NN'
p833
aS'office_NN'
p834
aS'car_NN'
p835
aa(lp836
S'school_NN'
p837
aS'bus_NN'
p838
aS'mall_NN'
p839
aS'car_NN'
p840
aa(lp841
S'school_NN'
p842
aS'bus_NN'
p843
aS'mainland_NN'
p844
aS'boat_NN'
p845
aa(lp846
S'school_NN'
p847
aS'bus_NN'
p848
aS'portland_NN'
p849
aS'car_NN'
p850
aa(lp851
S'school_NN'
p852
aS'bus_NN'
p853
aS'washington_NN'
p854
aS'train_NN'
p855
aa(lp856
S'school_NN'
p857
aS'bus_NN'
p858
aS'theatre_NN'
p859
aS'limousine_NN'
p860
aa(lp861
S'school_NN'
p862
aS'bus_NN'
p863
aS'cemetery_NN'
p864
aS'hearse_NN'
p865
aa(lp866
S'school_NN'
p867
aS'bus_NN'
p868
aS'museum_NN'
p869
aS'bus_NN'
p870
aa(lp871
S'school_NN'
p872
aS'bus_NN'
p873
aS'mars_NNS'
p874
aS'spaceship_NN'
p875
aa(lp876
S'store_NN'
p877
aS'car_NN'
p878
aS'airport_NN'
p879
aS'car_NN'
p880
aa(lp881
S'store_NN'
p882
aS'car_NN'
p883
aS'park_NN'
p884
aS'bicycle_NN'
p885
aa(lp886
S'store_NN'
p887
aS'car_NN'
p888
aS'hotel_NN'
p889
aS'taxi_NN'
p890
aa(lp891
S'store_NN'
p892
aS'car_NN'
p893
aS'hawaii_NN'
p894
aS'airplane_NN'
p895
aa(lp896
S'store_NN'
p897
aS'car_NN'
p898
aS'island_NN'
p899
aS'boat_NN'
p900
aa(lp901
S'store_NN'
p902
aS'car_NN'
p903
aS'work_NN'
p904
aS'car_NN'
p905
aa(lp906
S'store_NN'
p907
aS'car_NN'
p908
aS'school_NN'
p909
aS'bus_NN'
p910
aa(lp911
S'store_NN'
p912
aS'car_NN'
p913
aS'spain_NN'
p914
aS'airplane_NN'
p915
aa(lp916
S'store_NN'
p917
aS'car_NN'
p918
aS'france_NN'
p919
aS'airplane_NN'
p920
aa(lp921
S'store_NN'
p922
aS'car_NN'
p923
aS'moon_NN'
p924
aS'rocket_NN'
p925
aa(lp926
S'store_NN'
p927
aS'car_NN'
p928
aS'bermuda_NN'
p929
aS'airplane_NN'
p930
aa(lp931
S'store_NN'
p932
aS'car_NN'
p933
aS'hospital_NN'
p934
aS'ambulance_NN'
p935
aa(lp936
S'store_NN'
p937
aS'car_NN'
p938
aS'australia_NNS'
p939
aS'airplane_NN'
p940
aa(lp941
S'store_NN'
p942
aS'car_NN'
p943
aS'canada_NNP'
p944
aS'car_NN'
p945
aa(lp946
S'store_NN'
p947
aS'car_NN'
p948
aS'downtown_NN'
p949
aS'subway_NN'
p950
aa(lp951
S'store_NN'
p952
aS'car_NN'
p953
aS'restaurant_NN'
p954
aS'taxi_NN'
p955
aa(lp956
S'store_NN'
p957
aS'car_NN'
p958
aS'office_NN'
p959
aS'car_NN'
p960
aa(lp961
S'store_NN'
p962
aS'car_NN'
p963
aS'mall_NN'
p964
aS'car_NN'
p965
aa(lp966
S'store_NN'
p967
aS'car_NN'
p968
aS'mainland_NN'
p969
aS'boat_NN'
p970
aa(lp971
S'store_NN'
p972
aS'car_NN'
p973
aS'portland_NN'
p974
aS'car_NN'
p975
aa(lp976
S'store_NN'
p977
aS'car_NN'
p978
aS'washington_NN'
p979
aS'train_NN'
p980
aa(lp981
S'store_NN'
p982
aS'car_NN'
p983
aS'theatre_NN'
p984
aS'limousine_NN'
p985
aa(lp986
S'store_NN'
p987
aS'car_NN'
p988
aS'cemetery_NN'
p989
aS'hearse_NN'
p990
aa(lp991
S'store_NN'
p992
aS'car_NN'
p993
aS'museum_NN'
p994
aS'bus_NN'
p995
aa(lp996
S'store_NN'
p997
aS'car_NN'
p998
aS'mars_NNS'
p999
aS'spaceship_NN'
p1000
aa(lp1001
S'spain_NN'
p1002
aS'airplane_NN'
p1003
aS'airport_NN'
p1004
aS'car_NN'
p1005
aa(lp1006
S'spain_NN'
p1007
aS'airplane_NN'
p1008
aS'park_NN'
p1009
aS'bicycle_NN'
p1010
aa(lp1011
S'spain_NN'
p1012
aS'airplane_NN'
p1013
aS'hotel_NN'
p1014
aS'taxi_NN'
p1015
aa(lp1016
S'spain_NN'
p1017
aS'airplane_NN'
p1018
aS'hawaii_NN'
p1019
aS'airplane_NN'
p1020
aa(lp1021
S'spain_NN'
p1022
aS'airplane_NN'
p1023
aS'island_NN'
p1024
aS'boat_NN'
p1025
aa(lp1026
S'spain_NN'
p1027
aS'airplane_NN'
p1028
aS'work_NN'
p1029
aS'car_NN'
p1030
aa(lp1031
S'spain_NN'
p1032
aS'airplane_NN'
p1033
aS'school_NN'
p1034
aS'bus_NN'
p1035
aa(lp1036
S'spain_NN'
p1037
aS'airplane_NN'
p1038
aS'store_NN'
p1039
aS'car_NN'
p1040
aa(lp1041
S'spain_NN'
p1042
aS'airplane_NN'
p1043
aS'france_NN'
p1044
aS'airplane_NN'
p1045
aa(lp1046
S'spain_NN'
p1047
aS'airplane_NN'
p1048
aS'moon_NN'
p1049
aS'rocket_NN'
p1050
aa(lp1051
S'spain_NN'
p1052
aS'airplane_NN'
p1053
aS'bermuda_NN'
p1054
aS'airplane_NN'
p1055
aa(lp1056
S'spain_NN'
p1057
aS'airplane_NN'
p1058
aS'hospital_NN'
p1059
aS'ambulance_NN'
p1060
aa(lp1061
S'spain_NN'
p1062
aS'airplane_NN'
p1063
aS'australia_NNS'
p1064
aS'airplane_NN'
p1065
aa(lp1066
S'spain_NN'
p1067
aS'airplane_NN'
p1068
aS'canada_NNP'
p1069
aS'car_NN'
p1070
aa(lp1071
S'spain_NN'
p1072
aS'airplane_NN'
p1073
aS'downtown_NN'
p1074
aS'subway_NN'
p1075
aa(lp1076
S'spain_NN'
p1077
aS'airplane_NN'
p1078
aS'restaurant_NN'
p1079
aS'taxi_NN'
p1080
aa(lp1081
S'spain_NN'
p1082
aS'airplane_NN'
p1083
aS'office_NN'
p1084
aS'car_NN'
p1085
aa(lp1086
S'spain_NN'
p1087
aS'airplane_NN'
p1088
aS'mall_NN'
p1089
aS'car_NN'
p1090
aa(lp1091
S'spain_NN'
p1092
aS'airplane_NN'
p1093
aS'mainland_NN'
p1094
aS'boat_NN'
p1095
aa(lp1096
S'spain_NN'
p1097
aS'airplane_NN'
p1098
aS'portland_NN'
p1099
aS'car_NN'
p1100
aa(lp1101
S'spain_NN'
p1102
aS'airplane_NN'
p1103
aS'washington_NN'
p1104
aS'train_NN'
p1105
aa(lp1106
S'spain_NN'
p1107
aS'airplane_NN'
p1108
aS'theatre_NN'
p1109
aS'limousine_NN'
p1110
aa(lp1111
S'spain_NN'
p1112
aS'airplane_NN'
p1113
aS'cemetery_NN'
p1114
aS'hearse_NN'
p1115
aa(lp1116
S'spain_NN'
p1117
aS'airplane_NN'
p1118
aS'museum_NN'
p1119
aS'bus_NN'
p1120
aa(lp1121
S'spain_NN'
p1122
aS'airplane_NN'
p1123
aS'mars_NNS'
p1124
aS'spaceship_NN'
p1125
aa(lp1126
S'france_NN'
p1127
aS'airplane_NN'
p1128
aS'airport_NN'
p1129
aS'car_NN'
p1130
aa(lp1131
S'france_NN'
p1132
aS'airplane_NN'
p1133
aS'park_NN'
p1134
aS'bicycle_NN'
p1135
aa(lp1136
S'france_NN'
p1137
aS'airplane_NN'
p1138
aS'hotel_NN'
p1139
aS'taxi_NN'
p1140
aa(lp1141
S'france_NN'
p1142
aS'airplane_NN'
p1143
aS'hawaii_NN'
p1144
aS'airplane_NN'
p1145
aa(lp1146
S'france_NN'
p1147
aS'airplane_NN'
p1148
aS'island_NN'
p1149
aS'boat_NN'
p1150
aa(lp1151
S'france_NN'
p1152
aS'airplane_NN'
p1153
aS'work_NN'
p1154
aS'car_NN'
p1155
aa(lp1156
S'france_NN'
p1157
aS'airplane_NN'
p1158
aS'school_NN'
p1159
aS'bus_NN'
p1160
aa(lp1161
S'france_NN'
p1162
aS'airplane_NN'
p1163
aS'store_NN'
p1164
aS'car_NN'
p1165
aa(lp1166
S'france_NN'
p1167
aS'airplane_NN'
p1168
aS'spain_NN'
p1169
aS'airplane_NN'
p1170
aa(lp1171
S'france_NN'
p1172
aS'airplane_NN'
p1173
aS'moon_NN'
p1174
aS'rocket_NN'
p1175
aa(lp1176
S'france_NN'
p1177
aS'airplane_NN'
p1178
aS'bermuda_NN'
p1179
aS'airplane_NN'
p1180
aa(lp1181
S'france_NN'
p1182
aS'airplane_NN'
p1183
aS'hospital_NN'
p1184
aS'ambulance_NN'
p1185
aa(lp1186
S'france_NN'
p1187
aS'airplane_NN'
p1188
aS'australia_NNS'
p1189
aS'airplane_NN'
p1190
aa(lp1191
S'france_NN'
p1192
aS'airplane_NN'
p1193
aS'canada_NNP'
p1194
aS'car_NN'
p1195
aa(lp1196
S'france_NN'
p1197
aS'airplane_NN'
p1198
aS'downtown_NN'
p1199
aS'subway_NN'
p1200
aa(lp1201
S'france_NN'
p1202
aS'airplane_NN'
p1203
aS'restaurant_NN'
p1204
aS'taxi_NN'
p1205
aa(lp1206
S'france_NN'
p1207
aS'airplane_NN'
p1208
aS'office_NN'
p1209
aS'car_NN'
p1210
aa(lp1211
S'france_NN'
p1212
aS'airplane_NN'
p1213
aS'mall_NN'
p1214
aS'car_NN'
p1215
aa(lp1216
S'france_NN'
p1217
aS'airplane_NN'
p1218
aS'mainland_NN'
p1219
aS'boat_NN'
p1220
aa(lp1221
S'france_NN'
p1222
aS'airplane_NN'
p1223
aS'portland_NN'
p1224
aS'car_NN'
p1225
aa(lp1226
S'france_NN'
p1227
aS'airplane_NN'
p1228
aS'washington_NN'
p1229
aS'train_NN'
p1230
aa(lp1231
S'france_NN'
p1232
aS'airplane_NN'
p1233
aS'theatre_NN'
p1234
aS'limousine_NN'
p1235
aa(lp1236
S'france_NN'
p1237
aS'airplane_NN'
p1238
aS'cemetery_NN'
p1239
aS'hearse_NN'
p1240
aa(lp1241
S'france_NN'
p1242
aS'airplane_NN'
p1243
aS'museum_NN'
p1244
aS'bus_NN'
p1245
aa(lp1246
S'france_NN'
p1247
aS'airplane_NN'
p1248
aS'mars_NNS'
p1249
aS'spaceship_NN'
p1250
aa(lp1251
S'moon_NN'
p1252
aS'rocket_NN'
p1253
aS'airport_NN'
p1254
aS'car_NN'
p1255
aa(lp1256
S'moon_NN'
p1257
aS'rocket_NN'
p1258
aS'park_NN'
p1259
aS'bicycle_NN'
p1260
aa(lp1261
S'moon_NN'
p1262
aS'rocket_NN'
p1263
aS'hotel_NN'
p1264
aS'taxi_NN'
p1265
aa(lp1266
S'moon_NN'
p1267
aS'rocket_NN'
p1268
aS'hawaii_NN'
p1269
aS'airplane_NN'
p1270
aa(lp1271
S'moon_NN'
p1272
aS'rocket_NN'
p1273
aS'island_NN'
p1274
aS'boat_NN'
p1275
aa(lp1276
S'moon_NN'
p1277
aS'rocket_NN'
p1278
aS'work_NN'
p1279
aS'car_NN'
p1280
aa(lp1281
S'moon_NN'
p1282
aS'rocket_NN'
p1283
aS'school_NN'
p1284
aS'bus_NN'
p1285
aa(lp1286
S'moon_NN'
p1287
aS'rocket_NN'
p1288
aS'store_NN'
p1289
aS'car_NN'
p1290
aa(lp1291
S'moon_NN'
p1292
aS'rocket_NN'
p1293
aS'spain_NN'
p1294
aS'airplane_NN'
p1295
aa(lp1296
S'moon_NN'
p1297
aS'rocket_NN'
p1298
aS'france_NN'
p1299
aS'airplane_NN'
p1300
aa(lp1301
S'moon_NN'
p1302
aS'rocket_NN'
p1303
aS'bermuda_NN'
p1304
aS'airplane_NN'
p1305
aa(lp1306
S'moon_NN'
p1307
aS'rocket_NN'
p1308
aS'hospital_NN'
p1309
aS'ambulance_NN'
p1310
aa(lp1311
S'moon_NN'
p1312
aS'rocket_NN'
p1313
aS'australia_NNS'
p1314
aS'airplane_NN'
p1315
aa(lp1316
S'moon_NN'
p1317
aS'rocket_NN'
p1318
aS'canada_NNP'
p1319
aS'car_NN'
p1320
aa(lp1321
S'moon_NN'
p1322
aS'rocket_NN'
p1323
aS'downtown_NN'
p1324
aS'subway_NN'
p1325
aa(lp1326
S'moon_NN'
p1327
aS'rocket_NN'
p1328
aS'restaurant_NN'
p1329
aS'taxi_NN'
p1330
aa(lp1331
S'moon_NN'
p1332
aS'rocket_NN'
p1333
aS'office_NN'
p1334
aS'car_NN'
p1335
aa(lp1336
S'moon_NN'
p1337
aS'rocket_NN'
p1338
aS'mall_NN'
p1339
aS'car_NN'
p1340
aa(lp1341
S'moon_NN'
p1342
aS'rocket_NN'
p1343
aS'mainland_NN'
p1344
aS'boat_NN'
p1345
aa(lp1346
S'moon_NN'
p1347
aS'rocket_NN'
p1348
aS'portland_NN'
p1349
aS'car_NN'
p1350
aa(lp1351
S'moon_NN'
p1352
aS'rocket_NN'
p1353
aS'washington_NN'
p1354
aS'train_NN'
p1355
aa(lp1356
S'moon_NN'
p1357
aS'rocket_NN'
p1358
aS'theatre_NN'
p1359
aS'limousine_NN'
p1360
aa(lp1361
S'moon_NN'
p1362
aS'rocket_NN'
p1363
aS'cemetery_NN'
p1364
aS'hearse_NN'
p1365
aa(lp1366
S'moon_NN'
p1367
aS'rocket_NN'
p1368
aS'museum_NN'
p1369
aS'bus_NN'
p1370
aa(lp1371
S'moon_NN'
p1372
aS'rocket_NN'
p1373
aS'mars_NNS'
p1374
aS'spaceship_NN'
p1375
aa(lp1376
S'bermuda_NN'
p1377
aS'airplane_NN'
p1378
aS'airport_NN'
p1379
aS'car_NN'
p1380
aa(lp1381
S'bermuda_NN'
p1382
aS'airplane_NN'
p1383
aS'park_NN'
p1384
aS'bicycle_NN'
p1385
aa(lp1386
S'bermuda_NN'
p1387
aS'airplane_NN'
p1388
aS'hotel_NN'
p1389
aS'taxi_NN'
p1390
aa(lp1391
S'bermuda_NN'
p1392
aS'airplane_NN'
p1393
aS'hawaii_NN'
p1394
aS'airplane_NN'
p1395
aa(lp1396
S'bermuda_NN'
p1397
aS'airplane_NN'
p1398
aS'island_NN'
p1399
aS'boat_NN'
p1400
aa(lp1401
S'bermuda_NN'
p1402
aS'airplane_NN'
p1403
aS'work_NN'
p1404
aS'car_NN'
p1405
aa(lp1406
S'bermuda_NN'
p1407
aS'airplane_NN'
p1408
aS'school_NN'
p1409
aS'bus_NN'
p1410
aa(lp1411
S'bermuda_NN'
p1412
aS'airplane_NN'
p1413
aS'store_NN'
p1414
aS'car_NN'
p1415
aa(lp1416
S'bermuda_NN'
p1417
aS'airplane_NN'
p1418
aS'spain_NN'
p1419
aS'airplane_NN'
p1420
aa(lp1421
S'bermuda_NN'
p1422
aS'airplane_NN'
p1423
aS'france_NN'
p1424
aS'airplane_NN'
p1425
aa(lp1426
S'bermuda_NN'
p1427
aS'airplane_NN'
p1428
aS'moon_NN'
p1429
aS'rocket_NN'
p1430
aa(lp1431
S'bermuda_NN'
p1432
aS'airplane_NN'
p1433
aS'hospital_NN'
p1434
aS'ambulance_NN'
p1435
aa(lp1436
S'bermuda_NN'
p1437
aS'airplane_NN'
p1438
aS'australia_NNS'
p1439
aS'airplane_NN'
p1440
aa(lp1441
S'bermuda_NN'
p1442
aS'airplane_NN'
p1443
aS'canada_NNP'
p1444
aS'car_NN'
p1445
aa(lp1446
S'bermuda_NN'
p1447
aS'airplane_NN'
p1448
aS'downtown_NN'
p1449
aS'subway_NN'
p1450
aa(lp1451
S'bermuda_NN'
p1452
aS'airplane_NN'
p1453
aS'restaurant_NN'
p1454
aS'taxi_NN'
p1455
aa(lp1456
S'bermuda_NN'
p1457
aS'airplane_NN'
p1458
aS'office_NN'
p1459
aS'car_NN'
p1460
aa(lp1461
S'bermuda_NN'
p1462
aS'airplane_NN'
p1463
aS'mall_NN'
p1464
aS'car_NN'
p1465
aa(lp1466
S'bermuda_NN'
p1467
aS'airplane_NN'
p1468
aS'mainland_NN'
p1469
aS'boat_NN'
p1470
aa(lp1471
S'bermuda_NN'
p1472
aS'airplane_NN'
p1473
aS'portland_NN'
p1474
aS'car_NN'
p1475
aa(lp1476
S'bermuda_NN'
p1477
aS'airplane_NN'
p1478
aS'washington_NN'
p1479
aS'train_NN'
p1480
aa(lp1481
S'bermuda_NN'
p1482
aS'airplane_NN'
p1483
aS'theatre_NN'
p1484
aS'limousine_NN'
p1485
aa(lp1486
S'bermuda_NN'
p1487
aS'airplane_NN'
p1488
aS'cemetery_NN'
p1489
aS'hearse_NN'
p1490
aa(lp1491
S'bermuda_NN'
p1492
aS'airplane_NN'
p1493
aS'museum_NN'
p1494
aS'bus_NN'
p1495
aa(lp1496
S'bermuda_NN'
p1497
aS'airplane_NN'
p1498
aS'mars_NNS'
p1499
aS'spaceship_NN'
p1500
aa(lp1501
S'hospital_NN'
p1502
aS'ambulance_NN'
p1503
aS'airport_NN'
p1504
aS'car_NN'
p1505
aa(lp1506
S'hospital_NN'
p1507
aS'ambulance_NN'
p1508
aS'park_NN'
p1509
aS'bicycle_NN'
p1510
aa(lp1511
S'hospital_NN'
p1512
aS'ambulance_NN'
p1513
aS'hotel_NN'
p1514
aS'taxi_NN'
p1515
aa(lp1516
S'hospital_NN'
p1517
aS'ambulance_NN'
p1518
aS'hawaii_NN'
p1519
aS'airplane_NN'
p1520
aa(lp1521
S'hospital_NN'
p1522
aS'ambulance_NN'
p1523
aS'island_NN'
p1524
aS'boat_NN'
p1525
aa(lp1526
S'hospital_NN'
p1527
aS'ambulance_NN'
p1528
aS'work_NN'
p1529
aS'car_NN'
p1530
aa(lp1531
S'hospital_NN'
p1532
aS'ambulance_NN'
p1533
aS'school_NN'
p1534
aS'bus_NN'
p1535
aa(lp1536
S'hospital_NN'
p1537
aS'ambulance_NN'
p1538
aS'store_NN'
p1539
aS'car_NN'
p1540
aa(lp1541
S'hospital_NN'
p1542
aS'ambulance_NN'
p1543
aS'spain_NN'
p1544
aS'airplane_NN'
p1545
aa(lp1546
S'hospital_NN'
p1547
aS'ambulance_NN'
p1548
aS'france_NN'
p1549
aS'airplane_NN'
p1550
aa(lp1551
S'hospital_NN'
p1552
aS'ambulance_NN'
p1553
aS'moon_NN'
p1554
aS'rocket_NN'
p1555
aa(lp1556
S'hospital_NN'
p1557
aS'ambulance_NN'
p1558
aS'bermuda_NN'
p1559
aS'airplane_NN'
p1560
aa(lp1561
S'hospital_NN'
p1562
aS'ambulance_NN'
p1563
aS'australia_NNS'
p1564
aS'airplane_NN'
p1565
aa(lp1566
S'hospital_NN'
p1567
aS'ambulance_NN'
p1568
aS'canada_NNP'
p1569
aS'car_NN'
p1570
aa(lp1571
S'hospital_NN'
p1572
aS'ambulance_NN'
p1573
aS'downtown_NN'
p1574
aS'subway_NN'
p1575
aa(lp1576
S'hospital_NN'
p1577
aS'ambulance_NN'
p1578
aS'restaurant_NN'
p1579
aS'taxi_NN'
p1580
aa(lp1581
S'hospital_NN'
p1582
aS'ambulance_NN'
p1583
aS'office_NN'
p1584
aS'car_NN'
p1585
aa(lp1586
S'hospital_NN'
p1587
aS'ambulance_NN'
p1588
aS'mall_NN'
p1589
aS'car_NN'
p1590
aa(lp1591
S'hospital_NN'
p1592
aS'ambulance_NN'
p1593
aS'mainland_NN'
p1594
aS'boat_NN'
p1595
aa(lp1596
S'hospital_NN'
p1597
aS'ambulance_NN'
p1598
aS'portland_NN'
p1599
aS'car_NN'
p1600
aa(lp1601
S'hospital_NN'
p1602
aS'ambulance_NN'
p1603
aS'washington_NN'
p1604
aS'train_NN'
p1605
aa(lp1606
S'hospital_NN'
p1607
aS'ambulance_NN'
p1608
aS'theatre_NN'
p1609
aS'limousine_NN'
p1610
aa(lp1611
S'hospital_NN'
p1612
aS'ambulance_NN'
p1613
aS'cemetery_NN'
p1614
aS'hearse_NN'
p1615
aa(lp1616
S'hospital_NN'
p1617
aS'ambulance_NN'
p1618
aS'museum_NN'
p1619
aS'bus_NN'
p1620
aa(lp1621
S'hospital_NN'
p1622
aS'ambulance_NN'
p1623
aS'mars_NNS'
p1624
aS'spaceship_NN'
p1625
aa(lp1626
S'australia_NNS'
p1627
aS'airplane_NN'
p1628
aS'airport_NN'
p1629
aS'car_NN'
p1630
aa(lp1631
S'australia_NNS'
p1632
aS'airplane_NN'
p1633
aS'park_NN'
p1634
aS'bicycle_NN'
p1635
aa(lp1636
S'australia_NNS'
p1637
aS'airplane_NN'
p1638
aS'hotel_NN'
p1639
aS'taxi_NN'
p1640
aa(lp1641
S'australia_NNS'
p1642
aS'airplane_NN'
p1643
aS'hawaii_NN'
p1644
aS'airplane_NN'
p1645
aa(lp1646
S'australia_NNS'
p1647
aS'airplane_NN'
p1648
aS'island_NN'
p1649
aS'boat_NN'
p1650
aa(lp1651
S'australia_NNS'
p1652
aS'airplane_NN'
p1653
aS'work_NN'
p1654
aS'car_NN'
p1655
aa(lp1656
S'australia_NNS'
p1657
aS'airplane_NN'
p1658
aS'school_NN'
p1659
aS'bus_NN'
p1660
aa(lp1661
S'australia_NNS'
p1662
aS'airplane_NN'
p1663
aS'store_NN'
p1664
aS'car_NN'
p1665
aa(lp1666
S'australia_NNS'
p1667
aS'airplane_NN'
p1668
aS'spain_NN'
p1669
aS'airplane_NN'
p1670
aa(lp1671
S'australia_NNS'
p1672
aS'airplane_NN'
p1673
aS'france_NN'
p1674
aS'airplane_NN'
p1675
aa(lp1676
S'australia_NNS'
p1677
aS'airplane_NN'
p1678
aS'moon_NN'
p1679
aS'rocket_NN'
p1680
aa(lp1681
S'australia_NNS'
p1682
aS'airplane_NN'
p1683
aS'bermuda_NN'
p1684
aS'airplane_NN'
p1685
aa(lp1686
S'australia_NNS'
p1687
aS'airplane_NN'
p1688
aS'hospital_NN'
p1689
aS'ambulance_NN'
p1690
aa(lp1691
S'australia_NNS'
p1692
aS'airplane_NN'
p1693
aS'canada_NNP'
p1694
aS'car_NN'
p1695
aa(lp1696
S'australia_NNS'
p1697
aS'airplane_NN'
p1698
aS'downtown_NN'
p1699
aS'subway_NN'
p1700
aa(lp1701
S'australia_NNS'
p1702
aS'airplane_NN'
p1703
aS'restaurant_NN'
p1704
aS'taxi_NN'
p1705
aa(lp1706
S'australia_NNS'
p1707
aS'airplane_NN'
p1708
aS'office_NN'
p1709
aS'car_NN'
p1710
aa(lp1711
S'australia_NNS'
p1712
aS'airplane_NN'
p1713
aS'mall_NN'
p1714
aS'car_NN'
p1715
aa(lp1716
S'australia_NNS'
p1717
aS'airplane_NN'
p1718
aS'mainland_NN'
p1719
aS'boat_NN'
p1720
aa(lp1721
S'australia_NNS'
p1722
aS'airplane_NN'
p1723
aS'portland_NN'
p1724
aS'car_NN'
p1725
aa(lp1726
S'australia_NNS'
p1727
aS'airplane_NN'
p1728
aS'washington_NN'
p1729
aS'train_NN'
p1730
aa(lp1731
S'australia_NNS'
p1732
aS'airplane_NN'
p1733
aS'theatre_NN'
p1734
aS'limousine_NN'
p1735
aa(lp1736
S'australia_NNS'
p1737
aS'airplane_NN'
p1738
aS'cemetery_NN'
p1739
aS'hearse_NN'
p1740
aa(lp1741
S'australia_NNS'
p1742
aS'airplane_NN'
p1743
aS'museum_NN'
p1744
aS'bus_NN'
p1745
aa(lp1746
S'australia_NNS'
p1747
aS'airplane_NN'
p1748
aS'mars_NNS'
p1749
aS'spaceship_NN'
p1750
aa(lp1751
S'canada_NNP'
p1752
aS'car_NN'
p1753
aS'airport_NN'
p1754
aS'car_NN'
p1755
aa(lp1756
S'canada_NNP'
p1757
aS'car_NN'
p1758
aS'park_NN'
p1759
aS'bicycle_NN'
p1760
aa(lp1761
S'canada_NNP'
p1762
aS'car_NN'
p1763
aS'hotel_NN'
p1764
aS'taxi_NN'
p1765
aa(lp1766
S'canada_NNP'
p1767
aS'car_NN'
p1768
aS'hawaii_NN'
p1769
aS'airplane_NN'
p1770
aa(lp1771
S'canada_NNP'
p1772
aS'car_NN'
p1773
aS'island_NN'
p1774
aS'boat_NN'
p1775
aa(lp1776
S'canada_NNP'
p1777
aS'car_NN'
p1778
aS'work_NN'
p1779
aS'car_NN'
p1780
aa(lp1781
S'canada_NNP'
p1782
aS'car_NN'
p1783
aS'school_NN'
p1784
aS'bus_NN'
p1785
aa(lp1786
S'canada_NNP'
p1787
aS'car_NN'
p1788
aS'store_NN'
p1789
aS'car_NN'
p1790
aa(lp1791
S'canada_NNP'
p1792
aS'car_NN'
p1793
aS'spain_NN'
p1794
aS'airplane_NN'
p1795
aa(lp1796
S'canada_NNP'
p1797
aS'car_NN'
p1798
aS'france_NN'
p1799
aS'airplane_NN'
p1800
aa(lp1801
S'canada_NNP'
p1802
aS'car_NN'
p1803
aS'moon_NN'
p1804
aS'rocket_NN'
p1805
aa(lp1806
S'canada_NNP'
p1807
aS'car_NN'
p1808
aS'bermuda_NN'
p1809
aS'airplane_NN'
p1810
aa(lp1811
S'canada_NNP'
p1812
aS'car_NN'
p1813
aS'hospital_NN'
p1814
aS'ambulance_NN'
p1815
aa(lp1816
S'canada_NNP'
p1817
aS'car_NN'
p1818
aS'australia_NNS'
p1819
aS'airplane_NN'
p1820
aa(lp1821
S'canada_NNP'
p1822
aS'car_NN'
p1823
aS'downtown_NN'
p1824
aS'subway_NN'
p1825
aa(lp1826
S'canada_NNP'
p1827
aS'car_NN'
p1828
aS'restaurant_NN'
p1829
aS'taxi_NN'
p1830
aa(lp1831
S'canada_NNP'
p1832
aS'car_NN'
p1833
aS'office_NN'
p1834
aS'car_NN'
p1835
aa(lp1836
S'canada_NNP'
p1837
aS'car_NN'
p1838
aS'mall_NN'
p1839
aS'car_NN'
p1840
aa(lp1841
S'canada_NNP'
p1842
aS'car_NN'
p1843
aS'mainland_NN'
p1844
aS'boat_NN'
p1845
aa(lp1846
S'canada_NNP'
p1847
aS'car_NN'
p1848
aS'portland_NN'
p1849
aS'car_NN'
p1850
aa(lp1851
S'canada_NNP'
p1852
aS'car_NN'
p1853
aS'washington_NN'
p1854
aS'train_NN'
p1855
aa(lp1856
S'canada_NNP'
p1857
aS'car_NN'
p1858
aS'theatre_NN'
p1859
aS'limousine_NN'
p1860
aa(lp1861
S'canada_NNP'
p1862
aS'car_NN'
p1863
aS'cemetery_NN'
p1864
aS'hearse_NN'
p1865
aa(lp1866
S'canada_NNP'
p1867
aS'car_NN'
p1868
aS'museum_NN'
p1869
aS'bus_NN'
p1870
aa(lp1871
S'canada_NNP'
p1872
aS'car_NN'
p1873
aS'mars_NNS'
p1874
aS'spaceship_NN'
p1875
aa(lp1876
S'downtown_NN'
p1877
aS'subway_NN'
p1878
aS'airport_NN'
p1879
aS'car_NN'
p1880
aa(lp1881
S'downtown_NN'
p1882
aS'subway_NN'
p1883
aS'park_NN'
p1884
aS'bicycle_NN'
p1885
aa(lp1886
S'downtown_NN'
p1887
aS'subway_NN'
p1888
aS'hotel_NN'
p1889
aS'taxi_NN'
p1890
aa(lp1891
S'downtown_NN'
p1892
aS'subway_NN'
p1893
aS'hawaii_NN'
p1894
aS'airplane_NN'
p1895
aa(lp1896
S'downtown_NN'
p1897
aS'subway_NN'
p1898
aS'island_NN'
p1899
aS'boat_NN'
p1900
aa(lp1901
S'downtown_NN'
p1902
aS'subway_NN'
p1903
aS'work_NN'
p1904
aS'car_NN'
p1905
aa(lp1906
S'downtown_NN'
p1907
aS'subway_NN'
p1908
aS'school_NN'
p1909
aS'bus_NN'
p1910
aa(lp1911
S'downtown_NN'
p1912
aS'subway_NN'
p1913
aS'store_NN'
p1914
aS'car_NN'
p1915
aa(lp1916
S'downtown_NN'
p1917
aS'subway_NN'
p1918
aS'spain_NN'
p1919
aS'airplane_NN'
p1920
aa(lp1921
S'downtown_NN'
p1922
aS'subway_NN'
p1923
aS'france_NN'
p1924
aS'airplane_NN'
p1925
aa(lp1926
S'downtown_NN'
p1927
aS'subway_NN'
p1928
aS'moon_NN'
p1929
aS'rocket_NN'
p1930
aa(lp1931
S'downtown_NN'
p1932
aS'subway_NN'
p1933
aS'bermuda_NN'
p1934
aS'airplane_NN'
p1935
aa(lp1936
S'downtown_NN'
p1937
aS'subway_NN'
p1938
aS'hospital_NN'
p1939
aS'ambulance_NN'
p1940
aa(lp1941
S'downtown_NN'
p1942
aS'subway_NN'
p1943
aS'australia_NNS'
p1944
aS'airplane_NN'
p1945
aa(lp1946
S'downtown_NN'
p1947
aS'subway_NN'
p1948
aS'canada_NNP'
p1949
aS'car_NN'
p1950
aa(lp1951
S'downtown_NN'
p1952
aS'subway_NN'
p1953
aS'restaurant_NN'
p1954
aS'taxi_NN'
p1955
aa(lp1956
S'downtown_NN'
p1957
aS'subway_NN'
p1958
aS'office_NN'
p1959
aS'car_NN'
p1960
aa(lp1961
S'downtown_NN'
p1962
aS'subway_NN'
p1963
aS'mall_NN'
p1964
aS'car_NN'
p1965
aa(lp1966
S'downtown_NN'
p1967
aS'subway_NN'
p1968
aS'mainland_NN'
p1969
aS'boat_NN'
p1970
aa(lp1971
S'downtown_NN'
p1972
aS'subway_NN'
p1973
aS'portland_NN'
p1974
aS'car_NN'
p1975
aa(lp1976
S'downtown_NN'
p1977
aS'subway_NN'
p1978
aS'washington_NN'
p1979
aS'train_NN'
p1980
aa(lp1981
S'downtown_NN'
p1982
aS'subway_NN'
p1983
aS'theatre_NN'
p1984
aS'limousine_NN'
p1985
aa(lp1986
S'downtown_NN'
p1987
aS'subway_NN'
p1988
aS'cemetery_NN'
p1989
aS'hearse_NN'
p1990
aa(lp1991
S'downtown_NN'
p1992
aS'subway_NN'
p1993
aS'museum_NN'
p1994
aS'bus_NN'
p1995
aa(lp1996
S'downtown_NN'
p1997
aS'subway_NN'
p1998
aS'mars_NNS'
p1999
aS'spaceship_NN'
p2000
aa(lp2001
S'restaurant_NN'
p2002
aS'taxi_NN'
p2003
aS'airport_NN'
p2004
aS'car_NN'
p2005
aa(lp2006
S'restaurant_NN'
p2007
aS'taxi_NN'
p2008
aS'park_NN'
p2009
aS'bicycle_NN'
p2010
aa(lp2011
S'restaurant_NN'
p2012
aS'taxi_NN'
p2013
aS'hotel_NN'
p2014
aS'taxi_NN'
p2015
aa(lp2016
S'restaurant_NN'
p2017
aS'taxi_NN'
p2018
aS'hawaii_NN'
p2019
aS'airplane_NN'
p2020
aa(lp2021
S'restaurant_NN'
p2022
aS'taxi_NN'
p2023
aS'island_NN'
p2024
aS'boat_NN'
p2025
aa(lp2026
S'restaurant_NN'
p2027
aS'taxi_NN'
p2028
aS'work_NN'
p2029
aS'car_NN'
p2030
aa(lp2031
S'restaurant_NN'
p2032
aS'taxi_NN'
p2033
aS'school_NN'
p2034
aS'bus_NN'
p2035
aa(lp2036
S'restaurant_NN'
p2037
aS'taxi_NN'
p2038
aS'store_NN'
p2039
aS'car_NN'
p2040
aa(lp2041
S'restaurant_NN'
p2042
aS'taxi_NN'
p2043
aS'spain_NN'
p2044
aS'airplane_NN'
p2045
aa(lp2046
S'restaurant_NN'
p2047
aS'taxi_NN'
p2048
aS'france_NN'
p2049
aS'airplane_NN'
p2050
aa(lp2051
S'restaurant_NN'
p2052
aS'taxi_NN'
p2053
aS'moon_NN'
p2054
aS'rocket_NN'
p2055
aa(lp2056
S'restaurant_NN'
p2057
aS'taxi_NN'
p2058
aS'bermuda_NN'
p2059
aS'airplane_NN'
p2060
aa(lp2061
S'restaurant_NN'
p2062
aS'taxi_NN'
p2063
aS'hospital_NN'
p2064
aS'ambulance_NN'
p2065
aa(lp2066
S'restaurant_NN'
p2067
aS'taxi_NN'
p2068
aS'australia_NNS'
p2069
aS'airplane_NN'
p2070
aa(lp2071
S'restaurant_NN'
p2072
aS'taxi_NN'
p2073
aS'canada_NNP'
p2074
aS'car_NN'
p2075
aa(lp2076
S'restaurant_NN'
p2077
aS'taxi_NN'
p2078
aS'downtown_NN'
p2079
aS'subway_NN'
p2080
aa(lp2081
S'restaurant_NN'
p2082
aS'taxi_NN'
p2083
aS'office_NN'
p2084
aS'car_NN'
p2085
aa(lp2086
S'restaurant_NN'
p2087
aS'taxi_NN'
p2088
aS'mall_NN'
p2089
aS'car_NN'
p2090
aa(lp2091
S'restaurant_NN'
p2092
aS'taxi_NN'
p2093
aS'mainland_NN'
p2094
aS'boat_NN'
p2095
aa(lp2096
S'restaurant_NN'
p2097
aS'taxi_NN'
p2098
aS'portland_NN'
p2099
aS'car_NN'
p2100
aa(lp2101
S'restaurant_NN'
p2102
aS'taxi_NN'
p2103
aS'washington_NN'
p2104
aS'train_NN'
p2105
aa(lp2106
S'restaurant_NN'
p2107
aS'taxi_NN'
p2108
aS'theatre_NN'
p2109
aS'limousine_NN'
p2110
aa(lp2111
S'restaurant_NN'
p2112
aS'taxi_NN'
p2113
aS'cemetery_NN'
p2114
aS'hearse_NN'
p2115
aa(lp2116
S'restaurant_NN'
p2117
aS'taxi_NN'
p2118
aS'museum_NN'
p2119
aS'bus_NN'
p2120
aa(lp2121
S'restaurant_NN'
p2122
aS'taxi_NN'
p2123
aS'mars_NNS'
p2124
aS'spaceship_NN'
p2125
aa(lp2126
S'office_NN'
p2127
aS'car_NN'
p2128
aS'airport_NN'
p2129
aS'car_NN'
p2130
aa(lp2131
S'office_NN'
p2132
aS'car_NN'
p2133
aS'park_NN'
p2134
aS'bicycle_NN'
p2135
aa(lp2136
S'office_NN'
p2137
aS'car_NN'
p2138
aS'hotel_NN'
p2139
aS'taxi_NN'
p2140
aa(lp2141
S'office_NN'
p2142
aS'car_NN'
p2143
aS'hawaii_NN'
p2144
aS'airplane_NN'
p2145
aa(lp2146
S'office_NN'
p2147
aS'car_NN'
p2148
aS'island_NN'
p2149
aS'boat_NN'
p2150
aa(lp2151
S'office_NN'
p2152
aS'car_NN'
p2153
aS'work_NN'
p2154
aS'car_NN'
p2155
aa(lp2156
S'office_NN'
p2157
aS'car_NN'
p2158
aS'school_NN'
p2159
aS'bus_NN'
p2160
aa(lp2161
S'office_NN'
p2162
aS'car_NN'
p2163
aS'store_NN'
p2164
aS'car_NN'
p2165
aa(lp2166
S'office_NN'
p2167
aS'car_NN'
p2168
aS'spain_NN'
p2169
aS'airplane_NN'
p2170
aa(lp2171
S'office_NN'
p2172
aS'car_NN'
p2173
aS'france_NN'
p2174
aS'airplane_NN'
p2175
aa(lp2176
S'office_NN'
p2177
aS'car_NN'
p2178
aS'moon_NN'
p2179
aS'rocket_NN'
p2180
aa(lp2181
S'office_NN'
p2182
aS'car_NN'
p2183
aS'bermuda_NN'
p2184
aS'airplane_NN'
p2185
aa(lp2186
S'office_NN'
p2187
aS'car_NN'
p2188
aS'hospital_NN'
p2189
aS'ambulance_NN'
p2190
aa(lp2191
S'office_NN'
p2192
aS'car_NN'
p2193
aS'australia_NNS'
p2194
aS'airplane_NN'
p2195
aa(lp2196
S'office_NN'
p2197
aS'car_NN'
p2198
aS'canada_NNP'
p2199
aS'car_NN'
p2200
aa(lp2201
S'office_NN'
p2202
aS'car_NN'
p2203
aS'downtown_NN'
p2204
aS'subway_NN'
p2205
aa(lp2206
S'office_NN'
p2207
aS'car_NN'
p2208
aS'restaurant_NN'
p2209
aS'taxi_NN'
p2210
aa(lp2211
S'office_NN'
p2212
aS'car_NN'
p2213
aS'mall_NN'
p2214
aS'car_NN'
p2215
aa(lp2216
S'office_NN'
p2217
aS'car_NN'
p2218
aS'mainland_NN'
p2219
aS'boat_NN'
p2220
aa(lp2221
S'office_NN'
p2222
aS'car_NN'
p2223
aS'portland_NN'
p2224
aS'car_NN'
p2225
aa(lp2226
S'office_NN'
p2227
aS'car_NN'
p2228
aS'washington_NN'
p2229
aS'train_NN'
p2230
aa(lp2231
S'office_NN'
p2232
aS'car_NN'
p2233
aS'theatre_NN'
p2234
aS'limousine_NN'
p2235
aa(lp2236
S'office_NN'
p2237
aS'car_NN'
p2238
aS'cemetery_NN'
p2239
aS'hearse_NN'
p2240
aa(lp2241
S'office_NN'
p2242
aS'car_NN'
p2243
aS'museum_NN'
p2244
aS'bus_NN'
p2245
aa(lp2246
S'office_NN'
p2247
aS'car_NN'
p2248
aS'mars_NNS'
p2249
aS'spaceship_NN'
p2250
aa(lp2251
S'mall_NN'
p2252
aS'car_NN'
p2253
aS'airport_NN'
p2254
aS'car_NN'
p2255
aa(lp2256
S'mall_NN'
p2257
aS'car_NN'
p2258
aS'park_NN'
p2259
aS'bicycle_NN'
p2260
aa(lp2261
S'mall_NN'
p2262
aS'car_NN'
p2263
aS'hotel_NN'
p2264
aS'taxi_NN'
p2265
aa(lp2266
S'mall_NN'
p2267
aS'car_NN'
p2268
aS'hawaii_NN'
p2269
aS'airplane_NN'
p2270
aa(lp2271
S'mall_NN'
p2272
aS'car_NN'
p2273
aS'island_NN'
p2274
aS'boat_NN'
p2275
aa(lp2276
S'mall_NN'
p2277
aS'car_NN'
p2278
aS'work_NN'
p2279
aS'car_NN'
p2280
aa(lp2281
S'mall_NN'
p2282
aS'car_NN'
p2283
aS'school_NN'
p2284
aS'bus_NN'
p2285
aa(lp2286
S'mall_NN'
p2287
aS'car_NN'
p2288
aS'store_NN'
p2289
aS'car_NN'
p2290
aa(lp2291
S'mall_NN'
p2292
aS'car_NN'
p2293
aS'spain_NN'
p2294
aS'airplane_NN'
p2295
aa(lp2296
S'mall_NN'
p2297
aS'car_NN'
p2298
aS'france_NN'
p2299
aS'airplane_NN'
p2300
aa(lp2301
S'mall_NN'
p2302
aS'car_NN'
p2303
aS'moon_NN'
p2304
aS'rocket_NN'
p2305
aa(lp2306
S'mall_NN'
p2307
aS'car_NN'
p2308
aS'bermuda_NN'
p2309
aS'airplane_NN'
p2310
aa(lp2311
S'mall_NN'
p2312
aS'car_NN'
p2313
aS'hospital_NN'
p2314
aS'ambulance_NN'
p2315
aa(lp2316
S'mall_NN'
p2317
aS'car_NN'
p2318
aS'australia_NNS'
p2319
aS'airplane_NN'
p2320
aa(lp2321
S'mall_NN'
p2322
aS'car_NN'
p2323
aS'canada_NNP'
p2324
aS'car_NN'
p2325
aa(lp2326
S'mall_NN'
p2327
aS'car_NN'
p2328
aS'downtown_NN'
p2329
aS'subway_NN'
p2330
aa(lp2331
S'mall_NN'
p2332
aS'car_NN'
p2333
aS'restaurant_NN'
p2334
aS'taxi_NN'
p2335
aa(lp2336
S'mall_NN'
p2337
aS'car_NN'
p2338
aS'office_NN'
p2339
aS'car_NN'
p2340
aa(lp2341
S'mall_NN'
p2342
aS'car_NN'
p2343
aS'mainland_NN'
p2344
aS'boat_NN'
p2345
aa(lp2346
S'mall_NN'
p2347
aS'car_NN'
p2348
aS'portland_NN'
p2349
aS'car_NN'
p2350
aa(lp2351
S'mall_NN'
p2352
aS'car_NN'
p2353
aS'washington_NN'
p2354
aS'train_NN'
p2355
aa(lp2356
S'mall_NN'
p2357
aS'car_NN'
p2358
aS'theatre_NN'
p2359
aS'limousine_NN'
p2360
aa(lp2361
S'mall_NN'
p2362
aS'car_NN'
p2363
aS'cemetery_NN'
p2364
aS'hearse_NN'
p2365
aa(lp2366
S'mall_NN'
p2367
aS'car_NN'
p2368
aS'museum_NN'
p2369
aS'bus_NN'
p2370
aa(lp2371
S'mall_NN'
p2372
aS'car_NN'
p2373
aS'mars_NNS'
p2374
aS'spaceship_NN'
p2375
aa(lp2376
S'mainland_NN'
p2377
aS'boat_NN'
p2378
aS'airport_NN'
p2379
aS'car_NN'
p2380
aa(lp2381
S'mainland_NN'
p2382
aS'boat_NN'
p2383
aS'park_NN'
p2384
aS'bicycle_NN'
p2385
aa(lp2386
S'mainland_NN'
p2387
aS'boat_NN'
p2388
aS'hotel_NN'
p2389
aS'taxi_NN'
p2390
aa(lp2391
S'mainland_NN'
p2392
aS'boat_NN'
p2393
aS'hawaii_NN'
p2394
aS'airplane_NN'
p2395
aa(lp2396
S'mainland_NN'
p2397
aS'boat_NN'
p2398
aS'island_NN'
p2399
aS'boat_NN'
p2400
aa(lp2401
S'mainland_NN'
p2402
aS'boat_NN'
p2403
aS'work_NN'
p2404
aS'car_NN'
p2405
aa(lp2406
S'mainland_NN'
p2407
aS'boat_NN'
p2408
aS'school_NN'
p2409
aS'bus_NN'
p2410
aa(lp2411
S'mainland_NN'
p2412
aS'boat_NN'
p2413
aS'store_NN'
p2414
aS'car_NN'
p2415
aa(lp2416
S'mainland_NN'
p2417
aS'boat_NN'
p2418
aS'spain_NN'
p2419
aS'airplane_NN'
p2420
aa(lp2421
S'mainland_NN'
p2422
aS'boat_NN'
p2423
aS'france_NN'
p2424
aS'airplane_NN'
p2425
aa(lp2426
S'mainland_NN'
p2427
aS'boat_NN'
p2428
aS'moon_NN'
p2429
aS'rocket_NN'
p2430
aa(lp2431
S'mainland_NN'
p2432
aS'boat_NN'
p2433
aS'bermuda_NN'
p2434
aS'airplane_NN'
p2435
aa(lp2436
S'mainland_NN'
p2437
aS'boat_NN'
p2438
aS'hospital_NN'
p2439
aS'ambulance_NN'
p2440
aa(lp2441
S'mainland_NN'
p2442
aS'boat_NN'
p2443
aS'australia_NNS'
p2444
aS'airplane_NN'
p2445
aa(lp2446
S'mainland_NN'
p2447
aS'boat_NN'
p2448
aS'canada_NNP'
p2449
aS'car_NN'
p2450
aa(lp2451
S'mainland_NN'
p2452
aS'boat_NN'
p2453
aS'downtown_NN'
p2454
aS'subway_NN'
p2455
aa(lp2456
S'mainland_NN'
p2457
aS'boat_NN'
p2458
aS'restaurant_NN'
p2459
aS'taxi_NN'
p2460
aa(lp2461
S'mainland_NN'
p2462
aS'boat_NN'
p2463
aS'office_NN'
p2464
aS'car_NN'
p2465
aa(lp2466
S'mainland_NN'
p2467
aS'boat_NN'
p2468
aS'mall_NN'
p2469
aS'car_NN'
p2470
aa(lp2471
S'mainland_NN'
p2472
aS'boat_NN'
p2473
aS'portland_NN'
p2474
aS'car_NN'
p2475
aa(lp2476
S'mainland_NN'
p2477
aS'boat_NN'
p2478
aS'washington_NN'
p2479
aS'train_NN'
p2480
aa(lp2481
S'mainland_NN'
p2482
aS'boat_NN'
p2483
aS'theatre_NN'
p2484
aS'limousine_NN'
p2485
aa(lp2486
S'mainland_NN'
p2487
aS'boat_NN'
p2488
aS'cemetery_NN'
p2489
aS'hearse_NN'
p2490
aa(lp2491
S'mainland_NN'
p2492
aS'boat_NN'
p2493
aS'museum_NN'
p2494
aS'bus_NN'
p2495
aa(lp2496
S'mainland_NN'
p2497
aS'boat_NN'
p2498
aS'mars_NNS'
p2499
aS'spaceship_NN'
p2500
aa(lp2501
S'portland_NN'
p2502
aS'car_NN'
p2503
aS'airport_NN'
p2504
aS'car_NN'
p2505
aa(lp2506
S'portland_NN'
p2507
aS'car_NN'
p2508
aS'park_NN'
p2509
aS'bicycle_NN'
p2510
aa(lp2511
S'portland_NN'
p2512
aS'car_NN'
p2513
aS'hotel_NN'
p2514
aS'taxi_NN'
p2515
aa(lp2516
S'portland_NN'
p2517
aS'car_NN'
p2518
aS'hawaii_NN'
p2519
aS'airplane_NN'
p2520
aa(lp2521
S'portland_NN'
p2522
aS'car_NN'
p2523
aS'island_NN'
p2524
aS'boat_NN'
p2525
aa(lp2526
S'portland_NN'
p2527
aS'car_NN'
p2528
aS'work_NN'
p2529
aS'car_NN'
p2530
aa(lp2531
S'portland_NN'
p2532
aS'car_NN'
p2533
aS'school_NN'
p2534
aS'bus_NN'
p2535
aa(lp2536
S'portland_NN'
p2537
aS'car_NN'
p2538
aS'store_NN'
p2539
aS'car_NN'
p2540
aa(lp2541
S'portland_NN'
p2542
aS'car_NN'
p2543
aS'spain_NN'
p2544
aS'airplane_NN'
p2545
aa(lp2546
S'portland_NN'
p2547
aS'car_NN'
p2548
aS'france_NN'
p2549
aS'airplane_NN'
p2550
aa(lp2551
S'portland_NN'
p2552
aS'car_NN'
p2553
aS'moon_NN'
p2554
aS'rocket_NN'
p2555
aa(lp2556
S'portland_NN'
p2557
aS'car_NN'
p2558
aS'bermuda_NN'
p2559
aS'airplane_NN'
p2560
aa(lp2561
S'portland_NN'
p2562
aS'car_NN'
p2563
aS'hospital_NN'
p2564
aS'ambulance_NN'
p2565
aa(lp2566
S'portland_NN'
p2567
aS'car_NN'
p2568
aS'australia_NNS'
p2569
aS'airplane_NN'
p2570
aa(lp2571
S'portland_NN'
p2572
aS'car_NN'
p2573
aS'canada_NNP'
p2574
aS'car_NN'
p2575
aa(lp2576
S'portland_NN'
p2577
aS'car_NN'
p2578
aS'downtown_NN'
p2579
aS'subway_NN'
p2580
aa(lp2581
S'portland_NN'
p2582
aS'car_NN'
p2583
aS'restaurant_NN'
p2584
aS'taxi_NN'
p2585
aa(lp2586
S'portland_NN'
p2587
aS'car_NN'
p2588
aS'office_NN'
p2589
aS'car_NN'
p2590
aa(lp2591
S'portland_NN'
p2592
aS'car_NN'
p2593
aS'mall_NN'
p2594
aS'car_NN'
p2595
aa(lp2596
S'portland_NN'
p2597
aS'car_NN'
p2598
aS'mainland_NN'
p2599
aS'boat_NN'
p2600
aa(lp2601
S'portland_NN'
p2602
aS'car_NN'
p2603
aS'washington_NN'
p2604
aS'train_NN'
p2605
aa(lp2606
S'portland_NN'
p2607
aS'car_NN'
p2608
aS'theatre_NN'
p2609
aS'limousine_NN'
p2610
aa(lp2611
S'portland_NN'
p2612
aS'car_NN'
p2613
aS'cemetery_NN'
p2614
aS'hearse_NN'
p2615
aa(lp2616
S'portland_NN'
p2617
aS'car_NN'
p2618
aS'museum_NN'
p2619
aS'bus_NN'
p2620
aa(lp2621
S'portland_NN'
p2622
aS'car_NN'
p2623
aS'mars_NNS'
p2624
aS'spaceship_NN'
p2625
aa(lp2626
S'washington_NN'
p2627
aS'train_NN'
p2628
aS'airport_NN'
p2629
aS'car_NN'
p2630
aa(lp2631
S'washington_NN'
p2632
aS'train_NN'
p2633
aS'park_NN'
p2634
aS'bicycle_NN'
p2635
aa(lp2636
S'washington_NN'
p2637
aS'train_NN'
p2638
aS'hotel_NN'
p2639
aS'taxi_NN'
p2640
aa(lp2641
S'washington_NN'
p2642
aS'train_NN'
p2643
aS'hawaii_NN'
p2644
aS'airplane_NN'
p2645
aa(lp2646
S'washington_NN'
p2647
aS'train_NN'
p2648
aS'island_NN'
p2649
aS'boat_NN'
p2650
aa(lp2651
S'washington_NN'
p2652
aS'train_NN'
p2653
aS'work_NN'
p2654
aS'car_NN'
p2655
aa(lp2656
S'washington_NN'
p2657
aS'train_NN'
p2658
aS'school_NN'
p2659
aS'bus_NN'
p2660
aa(lp2661
S'washington_NN'
p2662
aS'train_NN'
p2663
aS'store_NN'
p2664
aS'car_NN'
p2665
aa(lp2666
S'washington_NN'
p2667
aS'train_NN'
p2668
aS'spain_NN'
p2669
aS'airplane_NN'
p2670
aa(lp2671
S'washington_NN'
p2672
aS'train_NN'
p2673
aS'france_NN'
p2674
aS'airplane_NN'
p2675
aa(lp2676
S'washington_NN'
p2677
aS'train_NN'
p2678
aS'moon_NN'
p2679
aS'rocket_NN'
p2680
aa(lp2681
S'washington_NN'
p2682
aS'train_NN'
p2683
aS'bermuda_NN'
p2684
aS'airplane_NN'
p2685
aa(lp2686
S'washington_NN'
p2687
aS'train_NN'
p2688
aS'hospital_NN'
p2689
aS'ambulance_NN'
p2690
aa(lp2691
S'washington_NN'
p2692
aS'train_NN'
p2693
aS'australia_NNS'
p2694
aS'airplane_NN'
p2695
aa(lp2696
S'washington_NN'
p2697
aS'train_NN'
p2698
aS'canada_NNP'
p2699
aS'car_NN'
p2700
aa(lp2701
S'washington_NN'
p2702
aS'train_NN'
p2703
aS'downtown_NN'
p2704
aS'subway_NN'
p2705
aa(lp2706
S'washington_NN'
p2707
aS'train_NN'
p2708
aS'restaurant_NN'
p2709
aS'taxi_NN'
p2710
aa(lp2711
S'washington_NN'
p2712
aS'train_NN'
p2713
aS'office_NN'
p2714
aS'car_NN'
p2715
aa(lp2716
S'washington_NN'
p2717
aS'train_NN'
p2718
aS'mall_NN'
p2719
aS'car_NN'
p2720
aa(lp2721
S'washington_NN'
p2722
aS'train_NN'
p2723
aS'mainland_NN'
p2724
aS'boat_NN'
p2725
aa(lp2726
S'washington_NN'
p2727
aS'train_NN'
p2728
aS'portland_NN'
p2729
aS'car_NN'
p2730
aa(lp2731
S'washington_NN'
p2732
aS'train_NN'
p2733
aS'theatre_NN'
p2734
aS'limousine_NN'
p2735
aa(lp2736
S'washington_NN'
p2737
aS'train_NN'
p2738
aS'cemetery_NN'
p2739
aS'hearse_NN'
p2740
aa(lp2741
S'washington_NN'
p2742
aS'train_NN'
p2743
aS'museum_NN'
p2744
aS'bus_NN'
p2745
aa(lp2746
S'washington_NN'
p2747
aS'train_NN'
p2748
aS'mars_NNS'
p2749
aS'spaceship_NN'
p2750
aa(lp2751
S'theatre_NN'
p2752
aS'limousine_NN'
p2753
aS'airport_NN'
p2754
aS'car_NN'
p2755
aa(lp2756
S'theatre_NN'
p2757
aS'limousine_NN'
p2758
aS'park_NN'
p2759
aS'bicycle_NN'
p2760
aa(lp2761
S'theatre_NN'
p2762
aS'limousine_NN'
p2763
aS'hotel_NN'
p2764
aS'taxi_NN'
p2765
aa(lp2766
S'theatre_NN'
p2767
aS'limousine_NN'
p2768
aS'hawaii_NN'
p2769
aS'airplane_NN'
p2770
aa(lp2771
S'theatre_NN'
p2772
aS'limousine_NN'
p2773
aS'island_NN'
p2774
aS'boat_NN'
p2775
aa(lp2776
S'theatre_NN'
p2777
aS'limousine_NN'
p2778
aS'work_NN'
p2779
aS'car_NN'
p2780
aa(lp2781
S'theatre_NN'
p2782
aS'limousine_NN'
p2783
aS'school_NN'
p2784
aS'bus_NN'
p2785
aa(lp2786
S'theatre_NN'
p2787
aS'limousine_NN'
p2788
aS'store_NN'
p2789
aS'car_NN'
p2790
aa(lp2791
S'theatre_NN'
p2792
aS'limousine_NN'
p2793
aS'spain_NN'
p2794
aS'airplane_NN'
p2795
aa(lp2796
S'theatre_NN'
p2797
aS'limousine_NN'
p2798
aS'france_NN'
p2799
aS'airplane_NN'
p2800
aa(lp2801
S'theatre_NN'
p2802
aS'limousine_NN'
p2803
aS'moon_NN'
p2804
aS'rocket_NN'
p2805
aa(lp2806
S'theatre_NN'
p2807
aS'limousine_NN'
p2808
aS'bermuda_NN'
p2809
aS'airplane_NN'
p2810
aa(lp2811
S'theatre_NN'
p2812
aS'limousine_NN'
p2813
aS'hospital_NN'
p2814
aS'ambulance_NN'
p2815
aa(lp2816
S'theatre_NN'
p2817
aS'limousine_NN'
p2818
aS'australia_NNS'
p2819
aS'airplane_NN'
p2820
aa(lp2821
S'theatre_NN'
p2822
aS'limousine_NN'
p2823
aS'canada_NNP'
p2824
aS'car_NN'
p2825
aa(lp2826
S'theatre_NN'
p2827
aS'limousine_NN'
p2828
aS'downtown_NN'
p2829
aS'subway_NN'
p2830
aa(lp2831
S'theatre_NN'
p2832
aS'limousine_NN'
p2833
aS'restaurant_NN'
p2834
aS'taxi_NN'
p2835
aa(lp2836
S'theatre_NN'
p2837
aS'limousine_NN'
p2838
aS'office_NN'
p2839
aS'car_NN'
p2840
aa(lp2841
S'theatre_NN'
p2842
aS'limousine_NN'
p2843
aS'mall_NN'
p2844
aS'car_NN'
p2845
aa(lp2846
S'theatre_NN'
p2847
aS'limousine_NN'
p2848
aS'mainland_NN'
p2849
aS'boat_NN'
p2850
aa(lp2851
S'theatre_NN'
p2852
aS'limousine_NN'
p2853
aS'portland_NN'
p2854
aS'car_NN'
p2855
aa(lp2856
S'theatre_NN'
p2857
aS'limousine_NN'
p2858
aS'washington_NN'
p2859
aS'train_NN'
p2860
aa(lp2861
S'theatre_NN'
p2862
aS'limousine_NN'
p2863
aS'cemetery_NN'
p2864
aS'hearse_NN'
p2865
aa(lp2866
S'theatre_NN'
p2867
aS'limousine_NN'
p2868
aS'museum_NN'
p2869
aS'bus_NN'
p2870
aa(lp2871
S'theatre_NN'
p2872
aS'limousine_NN'
p2873
aS'mars_NNS'
p2874
aS'spaceship_NN'
p2875
aa(lp2876
S'cemetery_NN'
p2877
aS'hearse_NN'
p2878
aS'airport_NN'
p2879
aS'car_NN'
p2880
aa(lp2881
S'cemetery_NN'
p2882
aS'hearse_NN'
p2883
aS'park_NN'
p2884
aS'bicycle_NN'
p2885
aa(lp2886
S'cemetery_NN'
p2887
aS'hearse_NN'
p2888
aS'hotel_NN'
p2889
aS'taxi_NN'
p2890
aa(lp2891
S'cemetery_NN'
p2892
aS'hearse_NN'
p2893
aS'hawaii_NN'
p2894
aS'airplane_NN'
p2895
aa(lp2896
S'cemetery_NN'
p2897
aS'hearse_NN'
p2898
aS'island_NN'
p2899
aS'boat_NN'
p2900
aa(lp2901
S'cemetery_NN'
p2902
aS'hearse_NN'
p2903
aS'work_NN'
p2904
aS'car_NN'
p2905
aa(lp2906
S'cemetery_NN'
p2907
aS'hearse_NN'
p2908
aS'school_NN'
p2909
aS'bus_NN'
p2910
aa(lp2911
S'cemetery_NN'
p2912
aS'hearse_NN'
p2913
aS'store_NN'
p2914
aS'car_NN'
p2915
aa(lp2916
S'cemetery_NN'
p2917
aS'hearse_NN'
p2918
aS'spain_NN'
p2919
aS'airplane_NN'
p2920
aa(lp2921
S'cemetery_NN'
p2922
aS'hearse_NN'
p2923
aS'france_NN'
p2924
aS'airplane_NN'
p2925
aa(lp2926
S'cemetery_NN'
p2927
aS'hearse_NN'
p2928
aS'moon_NN'
p2929
aS'rocket_NN'
p2930
aa(lp2931
S'cemetery_NN'
p2932
aS'hearse_NN'
p2933
aS'bermuda_NN'
p2934
aS'airplane_NN'
p2935
aa(lp2936
S'cemetery_NN'
p2937
aS'hearse_NN'
p2938
aS'hospital_NN'
p2939
aS'ambulance_NN'
p2940
aa(lp2941
S'cemetery_NN'
p2942
aS'hearse_NN'
p2943
aS'australia_NNS'
p2944
aS'airplane_NN'
p2945
aa(lp2946
S'cemetery_NN'
p2947
aS'hearse_NN'
p2948
aS'canada_NNP'
p2949
aS'car_NN'
p2950
aa(lp2951
S'cemetery_NN'
p2952
aS'hearse_NN'
p2953
aS'downtown_NN'
p2954
aS'subway_NN'
p2955
aa(lp2956
S'cemetery_NN'
p2957
aS'hearse_NN'
p2958
aS'restaurant_NN'
p2959
aS'taxi_NN'
p2960
aa(lp2961
S'cemetery_NN'
p2962
aS'hearse_NN'
p2963
aS'office_NN'
p2964
aS'car_NN'
p2965
aa(lp2966
S'cemetery_NN'
p2967
aS'hearse_NN'
p2968
aS'mall_NN'
p2969
aS'car_NN'
p2970
aa(lp2971
S'cemetery_NN'
p2972
aS'hearse_NN'
p2973
aS'mainland_NN'
p2974
aS'boat_NN'
p2975
aa(lp2976
S'cemetery_NN'
p2977
aS'hearse_NN'
p2978
aS'portland_NN'
p2979
aS'car_NN'
p2980
aa(lp2981
S'cemetery_NN'
p2982
aS'hearse_NN'
p2983
aS'washington_NN'
p2984
aS'train_NN'
p2985
aa(lp2986
S'cemetery_NN'
p2987
aS'hearse_NN'
p2988
aS'theatre_NN'
p2989
aS'limousine_NN'
p2990
aa(lp2991
S'cemetery_NN'
p2992
aS'hearse_NN'
p2993
aS'museum_NN'
p2994
aS'bus_NN'
p2995
aa(lp2996
S'cemetery_NN'
p2997
aS'hearse_NN'
p2998
aS'mars_NNS'
p2999
aS'spaceship_NN'
p3000
aa(lp3001
S'museum_NN'
p3002
aS'bus_NN'
p3003
aS'airport_NN'
p3004
aS'car_NN'
p3005
aa(lp3006
S'museum_NN'
p3007
aS'bus_NN'
p3008
aS'park_NN'
p3009
aS'bicycle_NN'
p3010
aa(lp3011
S'museum_NN'
p3012
aS'bus_NN'
p3013
aS'hotel_NN'
p3014
aS'taxi_NN'
p3015
aa(lp3016
S'museum_NN'
p3017
aS'bus_NN'
p3018
aS'hawaii_NN'
p3019
aS'airplane_NN'
p3020
aa(lp3021
S'museum_NN'
p3022
aS'bus_NN'
p3023
aS'island_NN'
p3024
aS'boat_NN'
p3025
aa(lp3026
S'museum_NN'
p3027
aS'bus_NN'
p3028
aS'work_NN'
p3029
aS'car_NN'
p3030
aa(lp3031
S'museum_NN'
p3032
aS'bus_NN'
p3033
aS'school_NN'
p3034
aS'bus_NN'
p3035
aa(lp3036
S'museum_NN'
p3037
aS'bus_NN'
p3038
aS'store_NN'
p3039
aS'car_NN'
p3040
aa(lp3041
S'museum_NN'
p3042
aS'bus_NN'
p3043
aS'spain_NN'
p3044
aS'airplane_NN'
p3045
aa(lp3046
S'museum_NN'
p3047
aS'bus_NN'
p3048
aS'france_NN'
p3049
aS'airplane_NN'
p3050
aa(lp3051
S'museum_NN'
p3052
aS'bus_NN'
p3053
aS'moon_NN'
p3054
aS'rocket_NN'
p3055
aa(lp3056
S'museum_NN'
p3057
aS'bus_NN'
p3058
aS'bermuda_NN'
p3059
aS'airplane_NN'
p3060
aa(lp3061
S'museum_NN'
p3062
aS'bus_NN'
p3063
aS'hospital_NN'
p3064
aS'ambulance_NN'
p3065
aa(lp3066
S'museum_NN'
p3067
aS'bus_NN'
p3068
aS'australia_NNS'
p3069
aS'airplane_NN'
p3070
aa(lp3071
S'museum_NN'
p3072
aS'bus_NN'
p3073
aS'canada_NNP'
p3074
aS'car_NN'
p3075
aa(lp3076
S'museum_NN'
p3077
aS'bus_NN'
p3078
aS'downtown_NN'
p3079
aS'subway_NN'
p3080
aa(lp3081
S'museum_NN'
p3082
aS'bus_NN'
p3083
aS'restaurant_NN'
p3084
aS'taxi_NN'
p3085
aa(lp3086
S'museum_NN'
p3087
aS'bus_NN'
p3088
aS'office_NN'
p3089
aS'car_NN'
p3090
aa(lp3091
S'museum_NN'
p3092
aS'bus_NN'
p3093
aS'mall_NN'
p3094
aS'car_NN'
p3095
aa(lp3096
S'museum_NN'
p3097
aS'bus_NN'
p3098
aS'mainland_NN'
p3099
aS'boat_NN'
p3100
aa(lp3101
S'museum_NN'
p3102
aS'bus_NN'
p3103
aS'portland_NN'
p3104
aS'car_NN'
p3105
aa(lp3106
S'museum_NN'
p3107
aS'bus_NN'
p3108
aS'washington_NN'
p3109
aS'train_NN'
p3110
aa(lp3111
S'museum_NN'
p3112
aS'bus_NN'
p3113
aS'theatre_NN'
p3114
aS'limousine_NN'
p3115
aa(lp3116
S'museum_NN'
p3117
aS'bus_NN'
p3118
aS'cemetery_NN'
p3119
aS'hearse_NN'
p3120
aa(lp3121
S'museum_NN'
p3122
aS'bus_NN'
p3123
aS'mars_NNS'
p3124
aS'spaceship_NN'
p3125
aa(lp3126
S'mars_NNS'
p3127
aS'spaceship_NN'
p3128
aS'airport_NN'
p3129
aS'car_NN'
p3130
aa(lp3131
S'mars_NNS'
p3132
aS'spaceship_NN'
p3133
aS'park_NN'
p3134
aS'bicycle_NN'
p3135
aa(lp3136
S'mars_NNS'
p3137
aS'spaceship_NN'
p3138
aS'hotel_NN'
p3139
aS'taxi_NN'
p3140
aa(lp3141
S'mars_NNS'
p3142
aS'spaceship_NN'
p3143
aS'hawaii_NN'
p3144
aS'airplane_NN'
p3145
aa(lp3146
S'mars_NNS'
p3147
aS'spaceship_NN'
p3148
aS'island_NN'
p3149
aS'boat_NN'
p3150
aa(lp3151
S'mars_NNS'
p3152
aS'spaceship_NN'
p3153
aS'work_NN'
p3154
aS'car_NN'
p3155
aa(lp3156
S'mars_NNS'
p3157
aS'spaceship_NN'
p3158
aS'school_NN'
p3159
aS'bus_NN'
p3160
aa(lp3161
S'mars_NNS'
p3162
aS'spaceship_NN'
p3163
aS'store_NN'
p3164
aS'car_NN'
p3165
aa(lp3166
S'mars_NNS'
p3167
aS'spaceship_NN'
p3168
aS'spain_NN'
p3169
aS'airplane_NN'
p3170
aa(lp3171
S'mars_NNS'
p3172
aS'spaceship_NN'
p3173
aS'france_NN'
p3174
aS'airplane_NN'
p3175
aa(lp3176
S'mars_NNS'
p3177
aS'spaceship_NN'
p3178
aS'moon_NN'
p3179
aS'rocket_NN'
p3180
aa(lp3181
S'mars_NNS'
p3182
aS'spaceship_NN'
p3183
aS'bermuda_NN'
p3184
aS'airplane_NN'
p3185
aa(lp3186
S'mars_NNS'
p3187
aS'spaceship_NN'
p3188
aS'hospital_NN'
p3189
aS'ambulance_NN'
p3190
aa(lp3191
S'mars_NNS'
p3192
aS'spaceship_NN'
p3193
aS'australia_NNS'
p3194
aS'airplane_NN'
p3195
aa(lp3196
S'mars_NNS'
p3197
aS'spaceship_NN'
p3198
aS'canada_NNP'
p3199
aS'car_NN'
p3200
aa(lp3201
S'mars_NNS'
p3202
aS'spaceship_NN'
p3203
aS'downtown_NN'
p3204
aS'subway_NN'
p3205
aa(lp3206
S'mars_NNS'
p3207
aS'spaceship_NN'
p3208
aS'restaurant_NN'
p3209
aS'taxi_NN'
p3210
aa(lp3211
S'mars_NNS'
p3212
aS'spaceship_NN'
p3213
aS'office_NN'
p3214
aS'car_NN'
p3215
aa(lp3216
S'mars_NNS'
p3217
aS'spaceship_NN'
p3218
aS'mall_NN'
p3219
aS'car_NN'
p3220
aa(lp3221
S'mars_NNS'
p3222
aS'spaceship_NN'
p3223
aS'mainland_NN'
p3224
aS'boat_NN'
p3225
aa(lp3226
S'mars_NNS'
p3227
aS'spaceship_NN'
p3228
aS'portland_NN'
p3229
aS'car_NN'
p3230
aa(lp3231
S'mars_NNS'
p3232
aS'spaceship_NN'
p3233
aS'washington_NN'
p3234
aS'train_NN'
p3235
aa(lp3236
S'mars_NNS'
p3237
aS'spaceship_NN'
p3238
aS'theatre_NN'
p3239
aS'limousine_NN'
p3240
aa(lp3241
S'mars_NNS'
p3242
aS'spaceship_NN'
p3243
aS'cemetery_NN'
p3244
aS'hearse_NN'
p3245
aa(lp3246
S'mars_NNS'
p3247
aS'spaceship_NN'
p3248
aS'museum_NN'
p3249
aS'bus_NN'
p3250
aa.