(lp0
(lp1
S'sing_VB'
p2
aS'song_NN'
p3
aS'drink_VB'
p4
aS'water_NN'
p5
aa(lp6
g2
ag3
aS'read_VB'
p7
aS'book_NN'
p8
aa(lp9
g2
ag3
aS'eat_VB'
p10
aS'food_NN'
p11
aa(lp12
g2
ag3
aS'wear_VB'
p13
aS'coat_NN'
p14
aa(lp15
g2
ag3
aS'drive_VB'
p16
aS'car_NN'
p17
aa(lp18
g2
ag3
aS'ride_VB'
p19
aS'horse_NN'
p20
aa(lp21
g2
ag3
aS'give_VB'
p22
aS'gift_NN'
p23
aa(lp24
g2
ag3
aS'attack_VB'
p25
aS'enemy_NN'
p26
aa(lp27
g2
ag3
aS'say_VB'
p28
aS'word_NN'
p29
aa(lp30
g2
ag3
aS'open_VB'
p31
aS'door_NN'
p32
aa(lp33
g2
ag3
aS'climb_VB'
p34
aS'tree_NN'
p35
aa(lp36
g2
ag3
aS'heal_VB'
p37
aS'wound_NN'
p38
aa(lp39
g2
ag3
aS'cure_VB'
p40
aS'disease_NN'
p41
aa(lp42
g2
ag3
aS'paint_VB'
p43
aS'picture_NN'
p44
aa(lp45
g2
ag3
aS'operate_VB'
p46
aS'machine_NN'
p47
aa(lp48
g2
ag3
aS'climb_VB'
p49
aS'ladder_NN'
p50
aa(lp51
g2
ag3
aS'play_VB'
p52
aS'game_NN'
p53
aa(lp54
g2
ag3
aS'play_VB'
p55
aS'movie_NN'
p56
aa(lp57
g2
ag3
aS'pursue_VB'
p58
aS'quarry_NN'
p59
aa(lp60
g2
ag3
aS'chase_VB'
p61
aS'thief_NN'
p62
aa(lp63
g2
ag3
aS'stalk_VB'
p64
aS'prey_NN'
p65
aa(lp66
g2
ag3
aS'hunt_VB'
p67
aS'boar_NN'
p68
aa(lp69
g2
ag3
aS'hunt_VB'
p70
aS'goose_NN'
p71
aa(lp72
g2
ag3
aS'shoot_VB'
p73
aS'gun_NN'
p74
aa(lp75
g2
ag3
aS'shoot_VB'
p76
aS'arrow_NN'
p77
aa(lp78
g2
ag3
aS'reload_VB'
p79
aS'gun_NN'
p80
aa(lp81
g2
ag3
aS'sail_VB'
p82
aS'boat_VB'
p83
aa(lp84
g2
ag3
aS'brush_VB'
p85
aS'hair_NN'
p86
aa(lp87
g2
ag3
aS'write_VB'
p88
aS'letter_NN'
p89
aa(lp90
g2
ag3
aS'write_VB'
p91
aS'book_NN'
p92
aa(lp93
g2
ag3
aS'say_VB'
p94
aS'word_NN'
p95
aa(lp96
g2
ag3
aS'wield_VB'
p97
aS'sword_NN'
p98
aa(lp99
g2
ag3
aS'swing_VB'
p100
aS'sword_NN'
p101
aa(lp102
g2
ag3
aS'carry_VB'
p103
aS'burden_NN'
p104
aa(lp105
g2
ag3
aS'wash_VB'
p106
aS'dishes_NNS'
p107
aa(lp108
g2
ag3
aS'swallow_VB'
p109
aS'pill_NN'
p110
aa(lp111
g2
ag3
aS'stir_VB'
p112
aS'soup_NN'
p113
aa(lp114
g2
ag3
aS'swear_VB'
p115
aS'oath_NN'
p116
aa(lp117
g2
ag3
aS'make_VB'
p118
aS'promise_NN'
p119
aa(lp120
g2
ag3
aS'break_VB'
p121
aS'promise_NN'
p122
aa(lp123
g2
ag3
aS'elect_VB'
p124
aS'president_NN'
p125
aa(lp126
g2
ag3
aS'elect_VB'
p127
aS'congressman_NN'
p128
aa(lp129
g2
ag3
aS'hire_VB'
p130
aS'employee_NN'
p131
aa(lp132
g2
ag3
aS'fire_VB'
p133
aS'employee_NN'
p134
aa(lp135
g2
ag3
aS'compose_VB'
p136
aS'symphony_NN'
p137
aa(lp138
g2
ag3
aS'pet_VB'
p139
aS'cat_NN'
p140
aa(lp141
g2
ag3
aS'swat_VB'
p142
aS'fly_NN'
p143
aa(lp144
g2
ag3
aS'send_VB'
p145
aS'message_NN'
p146
aa(lp147
g2
ag3
aS'send_VB'
p148
aS'text_NN'
p149
aa(lp150
g4
ag5
ag2
ag3
aa(lp151
g4
ag5
ag7
ag8
aa(lp152
g4
ag5
ag10
ag11
aa(lp153
g4
ag5
ag13
ag14
aa(lp154
g4
ag5
ag16
ag17
aa(lp155
g4
ag5
ag19
ag20
aa(lp156
g4
ag5
ag22
ag23
aa(lp157
g4
ag5
ag25
ag26
aa(lp158
g4
ag5
ag28
ag29
aa(lp159
g4
ag5
ag31
ag32
aa(lp160
g4
ag5
ag34
ag35
aa(lp161
g4
ag5
ag37
ag38
aa(lp162
g4
ag5
ag40
ag41
aa(lp163
g4
ag5
ag43
ag44
aa(lp164
g4
ag5
ag46
ag47
aa(lp165
g4
ag5
ag49
ag50
aa(lp166
g4
ag5
ag52
ag53
aa(lp167
g4
ag5
ag55
ag56
aa(lp168
g4
ag5
ag58
ag59
aa(lp169
g4
ag5
ag61
ag62
aa(lp170
g4
ag5
ag64
ag65
aa(lp171
g4
ag5
ag67
ag68
aa(lp172
g4
ag5
ag70
ag71
aa(lp173
g4
ag5
ag73
ag74
aa(lp174
g4
ag5
ag76
ag77
aa(lp175
g4
ag5
ag79
ag80
aa(lp176
g4
ag5
ag82
ag83
aa(lp177
g4
ag5
ag85
ag86
aa(lp178
g4
ag5
ag88
ag89
aa(lp179
g4
ag5
ag91
ag92
aa(lp180
g4
ag5
ag94
ag95
aa(lp181
g4
ag5
ag97
ag98
aa(lp182
g4
ag5
ag100
ag101
aa(lp183
g4
ag5
ag103
ag104
aa(lp184
g4
ag5
ag106
ag107
aa(lp185
g4
ag5
ag109
ag110
aa(lp186
g4
ag5
ag112
ag113
aa(lp187
g4
ag5
ag115
ag116
aa(lp188
g4
ag5
ag118
ag119
aa(lp189
g4
ag5
ag121
ag122
aa(lp190
g4
ag5
ag124
ag125
aa(lp191
g4
ag5
ag127
ag128
aa(lp192
g4
ag5
ag130
ag131
aa(lp193
g4
ag5
ag133
ag134
aa(lp194
g4
ag5
ag136
ag137
aa(lp195
g4
ag5
ag139
ag140
aa(lp196
g4
ag5
ag142
ag143
aa(lp197
g4
ag5
ag145
ag146
aa(lp198
g4
ag5
ag148
ag149
aa(lp199
g7
ag8
ag2
ag3
aa(lp200
g7
ag8
ag4
ag5
aa(lp201
g7
ag8
ag10
ag11
aa(lp202
g7
ag8
ag13
ag14
aa(lp203
g7
ag8
ag16
ag17
aa(lp204
g7
ag8
ag19
ag20
aa(lp205
g7
ag8
ag22
ag23
aa(lp206
g7
ag8
ag25
ag26
aa(lp207
g7
ag8
ag28
ag29
aa(lp208
g7
ag8
ag31
ag32
aa(lp209
g7
ag8
ag34
ag35
aa(lp210
g7
ag8
ag37
ag38
aa(lp211
g7
ag8
ag40
ag41
aa(lp212
g7
ag8
ag43
ag44
aa(lp213
g7
ag8
ag46
ag47
aa(lp214
g7
ag8
ag49
ag50
aa(lp215
g7
ag8
ag52
ag53
aa(lp216
g7
ag8
ag55
ag56
aa(lp217
g7
ag8
ag58
ag59
aa(lp218
g7
ag8
ag61
ag62
aa(lp219
g7
ag8
ag64
ag65
aa(lp220
g7
ag8
ag67
ag68
aa(lp221
g7
ag8
ag70
ag71
aa(lp222
g7
ag8
ag73
ag74
aa(lp223
g7
ag8
ag76
ag77
aa(lp224
g7
ag8
ag79
ag80
aa(lp225
g7
ag8
ag82
ag83
aa(lp226
g7
ag8
ag85
ag86
aa(lp227
g7
ag8
ag88
ag89
aa(lp228
g7
ag8
ag91
ag92
aa(lp229
g7
ag8
ag94
ag95
aa(lp230
g7
ag8
ag97
ag98
aa(lp231
g7
ag8
ag100
ag101
aa(lp232
g7
ag8
ag103
ag104
aa(lp233
g7
ag8
ag106
ag107
aa(lp234
g7
ag8
ag109
ag110
aa(lp235
g7
ag8
ag112
ag113
aa(lp236
g7
ag8
ag115
ag116
aa(lp237
g7
ag8
ag118
ag119
aa(lp238
g7
ag8
ag121
ag122
aa(lp239
g7
ag8
ag124
ag125
aa(lp240
g7
ag8
ag127
ag128
aa(lp241
g7
ag8
ag130
ag131
aa(lp242
g7
ag8
ag133
ag134
aa(lp243
g7
ag8
ag136
ag137
aa(lp244
g7
ag8
ag139
ag140
aa(lp245
g7
ag8
ag142
ag143
aa(lp246
g7
ag8
ag145
ag146
aa(lp247
g7
ag8
ag148
ag149
aa(lp248
g10
ag11
ag2
ag3
aa(lp249
g10
ag11
ag4
ag5
aa(lp250
g10
ag11
ag7
ag8
aa(lp251
g10
ag11
ag13
ag14
aa(lp252
g10
ag11
ag16
ag17
aa(lp253
g10
ag11
ag19
ag20
aa(lp254
g10
ag11
ag22
ag23
aa(lp255
g10
ag11
ag25
ag26
aa(lp256
g10
ag11
ag28
ag29
aa(lp257
g10
ag11
ag31
ag32
aa(lp258
g10
ag11
ag34
ag35
aa(lp259
g10
ag11
ag37
ag38
aa(lp260
g10
ag11
ag40
ag41
aa(lp261
g10
ag11
ag43
ag44
aa(lp262
g10
ag11
ag46
ag47
aa(lp263
g10
ag11
ag49
ag50
aa(lp264
g10
ag11
ag52
ag53
aa(lp265
g10
ag11
ag55
ag56
aa(lp266
g10
ag11
ag58
ag59
aa(lp267
g10
ag11
ag61
ag62
aa(lp268
g10
ag11
ag64
ag65
aa(lp269
g10
ag11
ag67
ag68
aa(lp270
g10
ag11
ag70
ag71
aa(lp271
g10
ag11
ag73
ag74
aa(lp272
g10
ag11
ag76
ag77
aa(lp273
g10
ag11
ag79
ag80
aa(lp274
g10
ag11
ag82
ag83
aa(lp275
g10
ag11
ag85
ag86
aa(lp276
g10
ag11
ag88
ag89
aa(lp277
g10
ag11
ag91
ag92
aa(lp278
g10
ag11
ag94
ag95
aa(lp279
g10
ag11
ag97
ag98
aa(lp280
g10
ag11
ag100
ag101
aa(lp281
g10
ag11
ag103
ag104
aa(lp282
g10
ag11
ag106
ag107
aa(lp283
g10
ag11
ag109
ag110
aa(lp284
g10
ag11
ag112
ag113
aa(lp285
g10
ag11
ag115
ag116
aa(lp286
g10
ag11
ag118
ag119
aa(lp287
g10
ag11
ag121
ag122
aa(lp288
g10
ag11
ag124
ag125
aa(lp289
g10
ag11
ag127
ag128
aa(lp290
g10
ag11
ag130
ag131
aa(lp291
g10
ag11
ag133
ag134
aa(lp292
g10
ag11
ag136
ag137
aa(lp293
g10
ag11
ag139
ag140
aa(lp294
g10
ag11
ag142
ag143
aa(lp295
g10
ag11
ag145
ag146
aa(lp296
g10
ag11
ag148
ag149
aa(lp297
g13
ag14
ag2
ag3
aa(lp298
g13
ag14
ag4
ag5
aa(lp299
g13
ag14
ag7
ag8
aa(lp300
g13
ag14
ag10
ag11
aa(lp301
g13
ag14
ag16
ag17
aa(lp302
g13
ag14
ag19
ag20
aa(lp303
g13
ag14
ag22
ag23
aa(lp304
g13
ag14
ag25
ag26
aa(lp305
g13
ag14
ag28
ag29
aa(lp306
g13
ag14
ag31
ag32
aa(lp307
g13
ag14
ag34
ag35
aa(lp308
g13
ag14
ag37
ag38
aa(lp309
g13
ag14
ag40
ag41
aa(lp310
g13
ag14
ag43
ag44
aa(lp311
g13
ag14
ag46
ag47
aa(lp312
g13
ag14
ag49
ag50
aa(lp313
g13
ag14
ag52
ag53
aa(lp314
g13
ag14
ag55
ag56
aa(lp315
g13
ag14
ag58
ag59
aa(lp316
g13
ag14
ag61
ag62
aa(lp317
g13
ag14
ag64
ag65
aa(lp318
g13
ag14
ag67
ag68
aa(lp319
g13
ag14
ag70
ag71
aa(lp320
g13
ag14
ag73
ag74
aa(lp321
g13
ag14
ag76
ag77
aa(lp322
g13
ag14
ag79
ag80
aa(lp323
g13
ag14
ag82
ag83
aa(lp324
g13
ag14
ag85
ag86
aa(lp325
g13
ag14
ag88
ag89
aa(lp326
g13
ag14
ag91
ag92
aa(lp327
g13
ag14
ag94
ag95
aa(lp328
g13
ag14
ag97
ag98
aa(lp329
g13
ag14
ag100
ag101
aa(lp330
g13
ag14
ag103
ag104
aa(lp331
g13
ag14
ag106
ag107
aa(lp332
g13
ag14
ag109
ag110
aa(lp333
g13
ag14
ag112
ag113
aa(lp334
g13
ag14
ag115
ag116
aa(lp335
g13
ag14
ag118
ag119
aa(lp336
g13
ag14
ag121
ag122
aa(lp337
g13
ag14
ag124
ag125
aa(lp338
g13
ag14
ag127
ag128
aa(lp339
g13
ag14
ag130
ag131
aa(lp340
g13
ag14
ag133
ag134
aa(lp341
g13
ag14
ag136
ag137
aa(lp342
g13
ag14
ag139
ag140
aa(lp343
g13
ag14
ag142
ag143
aa(lp344
g13
ag14
ag145
ag146
aa(lp345
g13
ag14
ag148
ag149
aa(lp346
g16
ag17
ag2
ag3
aa(lp347
g16
ag17
ag4
ag5
aa(lp348
g16
ag17
ag7
ag8
aa(lp349
g16
ag17
ag10
ag11
aa(lp350
g16
ag17
ag13
ag14
aa(lp351
g16
ag17
ag19
ag20
aa(lp352
g16
ag17
ag22
ag23
aa(lp353
g16
ag17
ag25
ag26
aa(lp354
g16
ag17
ag28
ag29
aa(lp355
g16
ag17
ag31
ag32
aa(lp356
g16
ag17
ag34
ag35
aa(lp357
g16
ag17
ag37
ag38
aa(lp358
g16
ag17
ag40
ag41
aa(lp359
g16
ag17
ag43
ag44
aa(lp360
g16
ag17
ag46
ag47
aa(lp361
g16
ag17
ag49
ag50
aa(lp362
g16
ag17
ag52
ag53
aa(lp363
g16
ag17
ag55
ag56
aa(lp364
g16
ag17
ag58
ag59
aa(lp365
g16
ag17
ag61
ag62
aa(lp366
g16
ag17
ag64
ag65
aa(lp367
g16
ag17
ag67
ag68
aa(lp368
g16
ag17
ag70
ag71
aa(lp369
g16
ag17
ag73
ag74
aa(lp370
g16
ag17
ag76
ag77
aa(lp371
g16
ag17
ag79
ag80
aa(lp372
g16
ag17
ag82
ag83
aa(lp373
g16
ag17
ag85
ag86
aa(lp374
g16
ag17
ag88
ag89
aa(lp375
g16
ag17
ag91
ag92
aa(lp376
g16
ag17
ag94
ag95
aa(lp377
g16
ag17
ag97
ag98
aa(lp378
g16
ag17
ag100
ag101
aa(lp379
g16
ag17
ag103
ag104
aa(lp380
g16
ag17
ag106
ag107
aa(lp381
g16
ag17
ag109
ag110
aa(lp382
g16
ag17
ag112
ag113
aa(lp383
g16
ag17
ag115
ag116
aa(lp384
g16
ag17
ag118
ag119
aa(lp385
g16
ag17
ag121
ag122
aa(lp386
g16
ag17
ag124
ag125
aa(lp387
g16
ag17
ag127
ag128
aa(lp388
g16
ag17
ag130
ag131
aa(lp389
g16
ag17
ag133
ag134
aa(lp390
g16
ag17
ag136
ag137
aa(lp391
g16
ag17
ag139
ag140
aa(lp392
g16
ag17
ag142
ag143
aa(lp393
g16
ag17
ag145
ag146
aa(lp394
g16
ag17
ag148
ag149
aa(lp395
g19
ag20
ag2
ag3
aa(lp396
g19
ag20
ag4
ag5
aa(lp397
g19
ag20
ag7
ag8
aa(lp398
g19
ag20
ag10
ag11
aa(lp399
g19
ag20
ag13
ag14
aa(lp400
g19
ag20
ag16
ag17
aa(lp401
g19
ag20
ag22
ag23
aa(lp402
g19
ag20
ag25
ag26
aa(lp403
g19
ag20
ag28
ag29
aa(lp404
g19
ag20
ag31
ag32
aa(lp405
g19
ag20
ag34
ag35
aa(lp406
g19
ag20
ag37
ag38
aa(lp407
g19
ag20
ag40
ag41
aa(lp408
g19
ag20
ag43
ag44
aa(lp409
g19
ag20
ag46
ag47
aa(lp410
g19
ag20
ag49
ag50
aa(lp411
g19
ag20
ag52
ag53
aa(lp412
g19
ag20
ag55
ag56
aa(lp413
g19
ag20
ag58
ag59
aa(lp414
g19
ag20
ag61
ag62
aa(lp415
g19
ag20
ag64
ag65
aa(lp416
g19
ag20
ag67
ag68
aa(lp417
g19
ag20
ag70
ag71
aa(lp418
g19
ag20
ag73
ag74
aa(lp419
g19
ag20
ag76
ag77
aa(lp420
g19
ag20
ag79
ag80
aa(lp421
g19
ag20
ag82
ag83
aa(lp422
g19
ag20
ag85
ag86
aa(lp423
g19
ag20
ag88
ag89
aa(lp424
g19
ag20
ag91
ag92
aa(lp425
g19
ag20
ag94
ag95
aa(lp426
g19
ag20
ag97
ag98
aa(lp427
g19
ag20
ag100
ag101
aa(lp428
g19
ag20
ag103
ag104
aa(lp429
g19
ag20
ag106
ag107
aa(lp430
g19
ag20
ag109
ag110
aa(lp431
g19
ag20
ag112
ag113
aa(lp432
g19
ag20
ag115
ag116
aa(lp433
g19
ag20
ag118
ag119
aa(lp434
g19
ag20
ag121
ag122
aa(lp435
g19
ag20
ag124
ag125
aa(lp436
g19
ag20
ag127
ag128
aa(lp437
g19
ag20
ag130
ag131
aa(lp438
g19
ag20
ag133
ag134
aa(lp439
g19
ag20
ag136
ag137
aa(lp440
g19
ag20
ag139
ag140
aa(lp441
g19
ag20
ag142
ag143
aa(lp442
g19
ag20
ag145
ag146
aa(lp443
g19
ag20
ag148
ag149
aa(lp444
g22
ag23
ag2
ag3
aa(lp445
g22
ag23
ag4
ag5
aa(lp446
g22
ag23
ag7
ag8
aa(lp447
g22
ag23
ag10
ag11
aa(lp448
g22
ag23
ag13
ag14
aa(lp449
g22
ag23
ag16
ag17
aa(lp450
g22
ag23
ag19
ag20
aa(lp451
g22
ag23
ag25
ag26
aa(lp452
g22
ag23
ag28
ag29
aa(lp453
g22
ag23
ag31
ag32
aa(lp454
g22
ag23
ag34
ag35
aa(lp455
g22
ag23
ag37
ag38
aa(lp456
g22
ag23
ag40
ag41
aa(lp457
g22
ag23
ag43
ag44
aa(lp458
g22
ag23
ag46
ag47
aa(lp459
g22
ag23
ag49
ag50
aa(lp460
g22
ag23
ag52
ag53
aa(lp461
g22
ag23
ag55
ag56
aa(lp462
g22
ag23
ag58
ag59
aa(lp463
g22
ag23
ag61
ag62
aa(lp464
g22
ag23
ag64
ag65
aa(lp465
g22
ag23
ag67
ag68
aa(lp466
g22
ag23
ag70
ag71
aa(lp467
g22
ag23
ag73
ag74
aa(lp468
g22
ag23
ag76
ag77
aa(lp469
g22
ag23
ag79
ag80
aa(lp470
g22
ag23
ag82
ag83
aa(lp471
g22
ag23
ag85
ag86
aa(lp472
g22
ag23
ag88
ag89
aa(lp473
g22
ag23
ag91
ag92
aa(lp474
g22
ag23
ag94
ag95
aa(lp475
g22
ag23
ag97
ag98
aa(lp476
g22
ag23
ag100
ag101
aa(lp477
g22
ag23
ag103
ag104
aa(lp478
g22
ag23
ag106
ag107
aa(lp479
g22
ag23
ag109
ag110
aa(lp480
g22
ag23
ag112
ag113
aa(lp481
g22
ag23
ag115
ag116
aa(lp482
g22
ag23
ag118
ag119
aa(lp483
g22
ag23
ag121
ag122
aa(lp484
g22
ag23
ag124
ag125
aa(lp485
g22
ag23
ag127
ag128
aa(lp486
g22
ag23
ag130
ag131
aa(lp487
g22
ag23
ag133
ag134
aa(lp488
g22
ag23
ag136
ag137
aa(lp489
g22
ag23
ag139
ag140
aa(lp490
g22
ag23
ag142
ag143
aa(lp491
g22
ag23
ag145
ag146
aa(lp492
g22
ag23
ag148
ag149
aa(lp493
g25
ag26
ag2
ag3
aa(lp494
g25
ag26
ag4
ag5
aa(lp495
g25
ag26
ag7
ag8
aa(lp496
g25
ag26
ag10
ag11
aa(lp497
g25
ag26
ag13
ag14
aa(lp498
g25
ag26
ag16
ag17
aa(lp499
g25
ag26
ag19
ag20
aa(lp500
g25
ag26
ag22
ag23
aa(lp501
g25
ag26
ag28
ag29
aa(lp502
g25
ag26
ag31
ag32
aa(lp503
g25
ag26
ag34
ag35
aa(lp504
g25
ag26
ag37
ag38
aa(lp505
g25
ag26
ag40
ag41
aa(lp506
g25
ag26
ag43
ag44
aa(lp507
g25
ag26
ag46
ag47
aa(lp508
g25
ag26
ag49
ag50
aa(lp509
g25
ag26
ag52
ag53
aa(lp510
g25
ag26
ag55
ag56
aa(lp511
g25
ag26
ag58
ag59
aa(lp512
g25
ag26
ag61
ag62
aa(lp513
g25
ag26
ag64
ag65
aa(lp514
g25
ag26
ag67
ag68
aa(lp515
g25
ag26
ag70
ag71
aa(lp516
g25
ag26
ag73
ag74
aa(lp517
g25
ag26
ag76
ag77
aa(lp518
g25
ag26
ag79
ag80
aa(lp519
g25
ag26
ag82
ag83
aa(lp520
g25
ag26
ag85
ag86
aa(lp521
g25
ag26
ag88
ag89
aa(lp522
g25
ag26
ag91
ag92
aa(lp523
g25
ag26
ag94
ag95
aa(lp524
g25
ag26
ag97
ag98
aa(lp525
g25
ag26
ag100
ag101
aa(lp526
g25
ag26
ag103
ag104
aa(lp527
g25
ag26
ag106
ag107
aa(lp528
g25
ag26
ag109
ag110
aa(lp529
g25
ag26
ag112
ag113
aa(lp530
g25
ag26
ag115
ag116
aa(lp531
g25
ag26
ag118
ag119
aa(lp532
g25
ag26
ag121
ag122
aa(lp533
g25
ag26
ag124
ag125
aa(lp534
g25
ag26
ag127
ag128
aa(lp535
g25
ag26
ag130
ag131
aa(lp536
g25
ag26
ag133
ag134
aa(lp537
g25
ag26
ag136
ag137
aa(lp538
g25
ag26
ag139
ag140
aa(lp539
g25
ag26
ag142
ag143
aa(lp540
g25
ag26
ag145
ag146
aa(lp541
g25
ag26
ag148
ag149
aa(lp542
g28
ag29
ag2
ag3
aa(lp543
g28
ag29
ag4
ag5
aa(lp544
g28
ag29
ag7
ag8
aa(lp545
g28
ag29
ag10
ag11
aa(lp546
g28
ag29
ag13
ag14
aa(lp547
g28
ag29
ag16
ag17
aa(lp548
g28
ag29
ag19
ag20
aa(lp549
g28
ag29
ag22
ag23
aa(lp550
g28
ag29
ag25
ag26
aa(lp551
g28
ag29
ag31
ag32
aa(lp552
g28
ag29
ag34
ag35
aa(lp553
g28
ag29
ag37
ag38
aa(lp554
g28
ag29
ag40
ag41
aa(lp555
g28
ag29
ag43
ag44
aa(lp556
g28
ag29
ag46
ag47
aa(lp557
g28
ag29
ag49
ag50
aa(lp558
g28
ag29
ag52
ag53
aa(lp559
g28
ag29
ag55
ag56
aa(lp560
g28
ag29
ag58
ag59
aa(lp561
g28
ag29
ag61
ag62
aa(lp562
g28
ag29
ag64
ag65
aa(lp563
g28
ag29
ag67
ag68
aa(lp564
g28
ag29
ag70
ag71
aa(lp565
g28
ag29
ag73
ag74
aa(lp566
g28
ag29
ag76
ag77
aa(lp567
g28
ag29
ag79
ag80
aa(lp568
g28
ag29
ag82
ag83
aa(lp569
g28
ag29
ag85
ag86
aa(lp570
g28
ag29
ag88
ag89
aa(lp571
g28
ag29
ag91
ag92
aa(lp572
g28
ag29
ag97
ag98
aa(lp573
g28
ag29
ag100
ag101
aa(lp574
g28
ag29
ag103
ag104
aa(lp575
g28
ag29
ag106
ag107
aa(lp576
g28
ag29
ag109
ag110
aa(lp577
g28
ag29
ag112
ag113
aa(lp578
g28
ag29
ag115
ag116
aa(lp579
g28
ag29
ag118
ag119
aa(lp580
g28
ag29
ag121
ag122
aa(lp581
g28
ag29
ag124
ag125
aa(lp582
g28
ag29
ag127
ag128
aa(lp583
g28
ag29
ag130
ag131
aa(lp584
g28
ag29
ag133
ag134
aa(lp585
g28
ag29
ag136
ag137
aa(lp586
g28
ag29
ag139
ag140
aa(lp587
g28
ag29
ag142
ag143
aa(lp588
g28
ag29
ag145
ag146
aa(lp589
g28
ag29
ag148
ag149
aa(lp590
g31
ag32
ag2
ag3
aa(lp591
g31
ag32
ag4
ag5
aa(lp592
g31
ag32
ag7
ag8
aa(lp593
g31
ag32
ag10
ag11
aa(lp594
g31
ag32
ag13
ag14
aa(lp595
g31
ag32
ag16
ag17
aa(lp596
g31
ag32
ag19
ag20
aa(lp597
g31
ag32
ag22
ag23
aa(lp598
g31
ag32
ag25
ag26
aa(lp599
g31
ag32
ag28
ag29
aa(lp600
g31
ag32
ag34
ag35
aa(lp601
g31
ag32
ag37
ag38
aa(lp602
g31
ag32
ag40
ag41
aa(lp603
g31
ag32
ag43
ag44
aa(lp604
g31
ag32
ag46
ag47
aa(lp605
g31
ag32
ag49
ag50
aa(lp606
g31
ag32
ag52
ag53
aa(lp607
g31
ag32
ag55
ag56
aa(lp608
g31
ag32
ag58
ag59
aa(lp609
g31
ag32
ag61
ag62
aa(lp610
g31
ag32
ag64
ag65
aa(lp611
g31
ag32
ag67
ag68
aa(lp612
g31
ag32
ag70
ag71
aa(lp613
g31
ag32
ag73
ag74
aa(lp614
g31
ag32
ag76
ag77
aa(lp615
g31
ag32
ag79
ag80
aa(lp616
g31
ag32
ag82
ag83
aa(lp617
g31
ag32
ag85
ag86
aa(lp618
g31
ag32
ag88
ag89
aa(lp619
g31
ag32
ag91
ag92
aa(lp620
g31
ag32
ag94
ag95
aa(lp621
g31
ag32
ag97
ag98
aa(lp622
g31
ag32
ag100
ag101
aa(lp623
g31
ag32
ag103
ag104
aa(lp624
g31
ag32
ag106
ag107
aa(lp625
g31
ag32
ag109
ag110
aa(lp626
g31
ag32
ag112
ag113
aa(lp627
g31
ag32
ag115
ag116
aa(lp628
g31
ag32
ag118
ag119
aa(lp629
g31
ag32
ag121
ag122
aa(lp630
g31
ag32
ag124
ag125
aa(lp631
g31
ag32
ag127
ag128
aa(lp632
g31
ag32
ag130
ag131
aa(lp633
g31
ag32
ag133
ag134
aa(lp634
g31
ag32
ag136
ag137
aa(lp635
g31
ag32
ag139
ag140
aa(lp636
g31
ag32
ag142
ag143
aa(lp637
g31
ag32
ag145
ag146
aa(lp638
g31
ag32
ag148
ag149
aa(lp639
g34
ag35
ag2
ag3
aa(lp640
g34
ag35
ag4
ag5
aa(lp641
g34
ag35
ag7
ag8
aa(lp642
g34
ag35
ag10
ag11
aa(lp643
g34
ag35
ag13
ag14
aa(lp644
g34
ag35
ag16
ag17
aa(lp645
g34
ag35
ag19
ag20
aa(lp646
g34
ag35
ag22
ag23
aa(lp647
g34
ag35
ag25
ag26
aa(lp648
g34
ag35
ag28
ag29
aa(lp649
g34
ag35
ag31
ag32
aa(lp650
g34
ag35
ag37
ag38
aa(lp651
g34
ag35
ag40
ag41
aa(lp652
g34
ag35
ag43
ag44
aa(lp653
g34
ag35
ag46
ag47
aa(lp654
g34
ag35
ag49
ag50
aa(lp655
g34
ag35
ag52
ag53
aa(lp656
g34
ag35
ag55
ag56
aa(lp657
g34
ag35
ag58
ag59
aa(lp658
g34
ag35
ag61
ag62
aa(lp659
g34
ag35
ag64
ag65
aa(lp660
g34
ag35
ag67
ag68
aa(lp661
g34
ag35
ag70
ag71
aa(lp662
g34
ag35
ag73
ag74
aa(lp663
g34
ag35
ag76
ag77
aa(lp664
g34
ag35
ag79
ag80
aa(lp665
g34
ag35
ag82
ag83
aa(lp666
g34
ag35
ag85
ag86
aa(lp667
g34
ag35
ag88
ag89
aa(lp668
g34
ag35
ag91
ag92
aa(lp669
g34
ag35
ag94
ag95
aa(lp670
g34
ag35
ag97
ag98
aa(lp671
g34
ag35
ag100
ag101
aa(lp672
g34
ag35
ag103
ag104
aa(lp673
g34
ag35
ag106
ag107
aa(lp674
g34
ag35
ag109
ag110
aa(lp675
g34
ag35
ag112
ag113
aa(lp676
g34
ag35
ag115
ag116
aa(lp677
g34
ag35
ag118
ag119
aa(lp678
g34
ag35
ag121
ag122
aa(lp679
g34
ag35
ag124
ag125
aa(lp680
g34
ag35
ag127
ag128
aa(lp681
g34
ag35
ag130
ag131
aa(lp682
g34
ag35
ag133
ag134
aa(lp683
g34
ag35
ag136
ag137
aa(lp684
g34
ag35
ag139
ag140
aa(lp685
g34
ag35
ag142
ag143
aa(lp686
g34
ag35
ag145
ag146
aa(lp687
g34
ag35
ag148
ag149
aa(lp688
g37
ag38
ag2
ag3
aa(lp689
g37
ag38
ag4
ag5
aa(lp690
g37
ag38
ag7
ag8
aa(lp691
g37
ag38
ag10
ag11
aa(lp692
g37
ag38
ag13
ag14
aa(lp693
g37
ag38
ag16
ag17
aa(lp694
g37
ag38
ag19
ag20
aa(lp695
g37
ag38
ag22
ag23
aa(lp696
g37
ag38
ag25
ag26
aa(lp697
g37
ag38
ag28
ag29
aa(lp698
g37
ag38
ag31
ag32
aa(lp699
g37
ag38
ag34
ag35
aa(lp700
g37
ag38
ag40
ag41
aa(lp701
g37
ag38
ag43
ag44
aa(lp702
g37
ag38
ag46
ag47
aa(lp703
g37
ag38
ag49
ag50
aa(lp704
g37
ag38
ag52
ag53
aa(lp705
g37
ag38
ag55
ag56
aa(lp706
g37
ag38
ag58
ag59
aa(lp707
g37
ag38
ag61
ag62
aa(lp708
g37
ag38
ag64
ag65
aa(lp709
g37
ag38
ag67
ag68
aa(lp710
g37
ag38
ag70
ag71
aa(lp711
g37
ag38
ag73
ag74
aa(lp712
g37
ag38
ag76
ag77
aa(lp713
g37
ag38
ag79
ag80
aa(lp714
g37
ag38
ag82
ag83
aa(lp715
g37
ag38
ag85
ag86
aa(lp716
g37
ag38
ag88
ag89
aa(lp717
g37
ag38
ag91
ag92
aa(lp718
g37
ag38
ag94
ag95
aa(lp719
g37
ag38
ag97
ag98
aa(lp720
g37
ag38
ag100
ag101
aa(lp721
g37
ag38
ag103
ag104
aa(lp722
g37
ag38
ag106
ag107
aa(lp723
g37
ag38
ag109
ag110
aa(lp724
g37
ag38
ag112
ag113
aa(lp725
g37
ag38
ag115
ag116
aa(lp726
g37
ag38
ag118
ag119
aa(lp727
g37
ag38
ag121
ag122
aa(lp728
g37
ag38
ag124
ag125
aa(lp729
g37
ag38
ag127
ag128
aa(lp730
g37
ag38
ag130
ag131
aa(lp731
g37
ag38
ag133
ag134
aa(lp732
g37
ag38
ag136
ag137
aa(lp733
g37
ag38
ag139
ag140
aa(lp734
g37
ag38
ag142
ag143
aa(lp735
g37
ag38
ag145
ag146
aa(lp736
g37
ag38
ag148
ag149
aa(lp737
g40
ag41
ag2
ag3
aa(lp738
g40
ag41
ag4
ag5
aa(lp739
g40
ag41
ag7
ag8
aa(lp740
g40
ag41
ag10
ag11
aa(lp741
g40
ag41
ag13
ag14
aa(lp742
g40
ag41
ag16
ag17
aa(lp743
g40
ag41
ag19
ag20
aa(lp744
g40
ag41
ag22
ag23
aa(lp745
g40
ag41
ag25
ag26
aa(lp746
g40
ag41
ag28
ag29
aa(lp747
g40
ag41
ag31
ag32
aa(lp748
g40
ag41
ag34
ag35
aa(lp749
g40
ag41
ag37
ag38
aa(lp750
g40
ag41
ag43
ag44
aa(lp751
g40
ag41
ag46
ag47
aa(lp752
g40
ag41
ag49
ag50
aa(lp753
g40
ag41
ag52
ag53
aa(lp754
g40
ag41
ag55
ag56
aa(lp755
g40
ag41
ag58
ag59
aa(lp756
g40
ag41
ag61
ag62
aa(lp757
g40
ag41
ag64
ag65
aa(lp758
g40
ag41
ag67
ag68
aa(lp759
g40
ag41
ag70
ag71
aa(lp760
g40
ag41
ag73
ag74
aa(lp761
g40
ag41
ag76
ag77
aa(lp762
g40
ag41
ag79
ag80
aa(lp763
g40
ag41
ag82
ag83
aa(lp764
g40
ag41
ag85
ag86
aa(lp765
g40
ag41
ag88
ag89
aa(lp766
g40
ag41
ag91
ag92
aa(lp767
g40
ag41
ag94
ag95
aa(lp768
g40
ag41
ag97
ag98
aa(lp769
g40
ag41
ag100
ag101
aa(lp770
g40
ag41
ag103
ag104
aa(lp771
g40
ag41
ag106
ag107
aa(lp772
g40
ag41
ag109
ag110
aa(lp773
g40
ag41
ag112
ag113
aa(lp774
g40
ag41
ag115
ag116
aa(lp775
g40
ag41
ag118
ag119
aa(lp776
g40
ag41
ag121
ag122
aa(lp777
g40
ag41
ag124
ag125
aa(lp778
g40
ag41
ag127
ag128
aa(lp779
g40
ag41
ag130
ag131
aa(lp780
g40
ag41
ag133
ag134
aa(lp781
g40
ag41
ag136
ag137
aa(lp782
g40
ag41
ag139
ag140
aa(lp783
g40
ag41
ag142
ag143
aa(lp784
g40
ag41
ag145
ag146
aa(lp785
g40
ag41
ag148
ag149
aa(lp786
g43
ag44
ag2
ag3
aa(lp787
g43
ag44
ag4
ag5
aa(lp788
g43
ag44
ag7
ag8
aa(lp789
g43
ag44
ag10
ag11
aa(lp790
g43
ag44
ag13
ag14
aa(lp791
g43
ag44
ag16
ag17
aa(lp792
g43
ag44
ag19
ag20
aa(lp793
g43
ag44
ag22
ag23
aa(lp794
g43
ag44
ag25
ag26
aa(lp795
g43
ag44
ag28
ag29
aa(lp796
g43
ag44
ag31
ag32
aa(lp797
g43
ag44
ag34
ag35
aa(lp798
g43
ag44
ag37
ag38
aa(lp799
g43
ag44
ag40
ag41
aa(lp800
g43
ag44
ag46
ag47
aa(lp801
g43
ag44
ag49
ag50
aa(lp802
g43
ag44
ag52
ag53
aa(lp803
g43
ag44
ag55
ag56
aa(lp804
g43
ag44
ag58
ag59
aa(lp805
g43
ag44
ag61
ag62
aa(lp806
g43
ag44
ag64
ag65
aa(lp807
g43
ag44
ag67
ag68
aa(lp808
g43
ag44
ag70
ag71
aa(lp809
g43
ag44
ag73
ag74
aa(lp810
g43
ag44
ag76
ag77
aa(lp811
g43
ag44
ag79
ag80
aa(lp812
g43
ag44
ag82
ag83
aa(lp813
g43
ag44
ag85
ag86
aa(lp814
g43
ag44
ag88
ag89
aa(lp815
g43
ag44
ag91
ag92
aa(lp816
g43
ag44
ag94
ag95
aa(lp817
g43
ag44
ag97
ag98
aa(lp818
g43
ag44
ag100
ag101
aa(lp819
g43
ag44
ag103
ag104
aa(lp820
g43
ag44
ag106
ag107
aa(lp821
g43
ag44
ag109
ag110
aa(lp822
g43
ag44
ag112
ag113
aa(lp823
g43
ag44
ag115
ag116
aa(lp824
g43
ag44
ag118
ag119
aa(lp825
g43
ag44
ag121
ag122
aa(lp826
g43
ag44
ag124
ag125
aa(lp827
g43
ag44
ag127
ag128
aa(lp828
g43
ag44
ag130
ag131
aa(lp829
g43
ag44
ag133
ag134
aa(lp830
g43
ag44
ag136
ag137
aa(lp831
g43
ag44
ag139
ag140
aa(lp832
g43
ag44
ag142
ag143
aa(lp833
g43
ag44
ag145
ag146
aa(lp834
g43
ag44
ag148
ag149
aa(lp835
g46
ag47
ag2
ag3
aa(lp836
g46
ag47
ag4
ag5
aa(lp837
g46
ag47
ag7
ag8
aa(lp838
g46
ag47
ag10
ag11
aa(lp839
g46
ag47
ag13
ag14
aa(lp840
g46
ag47
ag16
ag17
aa(lp841
g46
ag47
ag19
ag20
aa(lp842
g46
ag47
ag22
ag23
aa(lp843
g46
ag47
ag25
ag26
aa(lp844
g46
ag47
ag28
ag29
aa(lp845
g46
ag47
ag31
ag32
aa(lp846
g46
ag47
ag34
ag35
aa(lp847
g46
ag47
ag37
ag38
aa(lp848
g46
ag47
ag40
ag41
aa(lp849
g46
ag47
ag43
ag44
aa(lp850
g46
ag47
ag49
ag50
aa(lp851
g46
ag47
ag52
ag53
aa(lp852
g46
ag47
ag55
ag56
aa(lp853
g46
ag47
ag58
ag59
aa(lp854
g46
ag47
ag61
ag62
aa(lp855
g46
ag47
ag64
ag65
aa(lp856
g46
ag47
ag67
ag68
aa(lp857
g46
ag47
ag70
ag71
aa(lp858
g46
ag47
ag73
ag74
aa(lp859
g46
ag47
ag76
ag77
aa(lp860
g46
ag47
ag79
ag80
aa(lp861
g46
ag47
ag82
ag83
aa(lp862
g46
ag47
ag85
ag86
aa(lp863
g46
ag47
ag88
ag89
aa(lp864
g46
ag47
ag91
ag92
aa(lp865
g46
ag47
ag94
ag95
aa(lp866
g46
ag47
ag97
ag98
aa(lp867
g46
ag47
ag100
ag101
aa(lp868
g46
ag47
ag103
ag104
aa(lp869
g46
ag47
ag106
ag107
aa(lp870
g46
ag47
ag109
ag110
aa(lp871
g46
ag47
ag112
ag113
aa(lp872
g46
ag47
ag115
ag116
aa(lp873
g46
ag47
ag118
ag119
aa(lp874
g46
ag47
ag121
ag122
aa(lp875
g46
ag47
ag124
ag125
aa(lp876
g46
ag47
ag127
ag128
aa(lp877
g46
ag47
ag130
ag131
aa(lp878
g46
ag47
ag133
ag134
aa(lp879
g46
ag47
ag136
ag137
aa(lp880
g46
ag47
ag139
ag140
aa(lp881
g46
ag47
ag142
ag143
aa(lp882
g46
ag47
ag145
ag146
aa(lp883
g46
ag47
ag148
ag149
aa(lp884
g49
ag50
ag2
ag3
aa(lp885
g49
ag50
ag4
ag5
aa(lp886
g49
ag50
ag7
ag8
aa(lp887
g49
ag50
ag10
ag11
aa(lp888
g49
ag50
ag13
ag14
aa(lp889
g49
ag50
ag16
ag17
aa(lp890
g49
ag50
ag19
ag20
aa(lp891
g49
ag50
ag22
ag23
aa(lp892
g49
ag50
ag25
ag26
aa(lp893
g49
ag50
ag28
ag29
aa(lp894
g49
ag50
ag31
ag32
aa(lp895
g49
ag50
ag34
ag35
aa(lp896
g49
ag50
ag37
ag38
aa(lp897
g49
ag50
ag40
ag41
aa(lp898
g49
ag50
ag43
ag44
aa(lp899
g49
ag50
ag46
ag47
aa(lp900
g49
ag50
ag52
ag53
aa(lp901
g49
ag50
ag55
ag56
aa(lp902
g49
ag50
ag58
ag59
aa(lp903
g49
ag50
ag61
ag62
aa(lp904
g49
ag50
ag64
ag65
aa(lp905
g49
ag50
ag67
ag68
aa(lp906
g49
ag50
ag70
ag71
aa(lp907
g49
ag50
ag73
ag74
aa(lp908
g49
ag50
ag76
ag77
aa(lp909
g49
ag50
ag79
ag80
aa(lp910
g49
ag50
ag82
ag83
aa(lp911
g49
ag50
ag85
ag86
aa(lp912
g49
ag50
ag88
ag89
aa(lp913
g49
ag50
ag91
ag92
aa(lp914
g49
ag50
ag94
ag95
aa(lp915
g49
ag50
ag97
ag98
aa(lp916
g49
ag50
ag100
ag101
aa(lp917
g49
ag50
ag103
ag104
aa(lp918
g49
ag50
ag106
ag107
aa(lp919
g49
ag50
ag109
ag110
aa(lp920
g49
ag50
ag112
ag113
aa(lp921
g49
ag50
ag115
ag116
aa(lp922
g49
ag50
ag118
ag119
aa(lp923
g49
ag50
ag121
ag122
aa(lp924
g49
ag50
ag124
ag125
aa(lp925
g49
ag50
ag127
ag128
aa(lp926
g49
ag50
ag130
ag131
aa(lp927
g49
ag50
ag133
ag134
aa(lp928
g49
ag50
ag136
ag137
aa(lp929
g49
ag50
ag139
ag140
aa(lp930
g49
ag50
ag142
ag143
aa(lp931
g49
ag50
ag145
ag146
aa(lp932
g49
ag50
ag148
ag149
aa(lp933
g52
ag53
ag2
ag3
aa(lp934
g52
ag53
ag4
ag5
aa(lp935
g52
ag53
ag7
ag8
aa(lp936
g52
ag53
ag10
ag11
aa(lp937
g52
ag53
ag13
ag14
aa(lp938
g52
ag53
ag16
ag17
aa(lp939
g52
ag53
ag19
ag20
aa(lp940
g52
ag53
ag22
ag23
aa(lp941
g52
ag53
ag25
ag26
aa(lp942
g52
ag53
ag28
ag29
aa(lp943
g52
ag53
ag31
ag32
aa(lp944
g52
ag53
ag34
ag35
aa(lp945
g52
ag53
ag37
ag38
aa(lp946
g52
ag53
ag40
ag41
aa(lp947
g52
ag53
ag43
ag44
aa(lp948
g52
ag53
ag46
ag47
aa(lp949
g52
ag53
ag49
ag50
aa(lp950
g52
ag53
ag55
ag56
aa(lp951
g52
ag53
ag58
ag59
aa(lp952
g52
ag53
ag61
ag62
aa(lp953
g52
ag53
ag64
ag65
aa(lp954
g52
ag53
ag67
ag68
aa(lp955
g52
ag53
ag70
ag71
aa(lp956
g52
ag53
ag73
ag74
aa(lp957
g52
ag53
ag76
ag77
aa(lp958
g52
ag53
ag79
ag80
aa(lp959
g52
ag53
ag82
ag83
aa(lp960
g52
ag53
ag85
ag86
aa(lp961
g52
ag53
ag88
ag89
aa(lp962
g52
ag53
ag91
ag92
aa(lp963
g52
ag53
ag94
ag95
aa(lp964
g52
ag53
ag97
ag98
aa(lp965
g52
ag53
ag100
ag101
aa(lp966
g52
ag53
ag103
ag104
aa(lp967
g52
ag53
ag106
ag107
aa(lp968
g52
ag53
ag109
ag110
aa(lp969
g52
ag53
ag112
ag113
aa(lp970
g52
ag53
ag115
ag116
aa(lp971
g52
ag53
ag118
ag119
aa(lp972
g52
ag53
ag121
ag122
aa(lp973
g52
ag53
ag124
ag125
aa(lp974
g52
ag53
ag127
ag128
aa(lp975
g52
ag53
ag130
ag131
aa(lp976
g52
ag53
ag133
ag134
aa(lp977
g52
ag53
ag136
ag137
aa(lp978
g52
ag53
ag139
ag140
aa(lp979
g52
ag53
ag142
ag143
aa(lp980
g52
ag53
ag145
ag146
aa(lp981
g52
ag53
ag148
ag149
aa(lp982
g55
ag56
ag2
ag3
aa(lp983
g55
ag56
ag4
ag5
aa(lp984
g55
ag56
ag7
ag8
aa(lp985
g55
ag56
ag10
ag11
aa(lp986
g55
ag56
ag13
ag14
aa(lp987
g55
ag56
ag16
ag17
aa(lp988
g55
ag56
ag19
ag20
aa(lp989
g55
ag56
ag22
ag23
aa(lp990
g55
ag56
ag25
ag26
aa(lp991
g55
ag56
ag28
ag29
aa(lp992
g55
ag56
ag31
ag32
aa(lp993
g55
ag56
ag34
ag35
aa(lp994
g55
ag56
ag37
ag38
aa(lp995
g55
ag56
ag40
ag41
aa(lp996
g55
ag56
ag43
ag44
aa(lp997
g55
ag56
ag46
ag47
aa(lp998
g55
ag56
ag49
ag50
aa(lp999
g55
ag56
ag52
ag53
aa(lp1000
g55
ag56
ag58
ag59
aa(lp1001
g55
ag56
ag61
ag62
aa(lp1002
g55
ag56
ag64
ag65
aa(lp1003
g55
ag56
ag67
ag68
aa(lp1004
g55
ag56
ag70
ag71
aa(lp1005
g55
ag56
ag73
ag74
aa(lp1006
g55
ag56
ag76
ag77
aa(lp1007
g55
ag56
ag79
ag80
aa(lp1008
g55
ag56
ag82
ag83
aa(lp1009
g55
ag56
ag85
ag86
aa(lp1010
g55
ag56
ag88
ag89
aa(lp1011
g55
ag56
ag91
ag92
aa(lp1012
g55
ag56
ag94
ag95
aa(lp1013
g55
ag56
ag97
ag98
aa(lp1014
g55
ag56
ag100
ag101
aa(lp1015
g55
ag56
ag103
ag104
aa(lp1016
g55
ag56
ag106
ag107
aa(lp1017
g55
ag56
ag109
ag110
aa(lp1018
g55
ag56
ag112
ag113
aa(lp1019
g55
ag56
ag115
ag116
aa(lp1020
g55
ag56
ag118
ag119
aa(lp1021
g55
ag56
ag121
ag122
aa(lp1022
g55
ag56
ag124
ag125
aa(lp1023
g55
ag56
ag127
ag128
aa(lp1024
g55
ag56
ag130
ag131
aa(lp1025
g55
ag56
ag133
ag134
aa(lp1026
g55
ag56
ag136
ag137
aa(lp1027
g55
ag56
ag139
ag140
aa(lp1028
g55
ag56
ag142
ag143
aa(lp1029
g55
ag56
ag145
ag146
aa(lp1030
g55
ag56
ag148
ag149
aa(lp1031
g58
ag59
ag2
ag3
aa(lp1032
g58
ag59
ag4
ag5
aa(lp1033
g58
ag59
ag7
ag8
aa(lp1034
g58
ag59
ag10
ag11
aa(lp1035
g58
ag59
ag13
ag14
aa(lp1036
g58
ag59
ag16
ag17
aa(lp1037
g58
ag59
ag19
ag20
aa(lp1038
g58
ag59
ag22
ag23
aa(lp1039
g58
ag59
ag25
ag26
aa(lp1040
g58
ag59
ag28
ag29
aa(lp1041
g58
ag59
ag31
ag32
aa(lp1042
g58
ag59
ag34
ag35
aa(lp1043
g58
ag59
ag37
ag38
aa(lp1044
g58
ag59
ag40
ag41
aa(lp1045
g58
ag59
ag43
ag44
aa(lp1046
g58
ag59
ag46
ag47
aa(lp1047
g58
ag59
ag49
ag50
aa(lp1048
g58
ag59
ag52
ag53
aa(lp1049
g58
ag59
ag55
ag56
aa(lp1050
g58
ag59
ag61
ag62
aa(lp1051
g58
ag59
ag64
ag65
aa(lp1052
g58
ag59
ag67
ag68
aa(lp1053
g58
ag59
ag70
ag71
aa(lp1054
g58
ag59
ag73
ag74
aa(lp1055
g58
ag59
ag76
ag77
aa(lp1056
g58
ag59
ag79
ag80
aa(lp1057
g58
ag59
ag82
ag83
aa(lp1058
g58
ag59
ag85
ag86
aa(lp1059
g58
ag59
ag88
ag89
aa(lp1060
g58
ag59
ag91
ag92
aa(lp1061
g58
ag59
ag94
ag95
aa(lp1062
g58
ag59
ag97
ag98
aa(lp1063
g58
ag59
ag100
ag101
aa(lp1064
g58
ag59
ag103
ag104
aa(lp1065
g58
ag59
ag106
ag107
aa(lp1066
g58
ag59
ag109
ag110
aa(lp1067
g58
ag59
ag112
ag113
aa(lp1068
g58
ag59
ag115
ag116
aa(lp1069
g58
ag59
ag118
ag119
aa(lp1070
g58
ag59
ag121
ag122
aa(lp1071
g58
ag59
ag124
ag125
aa(lp1072
g58
ag59
ag127
ag128
aa(lp1073
g58
ag59
ag130
ag131
aa(lp1074
g58
ag59
ag133
ag134
aa(lp1075
g58
ag59
ag136
ag137
aa(lp1076
g58
ag59
ag139
ag140
aa(lp1077
g58
ag59
ag142
ag143
aa(lp1078
g58
ag59
ag145
ag146
aa(lp1079
g58
ag59
ag148
ag149
aa(lp1080
g61
ag62
ag2
ag3
aa(lp1081
g61
ag62
ag4
ag5
aa(lp1082
g61
ag62
ag7
ag8
aa(lp1083
g61
ag62
ag10
ag11
aa(lp1084
g61
ag62
ag13
ag14
aa(lp1085
g61
ag62
ag16
ag17
aa(lp1086
g61
ag62
ag19
ag20
aa(lp1087
g61
ag62
ag22
ag23
aa(lp1088
g61
ag62
ag25
ag26
aa(lp1089
g61
ag62
ag28
ag29
aa(lp1090
g61
ag62
ag31
ag32
aa(lp1091
g61
ag62
ag34
ag35
aa(lp1092
g61
ag62
ag37
ag38
aa(lp1093
g61
ag62
ag40
ag41
aa(lp1094
g61
ag62
ag43
ag44
aa(lp1095
g61
ag62
ag46
ag47
aa(lp1096
g61
ag62
ag49
ag50
aa(lp1097
g61
ag62
ag52
ag53
aa(lp1098
g61
ag62
ag55
ag56
aa(lp1099
g61
ag62
ag58
ag59
aa(lp1100
g61
ag62
ag64
ag65
aa(lp1101
g61
ag62
ag67
ag68
aa(lp1102
g61
ag62
ag70
ag71
aa(lp1103
g61
ag62
ag73
ag74
aa(lp1104
g61
ag62
ag76
ag77
aa(lp1105
g61
ag62
ag79
ag80
aa(lp1106
g61
ag62
ag82
ag83
aa(lp1107
g61
ag62
ag85
ag86
aa(lp1108
g61
ag62
ag88
ag89
aa(lp1109
g61
ag62
ag91
ag92
aa(lp1110
g61
ag62
ag94
ag95
aa(lp1111
g61
ag62
ag97
ag98
aa(lp1112
g61
ag62
ag100
ag101
aa(lp1113
g61
ag62
ag103
ag104
aa(lp1114
g61
ag62
ag106
ag107
aa(lp1115
g61
ag62
ag109
ag110
aa(lp1116
g61
ag62
ag112
ag113
aa(lp1117
g61
ag62
ag115
ag116
aa(lp1118
g61
ag62
ag118
ag119
aa(lp1119
g61
ag62
ag121
ag122
aa(lp1120
g61
ag62
ag124
ag125
aa(lp1121
g61
ag62
ag127
ag128
aa(lp1122
g61
ag62
ag130
ag131
aa(lp1123
g61
ag62
ag133
ag134
aa(lp1124
g61
ag62
ag136
ag137
aa(lp1125
g61
ag62
ag139
ag140
aa(lp1126
g61
ag62
ag142
ag143
aa(lp1127
g61
ag62
ag145
ag146
aa(lp1128
g61
ag62
ag148
ag149
aa(lp1129
g64
ag65
ag2
ag3
aa(lp1130
g64
ag65
ag4
ag5
aa(lp1131
g64
ag65
ag7
ag8
aa(lp1132
g64
ag65
ag10
ag11
aa(lp1133
g64
ag65
ag13
ag14
aa(lp1134
g64
ag65
ag16
ag17
aa(lp1135
g64
ag65
ag19
ag20
aa(lp1136
g64
ag65
ag22
ag23
aa(lp1137
g64
ag65
ag25
ag26
aa(lp1138
g64
ag65
ag28
ag29
aa(lp1139
g64
ag65
ag31
ag32
aa(lp1140
g64
ag65
ag34
ag35
aa(lp1141
g64
ag65
ag37
ag38
aa(lp1142
g64
ag65
ag40
ag41
aa(lp1143
g64
ag65
ag43
ag44
aa(lp1144
g64
ag65
ag46
ag47
aa(lp1145
g64
ag65
ag49
ag50
aa(lp1146
g64
ag65
ag52
ag53
aa(lp1147
g64
ag65
ag55
ag56
aa(lp1148
g64
ag65
ag58
ag59
aa(lp1149
g64
ag65
ag61
ag62
aa(lp1150
g64
ag65
ag67
ag68
aa(lp1151
g64
ag65
ag70
ag71
aa(lp1152
g64
ag65
ag73
ag74
aa(lp1153
g64
ag65
ag76
ag77
aa(lp1154
g64
ag65
ag79
ag80
aa(lp1155
g64
ag65
ag82
ag83
aa(lp1156
g64
ag65
ag85
ag86
aa(lp1157
g64
ag65
ag88
ag89
aa(lp1158
g64
ag65
ag91
ag92
aa(lp1159
g64
ag65
ag94
ag95
aa(lp1160
g64
ag65
ag97
ag98
aa(lp1161
g64
ag65
ag100
ag101
aa(lp1162
g64
ag65
ag103
ag104
aa(lp1163
g64
ag65
ag106
ag107
aa(lp1164
g64
ag65
ag109
ag110
aa(lp1165
g64
ag65
ag112
ag113
aa(lp1166
g64
ag65
ag115
ag116
aa(lp1167
g64
ag65
ag118
ag119
aa(lp1168
g64
ag65
ag121
ag122
aa(lp1169
g64
ag65
ag124
ag125
aa(lp1170
g64
ag65
ag127
ag128
aa(lp1171
g64
ag65
ag130
ag131
aa(lp1172
g64
ag65
ag133
ag134
aa(lp1173
g64
ag65
ag136
ag137
aa(lp1174
g64
ag65
ag139
ag140
aa(lp1175
g64
ag65
ag142
ag143
aa(lp1176
g64
ag65
ag145
ag146
aa(lp1177
g64
ag65
ag148
ag149
aa(lp1178
g67
ag68
ag2
ag3
aa(lp1179
g67
ag68
ag4
ag5
aa(lp1180
g67
ag68
ag7
ag8
aa(lp1181
g67
ag68
ag10
ag11
aa(lp1182
g67
ag68
ag13
ag14
aa(lp1183
g67
ag68
ag16
ag17
aa(lp1184
g67
ag68
ag19
ag20
aa(lp1185
g67
ag68
ag22
ag23
aa(lp1186
g67
ag68
ag25
ag26
aa(lp1187
g67
ag68
ag28
ag29
aa(lp1188
g67
ag68
ag31
ag32
aa(lp1189
g67
ag68
ag34
ag35
aa(lp1190
g67
ag68
ag37
ag38
aa(lp1191
g67
ag68
ag40
ag41
aa(lp1192
g67
ag68
ag43
ag44
aa(lp1193
g67
ag68
ag46
ag47
aa(lp1194
g67
ag68
ag49
ag50
aa(lp1195
g67
ag68
ag52
ag53
aa(lp1196
g67
ag68
ag55
ag56
aa(lp1197
g67
ag68
ag58
ag59
aa(lp1198
g67
ag68
ag61
ag62
aa(lp1199
g67
ag68
ag64
ag65
aa(lp1200
g67
ag68
ag70
ag71
aa(lp1201
g67
ag68
ag73
ag74
aa(lp1202
g67
ag68
ag76
ag77
aa(lp1203
g67
ag68
ag79
ag80
aa(lp1204
g67
ag68
ag82
ag83
aa(lp1205
g67
ag68
ag85
ag86
aa(lp1206
g67
ag68
ag88
ag89
aa(lp1207
g67
ag68
ag91
ag92
aa(lp1208
g67
ag68
ag94
ag95
aa(lp1209
g67
ag68
ag97
ag98
aa(lp1210
g67
ag68
ag100
ag101
aa(lp1211
g67
ag68
ag103
ag104
aa(lp1212
g67
ag68
ag106
ag107
aa(lp1213
g67
ag68
ag109
ag110
aa(lp1214
g67
ag68
ag112
ag113
aa(lp1215
g67
ag68
ag115
ag116
aa(lp1216
g67
ag68
ag118
ag119
aa(lp1217
g67
ag68
ag121
ag122
aa(lp1218
g67
ag68
ag124
ag125
aa(lp1219
g67
ag68
ag127
ag128
aa(lp1220
g67
ag68
ag130
ag131
aa(lp1221
g67
ag68
ag133
ag134
aa(lp1222
g67
ag68
ag136
ag137
aa(lp1223
g67
ag68
ag139
ag140
aa(lp1224
g67
ag68
ag142
ag143
aa(lp1225
g67
ag68
ag145
ag146
aa(lp1226
g67
ag68
ag148
ag149
aa(lp1227
g70
ag71
ag2
ag3
aa(lp1228
g70
ag71
ag4
ag5
aa(lp1229
g70
ag71
ag7
ag8
aa(lp1230
g70
ag71
ag10
ag11
aa(lp1231
g70
ag71
ag13
ag14
aa(lp1232
g70
ag71
ag16
ag17
aa(lp1233
g70
ag71
ag19
ag20
aa(lp1234
g70
ag71
ag22
ag23
aa(lp1235
g70
ag71
ag25
ag26
aa(lp1236
g70
ag71
ag28
ag29
aa(lp1237
g70
ag71
ag31
ag32
aa(lp1238
g70
ag71
ag34
ag35
aa(lp1239
g70
ag71
ag37
ag38
aa(lp1240
g70
ag71
ag40
ag41
aa(lp1241
g70
ag71
ag43
ag44
aa(lp1242
g70
ag71
ag46
ag47
aa(lp1243
g70
ag71
ag49
ag50
aa(lp1244
g70
ag71
ag52
ag53
aa(lp1245
g70
ag71
ag55
ag56
aa(lp1246
g70
ag71
ag58
ag59
aa(lp1247
g70
ag71
ag61
ag62
aa(lp1248
g70
ag71
ag64
ag65
aa(lp1249
g70
ag71
ag67
ag68
aa(lp1250
g70
ag71
ag73
ag74
aa(lp1251
g70
ag71
ag76
ag77
aa(lp1252
g70
ag71
ag79
ag80
aa(lp1253
g70
ag71
ag82
ag83
aa(lp1254
g70
ag71
ag85
ag86
aa(lp1255
g70
ag71
ag88
ag89
aa(lp1256
g70
ag71
ag91
ag92
aa(lp1257
g70
ag71
ag94
ag95
aa(lp1258
g70
ag71
ag97
ag98
aa(lp1259
g70
ag71
ag100
ag101
aa(lp1260
g70
ag71
ag103
ag104
aa(lp1261
g70
ag71
ag106
ag107
aa(lp1262
g70
ag71
ag109
ag110
aa(lp1263
g70
ag71
ag112
ag113
aa(lp1264
g70
ag71
ag115
ag116
aa(lp1265
g70
ag71
ag118
ag119
aa(lp1266
g70
ag71
ag121
ag122
aa(lp1267
g70
ag71
ag124
ag125
aa(lp1268
g70
ag71
ag127
ag128
aa(lp1269
g70
ag71
ag130
ag131
aa(lp1270
g70
ag71
ag133
ag134
aa(lp1271
g70
ag71
ag136
ag137
aa(lp1272
g70
ag71
ag139
ag140
aa(lp1273
g70
ag71
ag142
ag143
aa(lp1274
g70
ag71
ag145
ag146
aa(lp1275
g70
ag71
ag148
ag149
aa(lp1276
g73
ag74
ag2
ag3
aa(lp1277
g73
ag74
ag4
ag5
aa(lp1278
g73
ag74
ag7
ag8
aa(lp1279
g73
ag74
ag10
ag11
aa(lp1280
g73
ag74
ag13
ag14
aa(lp1281
g73
ag74
ag16
ag17
aa(lp1282
g73
ag74
ag19
ag20
aa(lp1283
g73
ag74
ag22
ag23
aa(lp1284
g73
ag74
ag25
ag26
aa(lp1285
g73
ag74
ag28
ag29
aa(lp1286
g73
ag74
ag31
ag32
aa(lp1287
g73
ag74
ag34
ag35
aa(lp1288
g73
ag74
ag37
ag38
aa(lp1289
g73
ag74
ag40
ag41
aa(lp1290
g73
ag74
ag43
ag44
aa(lp1291
g73
ag74
ag46
ag47
aa(lp1292
g73
ag74
ag49
ag50
aa(lp1293
g73
ag74
ag52
ag53
aa(lp1294
g73
ag74
ag55
ag56
aa(lp1295
g73
ag74
ag58
ag59
aa(lp1296
g73
ag74
ag61
ag62
aa(lp1297
g73
ag74
ag64
ag65
aa(lp1298
g73
ag74
ag67
ag68
aa(lp1299
g73
ag74
ag70
ag71
aa(lp1300
g73
ag74
ag76
ag77
aa(lp1301
g73
ag74
ag79
ag80
aa(lp1302
g73
ag74
ag82
ag83
aa(lp1303
g73
ag74
ag85
ag86
aa(lp1304
g73
ag74
ag88
ag89
aa(lp1305
g73
ag74
ag91
ag92
aa(lp1306
g73
ag74
ag94
ag95
aa(lp1307
g73
ag74
ag97
ag98
aa(lp1308
g73
ag74
ag100
ag101
aa(lp1309
g73
ag74
ag103
ag104
aa(lp1310
g73
ag74
ag106
ag107
aa(lp1311
g73
ag74
ag109
ag110
aa(lp1312
g73
ag74
ag112
ag113
aa(lp1313
g73
ag74
ag115
ag116
aa(lp1314
g73
ag74
ag118
ag119
aa(lp1315
g73
ag74
ag121
ag122
aa(lp1316
g73
ag74
ag124
ag125
aa(lp1317
g73
ag74
ag127
ag128
aa(lp1318
g73
ag74
ag130
ag131
aa(lp1319
g73
ag74
ag133
ag134
aa(lp1320
g73
ag74
ag136
ag137
aa(lp1321
g73
ag74
ag139
ag140
aa(lp1322
g73
ag74
ag142
ag143
aa(lp1323
g73
ag74
ag145
ag146
aa(lp1324
g73
ag74
ag148
ag149
aa(lp1325
g76
ag77
ag2
ag3
aa(lp1326
g76
ag77
ag4
ag5
aa(lp1327
g76
ag77
ag7
ag8
aa(lp1328
g76
ag77
ag10
ag11
aa(lp1329
g76
ag77
ag13
ag14
aa(lp1330
g76
ag77
ag16
ag17
aa(lp1331
g76
ag77
ag19
ag20
aa(lp1332
g76
ag77
ag22
ag23
aa(lp1333
g76
ag77
ag25
ag26
aa(lp1334
g76
ag77
ag28
ag29
aa(lp1335
g76
ag77
ag31
ag32
aa(lp1336
g76
ag77
ag34
ag35
aa(lp1337
g76
ag77
ag37
ag38
aa(lp1338
g76
ag77
ag40
ag41
aa(lp1339
g76
ag77
ag43
ag44
aa(lp1340
g76
ag77
ag46
ag47
aa(lp1341
g76
ag77
ag49
ag50
aa(lp1342
g76
ag77
ag52
ag53
aa(lp1343
g76
ag77
ag55
ag56
aa(lp1344
g76
ag77
ag58
ag59
aa(lp1345
g76
ag77
ag61
ag62
aa(lp1346
g76
ag77
ag64
ag65
aa(lp1347
g76
ag77
ag67
ag68
aa(lp1348
g76
ag77
ag70
ag71
aa(lp1349
g76
ag77
ag73
ag74
aa(lp1350
g76
ag77
ag79
ag80
aa(lp1351
g76
ag77
ag82
ag83
aa(lp1352
g76
ag77
ag85
ag86
aa(lp1353
g76
ag77
ag88
ag89
aa(lp1354
g76
ag77
ag91
ag92
aa(lp1355
g76
ag77
ag94
ag95
aa(lp1356
g76
ag77
ag97
ag98
aa(lp1357
g76
ag77
ag100
ag101
aa(lp1358
g76
ag77
ag103
ag104
aa(lp1359
g76
ag77
ag106
ag107
aa(lp1360
g76
ag77
ag109
ag110
aa(lp1361
g76
ag77
ag112
ag113
aa(lp1362
g76
ag77
ag115
ag116
aa(lp1363
g76
ag77
ag118
ag119
aa(lp1364
g76
ag77
ag121
ag122
aa(lp1365
g76
ag77
ag124
ag125
aa(lp1366
g76
ag77
ag127
ag128
aa(lp1367
g76
ag77
ag130
ag131
aa(lp1368
g76
ag77
ag133
ag134
aa(lp1369
g76
ag77
ag136
ag137
aa(lp1370
g76
ag77
ag139
ag140
aa(lp1371
g76
ag77
ag142
ag143
aa(lp1372
g76
ag77
ag145
ag146
aa(lp1373
g76
ag77
ag148
ag149
aa(lp1374
g79
ag80
ag2
ag3
aa(lp1375
g79
ag80
ag4
ag5
aa(lp1376
g79
ag80
ag7
ag8
aa(lp1377
g79
ag80
ag10
ag11
aa(lp1378
g79
ag80
ag13
ag14
aa(lp1379
g79
ag80
ag16
ag17
aa(lp1380
g79
ag80
ag19
ag20
aa(lp1381
g79
ag80
ag22
ag23
aa(lp1382
g79
ag80
ag25
ag26
aa(lp1383
g79
ag80
ag28
ag29
aa(lp1384
g79
ag80
ag31
ag32
aa(lp1385
g79
ag80
ag34
ag35
aa(lp1386
g79
ag80
ag37
ag38
aa(lp1387
g79
ag80
ag40
ag41
aa(lp1388
g79
ag80
ag43
ag44
aa(lp1389
g79
ag80
ag46
ag47
aa(lp1390
g79
ag80
ag49
ag50
aa(lp1391
g79
ag80
ag52
ag53
aa(lp1392
g79
ag80
ag55
ag56
aa(lp1393
g79
ag80
ag58
ag59
aa(lp1394
g79
ag80
ag61
ag62
aa(lp1395
g79
ag80
ag64
ag65
aa(lp1396
g79
ag80
ag67
ag68
aa(lp1397
g79
ag80
ag70
ag71
aa(lp1398
g79
ag80
ag73
ag74
aa(lp1399
g79
ag80
ag76
ag77
aa(lp1400
g79
ag80
ag82
ag83
aa(lp1401
g79
ag80
ag85
ag86
aa(lp1402
g79
ag80
ag88
ag89
aa(lp1403
g79
ag80
ag91
ag92
aa(lp1404
g79
ag80
ag94
ag95
aa(lp1405
g79
ag80
ag97
ag98
aa(lp1406
g79
ag80
ag100
ag101
aa(lp1407
g79
ag80
ag103
ag104
aa(lp1408
g79
ag80
ag106
ag107
aa(lp1409
g79
ag80
ag109
ag110
aa(lp1410
g79
ag80
ag112
ag113
aa(lp1411
g79
ag80
ag115
ag116
aa(lp1412
g79
ag80
ag118
ag119
aa(lp1413
g79
ag80
ag121
ag122
aa(lp1414
g79
ag80
ag124
ag125
aa(lp1415
g79
ag80
ag127
ag128
aa(lp1416
g79
ag80
ag130
ag131
aa(lp1417
g79
ag80
ag133
ag134
aa(lp1418
g79
ag80
ag136
ag137
aa(lp1419
g79
ag80
ag139
ag140
aa(lp1420
g79
ag80
ag142
ag143
aa(lp1421
g79
ag80
ag145
ag146
aa(lp1422
g79
ag80
ag148
ag149
aa(lp1423
g82
ag83
ag2
ag3
aa(lp1424
g82
ag83
ag4
ag5
aa(lp1425
g82
ag83
ag7
ag8
aa(lp1426
g82
ag83
ag10
ag11
aa(lp1427
g82
ag83
ag13
ag14
aa(lp1428
g82
ag83
ag16
ag17
aa(lp1429
g82
ag83
ag19
ag20
aa(lp1430
g82
ag83
ag22
ag23
aa(lp1431
g82
ag83
ag25
ag26
aa(lp1432
g82
ag83
ag28
ag29
aa(lp1433
g82
ag83
ag31
ag32
aa(lp1434
g82
ag83
ag34
ag35
aa(lp1435
g82
ag83
ag37
ag38
aa(lp1436
g82
ag83
ag40
ag41
aa(lp1437
g82
ag83
ag43
ag44
aa(lp1438
g82
ag83
ag46
ag47
aa(lp1439
g82
ag83
ag49
ag50
aa(lp1440
g82
ag83
ag52
ag53
aa(lp1441
g82
ag83
ag55
ag56
aa(lp1442
g82
ag83
ag58
ag59
aa(lp1443
g82
ag83
ag61
ag62
aa(lp1444
g82
ag83
ag64
ag65
aa(lp1445
g82
ag83
ag67
ag68
aa(lp1446
g82
ag83
ag70
ag71
aa(lp1447
g82
ag83
ag73
ag74
aa(lp1448
g82
ag83
ag76
ag77
aa(lp1449
g82
ag83
ag79
ag80
aa(lp1450
g82
ag83
ag85
ag86
aa(lp1451
g82
ag83
ag88
ag89
aa(lp1452
g82
ag83
ag91
ag92
aa(lp1453
g82
ag83
ag94
ag95
aa(lp1454
g82
ag83
ag97
ag98
aa(lp1455
g82
ag83
ag100
ag101
aa(lp1456
g82
ag83
ag103
ag104
aa(lp1457
g82
ag83
ag106
ag107
aa(lp1458
g82
ag83
ag109
ag110
aa(lp1459
g82
ag83
ag112
ag113
aa(lp1460
g82
ag83
ag115
ag116
aa(lp1461
g82
ag83
ag118
ag119
aa(lp1462
g82
ag83
ag121
ag122
aa(lp1463
g82
ag83
ag124
ag125
aa(lp1464
g82
ag83
ag127
ag128
aa(lp1465
g82
ag83
ag130
ag131
aa(lp1466
g82
ag83
ag133
ag134
aa(lp1467
g82
ag83
ag136
ag137
aa(lp1468
g82
ag83
ag139
ag140
aa(lp1469
g82
ag83
ag142
ag143
aa(lp1470
g82
ag83
ag145
ag146
aa(lp1471
g82
ag83
ag148
ag149
aa(lp1472
g85
ag86
ag2
ag3
aa(lp1473
g85
ag86
ag4
ag5
aa(lp1474
g85
ag86
ag7
ag8
aa(lp1475
g85
ag86
ag10
ag11
aa(lp1476
g85
ag86
ag13
ag14
aa(lp1477
g85
ag86
ag16
ag17
aa(lp1478
g85
ag86
ag19
ag20
aa(lp1479
g85
ag86
ag22
ag23
aa(lp1480
g85
ag86
ag25
ag26
aa(lp1481
g85
ag86
ag28
ag29
aa(lp1482
g85
ag86
ag31
ag32
aa(lp1483
g85
ag86
ag34
ag35
aa(lp1484
g85
ag86
ag37
ag38
aa(lp1485
g85
ag86
ag40
ag41
aa(lp1486
g85
ag86
ag43
ag44
aa(lp1487
g85
ag86
ag46
ag47
aa(lp1488
g85
ag86
ag49
ag50
aa(lp1489
g85
ag86
ag52
ag53
aa(lp1490
g85
ag86
ag55
ag56
aa(lp1491
g85
ag86
ag58
ag59
aa(lp1492
g85
ag86
ag61
ag62
aa(lp1493
g85
ag86
ag64
ag65
aa(lp1494
g85
ag86
ag67
ag68
aa(lp1495
g85
ag86
ag70
ag71
aa(lp1496
g85
ag86
ag73
ag74
aa(lp1497
g85
ag86
ag76
ag77
aa(lp1498
g85
ag86
ag79
ag80
aa(lp1499
g85
ag86
ag82
ag83
aa(lp1500
g85
ag86
ag88
ag89
aa(lp1501
g85
ag86
ag91
ag92
aa(lp1502
g85
ag86
ag94
ag95
aa(lp1503
g85
ag86
ag97
ag98
aa(lp1504
g85
ag86
ag100
ag101
aa(lp1505
g85
ag86
ag103
ag104
aa(lp1506
g85
ag86
ag106
ag107
aa(lp1507
g85
ag86
ag109
ag110
aa(lp1508
g85
ag86
ag112
ag113
aa(lp1509
g85
ag86
ag115
ag116
aa(lp1510
g85
ag86
ag118
ag119
aa(lp1511
g85
ag86
ag121
ag122
aa(lp1512
g85
ag86
ag124
ag125
aa(lp1513
g85
ag86
ag127
ag128
aa(lp1514
g85
ag86
ag130
ag131
aa(lp1515
g85
ag86
ag133
ag134
aa(lp1516
g85
ag86
ag136
ag137
aa(lp1517
g85
ag86
ag139
ag140
aa(lp1518
g85
ag86
ag142
ag143
aa(lp1519
g85
ag86
ag145
ag146
aa(lp1520
g85
ag86
ag148
ag149
aa(lp1521
g88
ag89
ag2
ag3
aa(lp1522
g88
ag89
ag4
ag5
aa(lp1523
g88
ag89
ag7
ag8
aa(lp1524
g88
ag89
ag10
ag11
aa(lp1525
g88
ag89
ag13
ag14
aa(lp1526
g88
ag89
ag16
ag17
aa(lp1527
g88
ag89
ag19
ag20
aa(lp1528
g88
ag89
ag22
ag23
aa(lp1529
g88
ag89
ag25
ag26
aa(lp1530
g88
ag89
ag28
ag29
aa(lp1531
g88
ag89
ag31
ag32
aa(lp1532
g88
ag89
ag34
ag35
aa(lp1533
g88
ag89
ag37
ag38
aa(lp1534
g88
ag89
ag40
ag41
aa(lp1535
g88
ag89
ag43
ag44
aa(lp1536
g88
ag89
ag46
ag47
aa(lp1537
g88
ag89
ag49
ag50
aa(lp1538
g88
ag89
ag52
ag53
aa(lp1539
g88
ag89
ag55
ag56
aa(lp1540
g88
ag89
ag58
ag59
aa(lp1541
g88
ag89
ag61
ag62
aa(lp1542
g88
ag89
ag64
ag65
aa(lp1543
g88
ag89
ag67
ag68
aa(lp1544
g88
ag89
ag70
ag71
aa(lp1545
g88
ag89
ag73
ag74
aa(lp1546
g88
ag89
ag76
ag77
aa(lp1547
g88
ag89
ag79
ag80
aa(lp1548
g88
ag89
ag82
ag83
aa(lp1549
g88
ag89
ag85
ag86
aa(lp1550
g88
ag89
ag91
ag92
aa(lp1551
g88
ag89
ag94
ag95
aa(lp1552
g88
ag89
ag97
ag98
aa(lp1553
g88
ag89
ag100
ag101
aa(lp1554
g88
ag89
ag103
ag104
aa(lp1555
g88
ag89
ag106
ag107
aa(lp1556
g88
ag89
ag109
ag110
aa(lp1557
g88
ag89
ag112
ag113
aa(lp1558
g88
ag89
ag115
ag116
aa(lp1559
g88
ag89
ag118
ag119
aa(lp1560
g88
ag89
ag121
ag122
aa(lp1561
g88
ag89
ag124
ag125
aa(lp1562
g88
ag89
ag127
ag128
aa(lp1563
g88
ag89
ag130
ag131
aa(lp1564
g88
ag89
ag133
ag134
aa(lp1565
g88
ag89
ag136
ag137
aa(lp1566
g88
ag89
ag139
ag140
aa(lp1567
g88
ag89
ag142
ag143
aa(lp1568
g88
ag89
ag145
ag146
aa(lp1569
g88
ag89
ag148
ag149
aa(lp1570
g91
ag92
ag2
ag3
aa(lp1571
g91
ag92
ag4
ag5
aa(lp1572
g91
ag92
ag7
ag8
aa(lp1573
g91
ag92
ag10
ag11
aa(lp1574
g91
ag92
ag13
ag14
aa(lp1575
g91
ag92
ag16
ag17
aa(lp1576
g91
ag92
ag19
ag20
aa(lp1577
g91
ag92
ag22
ag23
aa(lp1578
g91
ag92
ag25
ag26
aa(lp1579
g91
ag92
ag28
ag29
aa(lp1580
g91
ag92
ag31
ag32
aa(lp1581
g91
ag92
ag34
ag35
aa(lp1582
g91
ag92
ag37
ag38
aa(lp1583
g91
ag92
ag40
ag41
aa(lp1584
g91
ag92
ag43
ag44
aa(lp1585
g91
ag92
ag46
ag47
aa(lp1586
g91
ag92
ag49
ag50
aa(lp1587
g91
ag92
ag52
ag53
aa(lp1588
g91
ag92
ag55
ag56
aa(lp1589
g91
ag92
ag58
ag59
aa(lp1590
g91
ag92
ag61
ag62
aa(lp1591
g91
ag92
ag64
ag65
aa(lp1592
g91
ag92
ag67
ag68
aa(lp1593
g91
ag92
ag70
ag71
aa(lp1594
g91
ag92
ag73
ag74
aa(lp1595
g91
ag92
ag76
ag77
aa(lp1596
g91
ag92
ag79
ag80
aa(lp1597
g91
ag92
ag82
ag83
aa(lp1598
g91
ag92
ag85
ag86
aa(lp1599
g91
ag92
ag88
ag89
aa(lp1600
g91
ag92
ag94
ag95
aa(lp1601
g91
ag92
ag97
ag98
aa(lp1602
g91
ag92
ag100
ag101
aa(lp1603
g91
ag92
ag103
ag104
aa(lp1604
g91
ag92
ag106
ag107
aa(lp1605
g91
ag92
ag109
ag110
aa(lp1606
g91
ag92
ag112
ag113
aa(lp1607
g91
ag92
ag115
ag116
aa(lp1608
g91
ag92
ag118
ag119
aa(lp1609
g91
ag92
ag121
ag122
aa(lp1610
g91
ag92
ag124
ag125
aa(lp1611
g91
ag92
ag127
ag128
aa(lp1612
g91
ag92
ag130
ag131
aa(lp1613
g91
ag92
ag133
ag134
aa(lp1614
g91
ag92
ag136
ag137
aa(lp1615
g91
ag92
ag139
ag140
aa(lp1616
g91
ag92
ag142
ag143
aa(lp1617
g91
ag92
ag145
ag146
aa(lp1618
g91
ag92
ag148
ag149
aa(lp1619
g94
ag95
ag2
ag3
aa(lp1620
g94
ag95
ag4
ag5
aa(lp1621
g94
ag95
ag7
ag8
aa(lp1622
g94
ag95
ag10
ag11
aa(lp1623
g94
ag95
ag13
ag14
aa(lp1624
g94
ag95
ag16
ag17
aa(lp1625
g94
ag95
ag19
ag20
aa(lp1626
g94
ag95
ag22
ag23
aa(lp1627
g94
ag95
ag25
ag26
aa(lp1628
g94
ag95
ag31
ag32
aa(lp1629
g94
ag95
ag34
ag35
aa(lp1630
g94
ag95
ag37
ag38
aa(lp1631
g94
ag95
ag40
ag41
aa(lp1632
g94
ag95
ag43
ag44
aa(lp1633
g94
ag95
ag46
ag47
aa(lp1634
g94
ag95
ag49
ag50
aa(lp1635
g94
ag95
ag52
ag53
aa(lp1636
g94
ag95
ag55
ag56
aa(lp1637
g94
ag95
ag58
ag59
aa(lp1638
g94
ag95
ag61
ag62
aa(lp1639
g94
ag95
ag64
ag65
aa(lp1640
g94
ag95
ag67
ag68
aa(lp1641
g94
ag95
ag70
ag71
aa(lp1642
g94
ag95
ag73
ag74
aa(lp1643
g94
ag95
ag76
ag77
aa(lp1644
g94
ag95
ag79
ag80
aa(lp1645
g94
ag95
ag82
ag83
aa(lp1646
g94
ag95
ag85
ag86
aa(lp1647
g94
ag95
ag88
ag89
aa(lp1648
g94
ag95
ag91
ag92
aa(lp1649
g94
ag95
ag97
ag98
aa(lp1650
g94
ag95
ag100
ag101
aa(lp1651
g94
ag95
ag103
ag104
aa(lp1652
g94
ag95
ag106
ag107
aa(lp1653
g94
ag95
ag109
ag110
aa(lp1654
g94
ag95
ag112
ag113
aa(lp1655
g94
ag95
ag115
ag116
aa(lp1656
g94
ag95
ag118
ag119
aa(lp1657
g94
ag95
ag121
ag122
aa(lp1658
g94
ag95
ag124
ag125
aa(lp1659
g94
ag95
ag127
ag128
aa(lp1660
g94
ag95
ag130
ag131
aa(lp1661
g94
ag95
ag133
ag134
aa(lp1662
g94
ag95
ag136
ag137
aa(lp1663
g94
ag95
ag139
ag140
aa(lp1664
g94
ag95
ag142
ag143
aa(lp1665
g94
ag95
ag145
ag146
aa(lp1666
g94
ag95
ag148
ag149
aa(lp1667
g97
ag98
ag2
ag3
aa(lp1668
g97
ag98
ag4
ag5
aa(lp1669
g97
ag98
ag7
ag8
aa(lp1670
g97
ag98
ag10
ag11
aa(lp1671
g97
ag98
ag13
ag14
aa(lp1672
g97
ag98
ag16
ag17
aa(lp1673
g97
ag98
ag19
ag20
aa(lp1674
g97
ag98
ag22
ag23
aa(lp1675
g97
ag98
ag25
ag26
aa(lp1676
g97
ag98
ag28
ag29
aa(lp1677
g97
ag98
ag31
ag32
aa(lp1678
g97
ag98
ag34
ag35
aa(lp1679
g97
ag98
ag37
ag38
aa(lp1680
g97
ag98
ag40
ag41
aa(lp1681
g97
ag98
ag43
ag44
aa(lp1682
g97
ag98
ag46
ag47
aa(lp1683
g97
ag98
ag49
ag50
aa(lp1684
g97
ag98
ag52
ag53
aa(lp1685
g97
ag98
ag55
ag56
aa(lp1686
g97
ag98
ag58
ag59
aa(lp1687
g97
ag98
ag61
ag62
aa(lp1688
g97
ag98
ag64
ag65
aa(lp1689
g97
ag98
ag67
ag68
aa(lp1690
g97
ag98
ag70
ag71
aa(lp1691
g97
ag98
ag73
ag74
aa(lp1692
g97
ag98
ag76
ag77
aa(lp1693
g97
ag98
ag79
ag80
aa(lp1694
g97
ag98
ag82
ag83
aa(lp1695
g97
ag98
ag85
ag86
aa(lp1696
g97
ag98
ag88
ag89
aa(lp1697
g97
ag98
ag91
ag92
aa(lp1698
g97
ag98
ag94
ag95
aa(lp1699
g97
ag98
ag100
ag101
aa(lp1700
g97
ag98
ag103
ag104
aa(lp1701
g97
ag98
ag106
ag107
aa(lp1702
g97
ag98
ag109
ag110
aa(lp1703
g97
ag98
ag112
ag113
aa(lp1704
g97
ag98
ag115
ag116
aa(lp1705
g97
ag98
ag118
ag119
aa(lp1706
g97
ag98
ag121
ag122
aa(lp1707
g97
ag98
ag124
ag125
aa(lp1708
g97
ag98
ag127
ag128
aa(lp1709
g97
ag98
ag130
ag131
aa(lp1710
g97
ag98
ag133
ag134
aa(lp1711
g97
ag98
ag136
ag137
aa(lp1712
g97
ag98
ag139
ag140
aa(lp1713
g97
ag98
ag142
ag143
aa(lp1714
g97
ag98
ag145
ag146
aa(lp1715
g97
ag98
ag148
ag149
aa(lp1716
g100
ag101
ag2
ag3
aa(lp1717
g100
ag101
ag4
ag5
aa(lp1718
g100
ag101
ag7
ag8
aa(lp1719
g100
ag101
ag10
ag11
aa(lp1720
g100
ag101
ag13
ag14
aa(lp1721
g100
ag101
ag16
ag17
aa(lp1722
g100
ag101
ag19
ag20
aa(lp1723
g100
ag101
ag22
ag23
aa(lp1724
g100
ag101
ag25
ag26
aa(lp1725
g100
ag101
ag28
ag29
aa(lp1726
g100
ag101
ag31
ag32
aa(lp1727
g100
ag101
ag34
ag35
aa(lp1728
g100
ag101
ag37
ag38
aa(lp1729
g100
ag101
ag40
ag41
aa(lp1730
g100
ag101
ag43
ag44
aa(lp1731
g100
ag101
ag46
ag47
aa(lp1732
g100
ag101
ag49
ag50
aa(lp1733
g100
ag101
ag52
ag53
aa(lp1734
g100
ag101
ag55
ag56
aa(lp1735
g100
ag101
ag58
ag59
aa(lp1736
g100
ag101
ag61
ag62
aa(lp1737
g100
ag101
ag64
ag65
aa(lp1738
g100
ag101
ag67
ag68
aa(lp1739
g100
ag101
ag70
ag71
aa(lp1740
g100
ag101
ag73
ag74
aa(lp1741
g100
ag101
ag76
ag77
aa(lp1742
g100
ag101
ag79
ag80
aa(lp1743
g100
ag101
ag82
ag83
aa(lp1744
g100
ag101
ag85
ag86
aa(lp1745
g100
ag101
ag88
ag89
aa(lp1746
g100
ag101
ag91
ag92
aa(lp1747
g100
ag101
ag94
ag95
aa(lp1748
g100
ag101
ag97
ag98
aa(lp1749
g100
ag101
ag103
ag104
aa(lp1750
g100
ag101
ag106
ag107
aa(lp1751
g100
ag101
ag109
ag110
aa(lp1752
g100
ag101
ag112
ag113
aa(lp1753
g100
ag101
ag115
ag116
aa(lp1754
g100
ag101
ag118
ag119
aa(lp1755
g100
ag101
ag121
ag122
aa(lp1756
g100
ag101
ag124
ag125
aa(lp1757
g100
ag101
ag127
ag128
aa(lp1758
g100
ag101
ag130
ag131
aa(lp1759
g100
ag101
ag133
ag134
aa(lp1760
g100
ag101
ag136
ag137
aa(lp1761
g100
ag101
ag139
ag140
aa(lp1762
g100
ag101
ag142
ag143
aa(lp1763
g100
ag101
ag145
ag146
aa(lp1764
g100
ag101
ag148
ag149
aa(lp1765
g103
ag104
ag2
ag3
aa(lp1766
g103
ag104
ag4
ag5
aa(lp1767
g103
ag104
ag7
ag8
aa(lp1768
g103
ag104
ag10
ag11
aa(lp1769
g103
ag104
ag13
ag14
aa(lp1770
g103
ag104
ag16
ag17
aa(lp1771
g103
ag104
ag19
ag20
aa(lp1772
g103
ag104
ag22
ag23
aa(lp1773
g103
ag104
ag25
ag26
aa(lp1774
g103
ag104
ag28
ag29
aa(lp1775
g103
ag104
ag31
ag32
aa(lp1776
g103
ag104
ag34
ag35
aa(lp1777
g103
ag104
ag37
ag38
aa(lp1778
g103
ag104
ag40
ag41
aa(lp1779
g103
ag104
ag43
ag44
aa(lp1780
g103
ag104
ag46
ag47
aa(lp1781
g103
ag104
ag49
ag50
aa(lp1782
g103
ag104
ag52
ag53
aa(lp1783
g103
ag104
ag55
ag56
aa(lp1784
g103
ag104
ag58
ag59
aa(lp1785
g103
ag104
ag61
ag62
aa(lp1786
g103
ag104
ag64
ag65
aa(lp1787
g103
ag104
ag67
ag68
aa(lp1788
g103
ag104
ag70
ag71
aa(lp1789
g103
ag104
ag73
ag74
aa(lp1790
g103
ag104
ag76
ag77
aa(lp1791
g103
ag104
ag79
ag80
aa(lp1792
g103
ag104
ag82
ag83
aa(lp1793
g103
ag104
ag85
ag86
aa(lp1794
g103
ag104
ag88
ag89
aa(lp1795
g103
ag104
ag91
ag92
aa(lp1796
g103
ag104
ag94
ag95
aa(lp1797
g103
ag104
ag97
ag98
aa(lp1798
g103
ag104
ag100
ag101
aa(lp1799
g103
ag104
ag106
ag107
aa(lp1800
g103
ag104
ag109
ag110
aa(lp1801
g103
ag104
ag112
ag113
aa(lp1802
g103
ag104
ag115
ag116
aa(lp1803
g103
ag104
ag118
ag119
aa(lp1804
g103
ag104
ag121
ag122
aa(lp1805
g103
ag104
ag124
ag125
aa(lp1806
g103
ag104
ag127
ag128
aa(lp1807
g103
ag104
ag130
ag131
aa(lp1808
g103
ag104
ag133
ag134
aa(lp1809
g103
ag104
ag136
ag137
aa(lp1810
g103
ag104
ag139
ag140
aa(lp1811
g103
ag104
ag142
ag143
aa(lp1812
g103
ag104
ag145
ag146
aa(lp1813
g103
ag104
ag148
ag149
aa(lp1814
g106
ag107
ag2
ag3
aa(lp1815
g106
ag107
ag4
ag5
aa(lp1816
g106
ag107
ag7
ag8
aa(lp1817
g106
ag107
ag10
ag11
aa(lp1818
g106
ag107
ag13
ag14
aa(lp1819
g106
ag107
ag16
ag17
aa(lp1820
g106
ag107
ag19
ag20
aa(lp1821
g106
ag107
ag22
ag23
aa(lp1822
g106
ag107
ag25
ag26
aa(lp1823
g106
ag107
ag28
ag29
aa(lp1824
g106
ag107
ag31
ag32
aa(lp1825
g106
ag107
ag34
ag35
aa(lp1826
g106
ag107
ag37
ag38
aa(lp1827
g106
ag107
ag40
ag41
aa(lp1828
g106
ag107
ag43
ag44
aa(lp1829
g106
ag107
ag46
ag47
aa(lp1830
g106
ag107
ag49
ag50
aa(lp1831
g106
ag107
ag52
ag53
aa(lp1832
g106
ag107
ag55
ag56
aa(lp1833
g106
ag107
ag58
ag59
aa(lp1834
g106
ag107
ag61
ag62
aa(lp1835
g106
ag107
ag64
ag65
aa(lp1836
g106
ag107
ag67
ag68
aa(lp1837
g106
ag107
ag70
ag71
aa(lp1838
g106
ag107
ag73
ag74
aa(lp1839
g106
ag107
ag76
ag77
aa(lp1840
g106
ag107
ag79
ag80
aa(lp1841
g106
ag107
ag82
ag83
aa(lp1842
g106
ag107
ag85
ag86
aa(lp1843
g106
ag107
ag88
ag89
aa(lp1844
g106
ag107
ag91
ag92
aa(lp1845
g106
ag107
ag94
ag95
aa(lp1846
g106
ag107
ag97
ag98
aa(lp1847
g106
ag107
ag100
ag101
aa(lp1848
g106
ag107
ag103
ag104
aa(lp1849
g106
ag107
ag109
ag110
aa(lp1850
g106
ag107
ag112
ag113
aa(lp1851
g106
ag107
ag115
ag116
aa(lp1852
g106
ag107
ag118
ag119
aa(lp1853
g106
ag107
ag121
ag122
aa(lp1854
g106
ag107
ag124
ag125
aa(lp1855
g106
ag107
ag127
ag128
aa(lp1856
g106
ag107
ag130
ag131
aa(lp1857
g106
ag107
ag133
ag134
aa(lp1858
g106
ag107
ag136
ag137
aa(lp1859
g106
ag107
ag139
ag140
aa(lp1860
g106
ag107
ag142
ag143
aa(lp1861
g106
ag107
ag145
ag146
aa(lp1862
g106
ag107
ag148
ag149
aa(lp1863
g109
ag110
ag2
ag3
aa(lp1864
g109
ag110
ag4
ag5
aa(lp1865
g109
ag110
ag7
ag8
aa(lp1866
g109
ag110
ag10
ag11
aa(lp1867
g109
ag110
ag13
ag14
aa(lp1868
g109
ag110
ag16
ag17
aa(lp1869
g109
ag110
ag19
ag20
aa(lp1870
g109
ag110
ag22
ag23
aa(lp1871
g109
ag110
ag25
ag26
aa(lp1872
g109
ag110
ag28
ag29
aa(lp1873
g109
ag110
ag31
ag32
aa(lp1874
g109
ag110
ag34
ag35
aa(lp1875
g109
ag110
ag37
ag38
aa(lp1876
g109
ag110
ag40
ag41
aa(lp1877
g109
ag110
ag43
ag44
aa(lp1878
g109
ag110
ag46
ag47
aa(lp1879
g109
ag110
ag49
ag50
aa(lp1880
g109
ag110
ag52
ag53
aa(lp1881
g109
ag110
ag55
ag56
aa(lp1882
g109
ag110
ag58
ag59
aa(lp1883
g109
ag110
ag61
ag62
aa(lp1884
g109
ag110
ag64
ag65
aa(lp1885
g109
ag110
ag67
ag68
aa(lp1886
g109
ag110
ag70
ag71
aa(lp1887
g109
ag110
ag73
ag74
aa(lp1888
g109
ag110
ag76
ag77
aa(lp1889
g109
ag110
ag79
ag80
aa(lp1890
g109
ag110
ag82
ag83
aa(lp1891
g109
ag110
ag85
ag86
aa(lp1892
g109
ag110
ag88
ag89
aa(lp1893
g109
ag110
ag91
ag92
aa(lp1894
g109
ag110
ag94
ag95
aa(lp1895
g109
ag110
ag97
ag98
aa(lp1896
g109
ag110
ag100
ag101
aa(lp1897
g109
ag110
ag103
ag104
aa(lp1898
g109
ag110
ag106
ag107
aa(lp1899
g109
ag110
ag112
ag113
aa(lp1900
g109
ag110
ag115
ag116
aa(lp1901
g109
ag110
ag118
ag119
aa(lp1902
g109
ag110
ag121
ag122
aa(lp1903
g109
ag110
ag124
ag125
aa(lp1904
g109
ag110
ag127
ag128
aa(lp1905
g109
ag110
ag130
ag131
aa(lp1906
g109
ag110
ag133
ag134
aa(lp1907
g109
ag110
ag136
ag137
aa(lp1908
g109
ag110
ag139
ag140
aa(lp1909
g109
ag110
ag142
ag143
aa(lp1910
g109
ag110
ag145
ag146
aa(lp1911
g109
ag110
ag148
ag149
aa(lp1912
g112
ag113
ag2
ag3
aa(lp1913
g112
ag113
ag4
ag5
aa(lp1914
g112
ag113
ag7
ag8
aa(lp1915
g112
ag113
ag10
ag11
aa(lp1916
g112
ag113
ag13
ag14
aa(lp1917
g112
ag113
ag16
ag17
aa(lp1918
g112
ag113
ag19
ag20
aa(lp1919
g112
ag113
ag22
ag23
aa(lp1920
g112
ag113
ag25
ag26
aa(lp1921
g112
ag113
ag28
ag29
aa(lp1922
g112
ag113
ag31
ag32
aa(lp1923
g112
ag113
ag34
ag35
aa(lp1924
g112
ag113
ag37
ag38
aa(lp1925
g112
ag113
ag40
ag41
aa(lp1926
g112
ag113
ag43
ag44
aa(lp1927
g112
ag113
ag46
ag47
aa(lp1928
g112
ag113
ag49
ag50
aa(lp1929
g112
ag113
ag52
ag53
aa(lp1930
g112
ag113
ag55
ag56
aa(lp1931
g112
ag113
ag58
ag59
aa(lp1932
g112
ag113
ag61
ag62
aa(lp1933
g112
ag113
ag64
ag65
aa(lp1934
g112
ag113
ag67
ag68
aa(lp1935
g112
ag113
ag70
ag71
aa(lp1936
g112
ag113
ag73
ag74
aa(lp1937
g112
ag113
ag76
ag77
aa(lp1938
g112
ag113
ag79
ag80
aa(lp1939
g112
ag113
ag82
ag83
aa(lp1940
g112
ag113
ag85
ag86
aa(lp1941
g112
ag113
ag88
ag89
aa(lp1942
g112
ag113
ag91
ag92
aa(lp1943
g112
ag113
ag94
ag95
aa(lp1944
g112
ag113
ag97
ag98
aa(lp1945
g112
ag113
ag100
ag101
aa(lp1946
g112
ag113
ag103
ag104
aa(lp1947
g112
ag113
ag106
ag107
aa(lp1948
g112
ag113
ag109
ag110
aa(lp1949
g112
ag113
ag115
ag116
aa(lp1950
g112
ag113
ag118
ag119
aa(lp1951
g112
ag113
ag121
ag122
aa(lp1952
g112
ag113
ag124
ag125
aa(lp1953
g112
ag113
ag127
ag128
aa(lp1954
g112
ag113
ag130
ag131
aa(lp1955
g112
ag113
ag133
ag134
aa(lp1956
g112
ag113
ag136
ag137
aa(lp1957
g112
ag113
ag139
ag140
aa(lp1958
g112
ag113
ag142
ag143
aa(lp1959
g112
ag113
ag145
ag146
aa(lp1960
g112
ag113
ag148
ag149
aa(lp1961
g115
ag116
ag2
ag3
aa(lp1962
g115
ag116
ag4
ag5
aa(lp1963
g115
ag116
ag7
ag8
aa(lp1964
g115
ag116
ag10
ag11
aa(lp1965
g115
ag116
ag13
ag14
aa(lp1966
g115
ag116
ag16
ag17
aa(lp1967
g115
ag116
ag19
ag20
aa(lp1968
g115
ag116
ag22
ag23
aa(lp1969
g115
ag116
ag25
ag26
aa(lp1970
g115
ag116
ag28
ag29
aa(lp1971
g115
ag116
ag31
ag32
aa(lp1972
g115
ag116
ag34
ag35
aa(lp1973
g115
ag116
ag37
ag38
aa(lp1974
g115
ag116
ag40
ag41
aa(lp1975
g115
ag116
ag43
ag44
aa(lp1976
g115
ag116
ag46
ag47
aa(lp1977
g115
ag116
ag49
ag50
aa(lp1978
g115
ag116
ag52
ag53
aa(lp1979
g115
ag116
ag55
ag56
aa(lp1980
g115
ag116
ag58
ag59
aa(lp1981
g115
ag116
ag61
ag62
aa(lp1982
g115
ag116
ag64
ag65
aa(lp1983
g115
ag116
ag67
ag68
aa(lp1984
g115
ag116
ag70
ag71
aa(lp1985
g115
ag116
ag73
ag74
aa(lp1986
g115
ag116
ag76
ag77
aa(lp1987
g115
ag116
ag79
ag80
aa(lp1988
g115
ag116
ag82
ag83
aa(lp1989
g115
ag116
ag85
ag86
aa(lp1990
g115
ag116
ag88
ag89
aa(lp1991
g115
ag116
ag91
ag92
aa(lp1992
g115
ag116
ag94
ag95
aa(lp1993
g115
ag116
ag97
ag98
aa(lp1994
g115
ag116
ag100
ag101
aa(lp1995
g115
ag116
ag103
ag104
aa(lp1996
g115
ag116
ag106
ag107
aa(lp1997
g115
ag116
ag109
ag110
aa(lp1998
g115
ag116
ag112
ag113
aa(lp1999
g115
ag116
ag118
ag119
aa(lp2000
g115
ag116
ag121
ag122
aa(lp2001
g115
ag116
ag124
ag125
aa(lp2002
g115
ag116
ag127
ag128
aa(lp2003
g115
ag116
ag130
ag131
aa(lp2004
g115
ag116
ag133
ag134
aa(lp2005
g115
ag116
ag136
ag137
aa(lp2006
g115
ag116
ag139
ag140
aa(lp2007
g115
ag116
ag142
ag143
aa(lp2008
g115
ag116
ag145
ag146
aa(lp2009
g115
ag116
ag148
ag149
aa(lp2010
g118
ag119
ag2
ag3
aa(lp2011
g118
ag119
ag4
ag5
aa(lp2012
g118
ag119
ag7
ag8
aa(lp2013
g118
ag119
ag10
ag11
aa(lp2014
g118
ag119
ag13
ag14
aa(lp2015
g118
ag119
ag16
ag17
aa(lp2016
g118
ag119
ag19
ag20
aa(lp2017
g118
ag119
ag22
ag23
aa(lp2018
g118
ag119
ag25
ag26
aa(lp2019
g118
ag119
ag28
ag29
aa(lp2020
g118
ag119
ag31
ag32
aa(lp2021
g118
ag119
ag34
ag35
aa(lp2022
g118
ag119
ag37
ag38
aa(lp2023
g118
ag119
ag40
ag41
aa(lp2024
g118
ag119
ag43
ag44
aa(lp2025
g118
ag119
ag46
ag47
aa(lp2026
g118
ag119
ag49
ag50
aa(lp2027
g118
ag119
ag52
ag53
aa(lp2028
g118
ag119
ag55
ag56
aa(lp2029
g118
ag119
ag58
ag59
aa(lp2030
g118
ag119
ag61
ag62
aa(lp2031
g118
ag119
ag64
ag65
aa(lp2032
g118
ag119
ag67
ag68
aa(lp2033
g118
ag119
ag70
ag71
aa(lp2034
g118
ag119
ag73
ag74
aa(lp2035
g118
ag119
ag76
ag77
aa(lp2036
g118
ag119
ag79
ag80
aa(lp2037
g118
ag119
ag82
ag83
aa(lp2038
g118
ag119
ag85
ag86
aa(lp2039
g118
ag119
ag88
ag89
aa(lp2040
g118
ag119
ag91
ag92
aa(lp2041
g118
ag119
ag94
ag95
aa(lp2042
g118
ag119
ag97
ag98
aa(lp2043
g118
ag119
ag100
ag101
aa(lp2044
g118
ag119
ag103
ag104
aa(lp2045
g118
ag119
ag106
ag107
aa(lp2046
g118
ag119
ag109
ag110
aa(lp2047
g118
ag119
ag112
ag113
aa(lp2048
g118
ag119
ag115
ag116
aa(lp2049
g118
ag119
ag121
ag122
aa(lp2050
g118
ag119
ag124
ag125
aa(lp2051
g118
ag119
ag127
ag128
aa(lp2052
g118
ag119
ag130
ag131
aa(lp2053
g118
ag119
ag133
ag134
aa(lp2054
g118
ag119
ag136
ag137
aa(lp2055
g118
ag119
ag139
ag140
aa(lp2056
g118
ag119
ag142
ag143
aa(lp2057
g118
ag119
ag145
ag146
aa(lp2058
g118
ag119
ag148
ag149
aa(lp2059
g121
ag122
ag2
ag3
aa(lp2060
g121
ag122
ag4
ag5
aa(lp2061
g121
ag122
ag7
ag8
aa(lp2062
g121
ag122
ag10
ag11
aa(lp2063
g121
ag122
ag13
ag14
aa(lp2064
g121
ag122
ag16
ag17
aa(lp2065
g121
ag122
ag19
ag20
aa(lp2066
g121
ag122
ag22
ag23
aa(lp2067
g121
ag122
ag25
ag26
aa(lp2068
g121
ag122
ag28
ag29
aa(lp2069
g121
ag122
ag31
ag32
aa(lp2070
g121
ag122
ag34
ag35
aa(lp2071
g121
ag122
ag37
ag38
aa(lp2072
g121
ag122
ag40
ag41
aa(lp2073
g121
ag122
ag43
ag44
aa(lp2074
g121
ag122
ag46
ag47
aa(lp2075
g121
ag122
ag49
ag50
aa(lp2076
g121
ag122
ag52
ag53
aa(lp2077
g121
ag122
ag55
ag56
aa(lp2078
g121
ag122
ag58
ag59
aa(lp2079
g121
ag122
ag61
ag62
aa(lp2080
g121
ag122
ag64
ag65
aa(lp2081
g121
ag122
ag67
ag68
aa(lp2082
g121
ag122
ag70
ag71
aa(lp2083
g121
ag122
ag73
ag74
aa(lp2084
g121
ag122
ag76
ag77
aa(lp2085
g121
ag122
ag79
ag80
aa(lp2086
g121
ag122
ag82
ag83
aa(lp2087
g121
ag122
ag85
ag86
aa(lp2088
g121
ag122
ag88
ag89
aa(lp2089
g121
ag122
ag91
ag92
aa(lp2090
g121
ag122
ag94
ag95
aa(lp2091
g121
ag122
ag97
ag98
aa(lp2092
g121
ag122
ag100
ag101
aa(lp2093
g121
ag122
ag103
ag104
aa(lp2094
g121
ag122
ag106
ag107
aa(lp2095
g121
ag122
ag109
ag110
aa(lp2096
g121
ag122
ag112
ag113
aa(lp2097
g121
ag122
ag115
ag116
aa(lp2098
g121
ag122
ag118
ag119
aa(lp2099
g121
ag122
ag124
ag125
aa(lp2100
g121
ag122
ag127
ag128
aa(lp2101
g121
ag122
ag130
ag131
aa(lp2102
g121
ag122
ag133
ag134
aa(lp2103
g121
ag122
ag136
ag137
aa(lp2104
g121
ag122
ag139
ag140
aa(lp2105
g121
ag122
ag142
ag143
aa(lp2106
g121
ag122
ag145
ag146
aa(lp2107
g121
ag122
ag148
ag149
aa(lp2108
g124
ag125
ag2
ag3
aa(lp2109
g124
ag125
ag4
ag5
aa(lp2110
g124
ag125
ag7
ag8
aa(lp2111
g124
ag125
ag10
ag11
aa(lp2112
g124
ag125
ag13
ag14
aa(lp2113
g124
ag125
ag16
ag17
aa(lp2114
g124
ag125
ag19
ag20
aa(lp2115
g124
ag125
ag22
ag23
aa(lp2116
g124
ag125
ag25
ag26
aa(lp2117
g124
ag125
ag28
ag29
aa(lp2118
g124
ag125
ag31
ag32
aa(lp2119
g124
ag125
ag34
ag35
aa(lp2120
g124
ag125
ag37
ag38
aa(lp2121
g124
ag125
ag40
ag41
aa(lp2122
g124
ag125
ag43
ag44
aa(lp2123
g124
ag125
ag46
ag47
aa(lp2124
g124
ag125
ag49
ag50
aa(lp2125
g124
ag125
ag52
ag53
aa(lp2126
g124
ag125
ag55
ag56
aa(lp2127
g124
ag125
ag58
ag59
aa(lp2128
g124
ag125
ag61
ag62
aa(lp2129
g124
ag125
ag64
ag65
aa(lp2130
g124
ag125
ag67
ag68
aa(lp2131
g124
ag125
ag70
ag71
aa(lp2132
g124
ag125
ag73
ag74
aa(lp2133
g124
ag125
ag76
ag77
aa(lp2134
g124
ag125
ag79
ag80
aa(lp2135
g124
ag125
ag82
ag83
aa(lp2136
g124
ag125
ag85
ag86
aa(lp2137
g124
ag125
ag88
ag89
aa(lp2138
g124
ag125
ag91
ag92
aa(lp2139
g124
ag125
ag94
ag95
aa(lp2140
g124
ag125
ag97
ag98
aa(lp2141
g124
ag125
ag100
ag101
aa(lp2142
g124
ag125
ag103
ag104
aa(lp2143
g124
ag125
ag106
ag107
aa(lp2144
g124
ag125
ag109
ag110
aa(lp2145
g124
ag125
ag112
ag113
aa(lp2146
g124
ag125
ag115
ag116
aa(lp2147
g124
ag125
ag118
ag119
aa(lp2148
g124
ag125
ag121
ag122
aa(lp2149
g124
ag125
ag127
ag128
aa(lp2150
g124
ag125
ag130
ag131
aa(lp2151
g124
ag125
ag133
ag134
aa(lp2152
g124
ag125
ag136
ag137
aa(lp2153
g124
ag125
ag139
ag140
aa(lp2154
g124
ag125
ag142
ag143
aa(lp2155
g124
ag125
ag145
ag146
aa(lp2156
g124
ag125
ag148
ag149
aa(lp2157
g127
ag128
ag2
ag3
aa(lp2158
g127
ag128
ag4
ag5
aa(lp2159
g127
ag128
ag7
ag8
aa(lp2160
g127
ag128
ag10
ag11
aa(lp2161
g127
ag128
ag13
ag14
aa(lp2162
g127
ag128
ag16
ag17
aa(lp2163
g127
ag128
ag19
ag20
aa(lp2164
g127
ag128
ag22
ag23
aa(lp2165
g127
ag128
ag25
ag26
aa(lp2166
g127
ag128
ag28
ag29
aa(lp2167
g127
ag128
ag31
ag32
aa(lp2168
g127
ag128
ag34
ag35
aa(lp2169
g127
ag128
ag37
ag38
aa(lp2170
g127
ag128
ag40
ag41
aa(lp2171
g127
ag128
ag43
ag44
aa(lp2172
g127
ag128
ag46
ag47
aa(lp2173
g127
ag128
ag49
ag50
aa(lp2174
g127
ag128
ag52
ag53
aa(lp2175
g127
ag128
ag55
ag56
aa(lp2176
g127
ag128
ag58
ag59
aa(lp2177
g127
ag128
ag61
ag62
aa(lp2178
g127
ag128
ag64
ag65
aa(lp2179
g127
ag128
ag67
ag68
aa(lp2180
g127
ag128
ag70
ag71
aa(lp2181
g127
ag128
ag73
ag74
aa(lp2182
g127
ag128
ag76
ag77
aa(lp2183
g127
ag128
ag79
ag80
aa(lp2184
g127
ag128
ag82
ag83
aa(lp2185
g127
ag128
ag85
ag86
aa(lp2186
g127
ag128
ag88
ag89
aa(lp2187
g127
ag128
ag91
ag92
aa(lp2188
g127
ag128
ag94
ag95
aa(lp2189
g127
ag128
ag97
ag98
aa(lp2190
g127
ag128
ag100
ag101
aa(lp2191
g127
ag128
ag103
ag104
aa(lp2192
g127
ag128
ag106
ag107
aa(lp2193
g127
ag128
ag109
ag110
aa(lp2194
g127
ag128
ag112
ag113
aa(lp2195
g127
ag128
ag115
ag116
aa(lp2196
g127
ag128
ag118
ag119
aa(lp2197
g127
ag128
ag121
ag122
aa(lp2198
g127
ag128
ag124
ag125
aa(lp2199
g127
ag128
ag130
ag131
aa(lp2200
g127
ag128
ag133
ag134
aa(lp2201
g127
ag128
ag136
ag137
aa(lp2202
g127
ag128
ag139
ag140
aa(lp2203
g127
ag128
ag142
ag143
aa(lp2204
g127
ag128
ag145
ag146
aa(lp2205
g127
ag128
ag148
ag149
aa(lp2206
g130
ag131
ag2
ag3
aa(lp2207
g130
ag131
ag4
ag5
aa(lp2208
g130
ag131
ag7
ag8
aa(lp2209
g130
ag131
ag10
ag11
aa(lp2210
g130
ag131
ag13
ag14
aa(lp2211
g130
ag131
ag16
ag17
aa(lp2212
g130
ag131
ag19
ag20
aa(lp2213
g130
ag131
ag22
ag23
aa(lp2214
g130
ag131
ag25
ag26
aa(lp2215
g130
ag131
ag28
ag29
aa(lp2216
g130
ag131
ag31
ag32
aa(lp2217
g130
ag131
ag34
ag35
aa(lp2218
g130
ag131
ag37
ag38
aa(lp2219
g130
ag131
ag40
ag41
aa(lp2220
g130
ag131
ag43
ag44
aa(lp2221
g130
ag131
ag46
ag47
aa(lp2222
g130
ag131
ag49
ag50
aa(lp2223
g130
ag131
ag52
ag53
aa(lp2224
g130
ag131
ag55
ag56
aa(lp2225
g130
ag131
ag58
ag59
aa(lp2226
g130
ag131
ag61
ag62
aa(lp2227
g130
ag131
ag64
ag65
aa(lp2228
g130
ag131
ag67
ag68
aa(lp2229
g130
ag131
ag70
ag71
aa(lp2230
g130
ag131
ag73
ag74
aa(lp2231
g130
ag131
ag76
ag77
aa(lp2232
g130
ag131
ag79
ag80
aa(lp2233
g130
ag131
ag82
ag83
aa(lp2234
g130
ag131
ag85
ag86
aa(lp2235
g130
ag131
ag88
ag89
aa(lp2236
g130
ag131
ag91
ag92
aa(lp2237
g130
ag131
ag94
ag95
aa(lp2238
g130
ag131
ag97
ag98
aa(lp2239
g130
ag131
ag100
ag101
aa(lp2240
g130
ag131
ag103
ag104
aa(lp2241
g130
ag131
ag106
ag107
aa(lp2242
g130
ag131
ag109
ag110
aa(lp2243
g130
ag131
ag112
ag113
aa(lp2244
g130
ag131
ag115
ag116
aa(lp2245
g130
ag131
ag118
ag119
aa(lp2246
g130
ag131
ag121
ag122
aa(lp2247
g130
ag131
ag124
ag125
aa(lp2248
g130
ag131
ag127
ag128
aa(lp2249
g130
ag131
ag133
ag134
aa(lp2250
g130
ag131
ag136
ag137
aa(lp2251
g130
ag131
ag139
ag140
aa(lp2252
g130
ag131
ag142
ag143
aa(lp2253
g130
ag131
ag145
ag146
aa(lp2254
g130
ag131
ag148
ag149
aa(lp2255
g133
ag134
ag2
ag3
aa(lp2256
g133
ag134
ag4
ag5
aa(lp2257
g133
ag134
ag7
ag8
aa(lp2258
g133
ag134
ag10
ag11
aa(lp2259
g133
ag134
ag13
ag14
aa(lp2260
g133
ag134
ag16
ag17
aa(lp2261
g133
ag134
ag19
ag20
aa(lp2262
g133
ag134
ag22
ag23
aa(lp2263
g133
ag134
ag25
ag26
aa(lp2264
g133
ag134
ag28
ag29
aa(lp2265
g133
ag134
ag31
ag32
aa(lp2266
g133
ag134
ag34
ag35
aa(lp2267
g133
ag134
ag37
ag38
aa(lp2268
g133
ag134
ag40
ag41
aa(lp2269
g133
ag134
ag43
ag44
aa(lp2270
g133
ag134
ag46
ag47
aa(lp2271
g133
ag134
ag49
ag50
aa(lp2272
g133
ag134
ag52
ag53
aa(lp2273
g133
ag134
ag55
ag56
aa(lp2274
g133
ag134
ag58
ag59
aa(lp2275
g133
ag134
ag61
ag62
aa(lp2276
g133
ag134
ag64
ag65
aa(lp2277
g133
ag134
ag67
ag68
aa(lp2278
g133
ag134
ag70
ag71
aa(lp2279
g133
ag134
ag73
ag74
aa(lp2280
g133
ag134
ag76
ag77
aa(lp2281
g133
ag134
ag79
ag80
aa(lp2282
g133
ag134
ag82
ag83
aa(lp2283
g133
ag134
ag85
ag86
aa(lp2284
g133
ag134
ag88
ag89
aa(lp2285
g133
ag134
ag91
ag92
aa(lp2286
g133
ag134
ag94
ag95
aa(lp2287
g133
ag134
ag97
ag98
aa(lp2288
g133
ag134
ag100
ag101
aa(lp2289
g133
ag134
ag103
ag104
aa(lp2290
g133
ag134
ag106
ag107
aa(lp2291
g133
ag134
ag109
ag110
aa(lp2292
g133
ag134
ag112
ag113
aa(lp2293
g133
ag134
ag115
ag116
aa(lp2294
g133
ag134
ag118
ag119
aa(lp2295
g133
ag134
ag121
ag122
aa(lp2296
g133
ag134
ag124
ag125
aa(lp2297
g133
ag134
ag127
ag128
aa(lp2298
g133
ag134
ag130
ag131
aa(lp2299
g133
ag134
ag136
ag137
aa(lp2300
g133
ag134
ag139
ag140
aa(lp2301
g133
ag134
ag142
ag143
aa(lp2302
g133
ag134
ag145
ag146
aa(lp2303
g133
ag134
ag148
ag149
aa(lp2304
g136
ag137
ag2
ag3
aa(lp2305
g136
ag137
ag4
ag5
aa(lp2306
g136
ag137
ag7
ag8
aa(lp2307
g136
ag137
ag10
ag11
aa(lp2308
g136
ag137
ag13
ag14
aa(lp2309
g136
ag137
ag16
ag17
aa(lp2310
g136
ag137
ag19
ag20
aa(lp2311
g136
ag137
ag22
ag23
aa(lp2312
g136
ag137
ag25
ag26
aa(lp2313
g136
ag137
ag28
ag29
aa(lp2314
g136
ag137
ag31
ag32
aa(lp2315
g136
ag137
ag34
ag35
aa(lp2316
g136
ag137
ag37
ag38
aa(lp2317
g136
ag137
ag40
ag41
aa(lp2318
g136
ag137
ag43
ag44
aa(lp2319
g136
ag137
ag46
ag47
aa(lp2320
g136
ag137
ag49
ag50
aa(lp2321
g136
ag137
ag52
ag53
aa(lp2322
g136
ag137
ag55
ag56
aa(lp2323
g136
ag137
ag58
ag59
aa(lp2324
g136
ag137
ag61
ag62
aa(lp2325
g136
ag137
ag64
ag65
aa(lp2326
g136
ag137
ag67
ag68
aa(lp2327
g136
ag137
ag70
ag71
aa(lp2328
g136
ag137
ag73
ag74
aa(lp2329
g136
ag137
ag76
ag77
aa(lp2330
g136
ag137
ag79
ag80
aa(lp2331
g136
ag137
ag82
ag83
aa(lp2332
g136
ag137
ag85
ag86
aa(lp2333
g136
ag137
ag88
ag89
aa(lp2334
g136
ag137
ag91
ag92
aa(lp2335
g136
ag137
ag94
ag95
aa(lp2336
g136
ag137
ag97
ag98
aa(lp2337
g136
ag137
ag100
ag101
aa(lp2338
g136
ag137
ag103
ag104
aa(lp2339
g136
ag137
ag106
ag107
aa(lp2340
g136
ag137
ag109
ag110
aa(lp2341
g136
ag137
ag112
ag113
aa(lp2342
g136
ag137
ag115
ag116
aa(lp2343
g136
ag137
ag118
ag119
aa(lp2344
g136
ag137
ag121
ag122
aa(lp2345
g136
ag137
ag124
ag125
aa(lp2346
g136
ag137
ag127
ag128
aa(lp2347
g136
ag137
ag130
ag131
aa(lp2348
g136
ag137
ag133
ag134
aa(lp2349
g136
ag137
ag139
ag140
aa(lp2350
g136
ag137
ag142
ag143
aa(lp2351
g136
ag137
ag145
ag146
aa(lp2352
g136
ag137
ag148
ag149
aa(lp2353
g139
ag140
ag2
ag3
aa(lp2354
g139
ag140
ag4
ag5
aa(lp2355
g139
ag140
ag7
ag8
aa(lp2356
g139
ag140
ag10
ag11
aa(lp2357
g139
ag140
ag13
ag14
aa(lp2358
g139
ag140
ag16
ag17
aa(lp2359
g139
ag140
ag19
ag20
aa(lp2360
g139
ag140
ag22
ag23
aa(lp2361
g139
ag140
ag25
ag26
aa(lp2362
g139
ag140
ag28
ag29
aa(lp2363
g139
ag140
ag31
ag32
aa(lp2364
g139
ag140
ag34
ag35
aa(lp2365
g139
ag140
ag37
ag38
aa(lp2366
g139
ag140
ag40
ag41
aa(lp2367
g139
ag140
ag43
ag44
aa(lp2368
g139
ag140
ag46
ag47
aa(lp2369
g139
ag140
ag49
ag50
aa(lp2370
g139
ag140
ag52
ag53
aa(lp2371
g139
ag140
ag55
ag56
aa(lp2372
g139
ag140
ag58
ag59
aa(lp2373
g139
ag140
ag61
ag62
aa(lp2374
g139
ag140
ag64
ag65
aa(lp2375
g139
ag140
ag67
ag68
aa(lp2376
g139
ag140
ag70
ag71
aa(lp2377
g139
ag140
ag73
ag74
aa(lp2378
g139
ag140
ag76
ag77
aa(lp2379
g139
ag140
ag79
ag80
aa(lp2380
g139
ag140
ag82
ag83
aa(lp2381
g139
ag140
ag85
ag86
aa(lp2382
g139
ag140
ag88
ag89
aa(lp2383
g139
ag140
ag91
ag92
aa(lp2384
g139
ag140
ag94
ag95
aa(lp2385
g139
ag140
ag97
ag98
aa(lp2386
g139
ag140
ag100
ag101
aa(lp2387
g139
ag140
ag103
ag104
aa(lp2388
g139
ag140
ag106
ag107
aa(lp2389
g139
ag140
ag109
ag110
aa(lp2390
g139
ag140
ag112
ag113
aa(lp2391
g139
ag140
ag115
ag116
aa(lp2392
g139
ag140
ag118
ag119
aa(lp2393
g139
ag140
ag121
ag122
aa(lp2394
g139
ag140
ag124
ag125
aa(lp2395
g139
ag140
ag127
ag128
aa(lp2396
g139
ag140
ag130
ag131
aa(lp2397
g139
ag140
ag133
ag134
aa(lp2398
g139
ag140
ag136
ag137
aa(lp2399
g139
ag140
ag142
ag143
aa(lp2400
g139
ag140
ag145
ag146
aa(lp2401
g139
ag140
ag148
ag149
aa(lp2402
g142
ag143
ag2
ag3
aa(lp2403
g142
ag143
ag4
ag5
aa(lp2404
g142
ag143
ag7
ag8
aa(lp2405
g142
ag143
ag10
ag11
aa(lp2406
g142
ag143
ag13
ag14
aa(lp2407
g142
ag143
ag16
ag17
aa(lp2408
g142
ag143
ag19
ag20
aa(lp2409
g142
ag143
ag22
ag23
aa(lp2410
g142
ag143
ag25
ag26
aa(lp2411
g142
ag143
ag28
ag29
aa(lp2412
g142
ag143
ag31
ag32
aa(lp2413
g142
ag143
ag34
ag35
aa(lp2414
g142
ag143
ag37
ag38
aa(lp2415
g142
ag143
ag40
ag41
aa(lp2416
g142
ag143
ag43
ag44
aa(lp2417
g142
ag143
ag46
ag47
aa(lp2418
g142
ag143
ag49
ag50
aa(lp2419
g142
ag143
ag52
ag53
aa(lp2420
g142
ag143
ag55
ag56
aa(lp2421
g142
ag143
ag58
ag59
aa(lp2422
g142
ag143
ag61
ag62
aa(lp2423
g142
ag143
ag64
ag65
aa(lp2424
g142
ag143
ag67
ag68
aa(lp2425
g142
ag143
ag70
ag71
aa(lp2426
g142
ag143
ag73
ag74
aa(lp2427
g142
ag143
ag76
ag77
aa(lp2428
g142
ag143
ag79
ag80
aa(lp2429
g142
ag143
ag82
ag83
aa(lp2430
g142
ag143
ag85
ag86
aa(lp2431
g142
ag143
ag88
ag89
aa(lp2432
g142
ag143
ag91
ag92
aa(lp2433
g142
ag143
ag94
ag95
aa(lp2434
g142
ag143
ag97
ag98
aa(lp2435
g142
ag143
ag100
ag101
aa(lp2436
g142
ag143
ag103
ag104
aa(lp2437
g142
ag143
ag106
ag107
aa(lp2438
g142
ag143
ag109
ag110
aa(lp2439
g142
ag143
ag112
ag113
aa(lp2440
g142
ag143
ag115
ag116
aa(lp2441
g142
ag143
ag118
ag119
aa(lp2442
g142
ag143
ag121
ag122
aa(lp2443
g142
ag143
ag124
ag125
aa(lp2444
g142
ag143
ag127
ag128
aa(lp2445
g142
ag143
ag130
ag131
aa(lp2446
g142
ag143
ag133
ag134
aa(lp2447
g142
ag143
ag136
ag137
aa(lp2448
g142
ag143
ag139
ag140
aa(lp2449
g142
ag143
ag145
ag146
aa(lp2450
g142
ag143
ag148
ag149
aa(lp2451
g145
ag146
ag2
ag3
aa(lp2452
g145
ag146
ag4
ag5
aa(lp2453
g145
ag146
ag7
ag8
aa(lp2454
g145
ag146
ag10
ag11
aa(lp2455
g145
ag146
ag13
ag14
aa(lp2456
g145
ag146
ag16
ag17
aa(lp2457
g145
ag146
ag19
ag20
aa(lp2458
g145
ag146
ag22
ag23
aa(lp2459
g145
ag146
ag25
ag26
aa(lp2460
g145
ag146
ag28
ag29
aa(lp2461
g145
ag146
ag31
ag32
aa(lp2462
g145
ag146
ag34
ag35
aa(lp2463
g145
ag146
ag37
ag38
aa(lp2464
g145
ag146
ag40
ag41
aa(lp2465
g145
ag146
ag43
ag44
aa(lp2466
g145
ag146
ag46
ag47
aa(lp2467
g145
ag146
ag49
ag50
aa(lp2468
g145
ag146
ag52
ag53
aa(lp2469
g145
ag146
ag55
ag56
aa(lp2470
g145
ag146
ag58
ag59
aa(lp2471
g145
ag146
ag61
ag62
aa(lp2472
g145
ag146
ag64
ag65
aa(lp2473
g145
ag146
ag67
ag68
aa(lp2474
g145
ag146
ag70
ag71
aa(lp2475
g145
ag146
ag73
ag74
aa(lp2476
g145
ag146
ag76
ag77
aa(lp2477
g145
ag146
ag79
ag80
aa(lp2478
g145
ag146
ag82
ag83
aa(lp2479
g145
ag146
ag85
ag86
aa(lp2480
g145
ag146
ag88
ag89
aa(lp2481
g145
ag146
ag91
ag92
aa(lp2482
g145
ag146
ag94
ag95
aa(lp2483
g145
ag146
ag97
ag98
aa(lp2484
g145
ag146
ag100
ag101
aa(lp2485
g145
ag146
ag103
ag104
aa(lp2486
g145
ag146
ag106
ag107
aa(lp2487
g145
ag146
ag109
ag110
aa(lp2488
g145
ag146
ag112
ag113
aa(lp2489
g145
ag146
ag115
ag116
aa(lp2490
g145
ag146
ag118
ag119
aa(lp2491
g145
ag146
ag121
ag122
aa(lp2492
g145
ag146
ag124
ag125
aa(lp2493
g145
ag146
ag127
ag128
aa(lp2494
g145
ag146
ag130
ag131
aa(lp2495
g145
ag146
ag133
ag134
aa(lp2496
g145
ag146
ag136
ag137
aa(lp2497
g145
ag146
ag139
ag140
aa(lp2498
g145
ag146
ag142
ag143
aa(lp2499
g145
ag146
ag148
ag149
aa(lp2500
g148
ag149
ag2
ag3
aa(lp2501
g148
ag149
ag4
ag5
aa(lp2502
g148
ag149
ag7
ag8
aa(lp2503
g148
ag149
ag10
ag11
aa(lp2504
g148
ag149
ag13
ag14
aa(lp2505
g148
ag149
ag16
ag17
aa(lp2506
g148
ag149
ag19
ag20
aa(lp2507
g148
ag149
ag22
ag23
aa(lp2508
g148
ag149
ag25
ag26
aa(lp2509
g148
ag149
ag28
ag29
aa(lp2510
g148
ag149
ag31
ag32
aa(lp2511
g148
ag149
ag34
ag35
aa(lp2512
g148
ag149
ag37
ag38
aa(lp2513
g148
ag149
ag40
ag41
aa(lp2514
g148
ag149
ag43
ag44
aa(lp2515
g148
ag149
ag46
ag47
aa(lp2516
g148
ag149
ag49
ag50
aa(lp2517
g148
ag149
ag52
ag53
aa(lp2518
g148
ag149
ag55
ag56
aa(lp2519
g148
ag149
ag58
ag59
aa(lp2520
g148
ag149
ag61
ag62
aa(lp2521
g148
ag149
ag64
ag65
aa(lp2522
g148
ag149
ag67
ag68
aa(lp2523
g148
ag149
ag70
ag71
aa(lp2524
g148
ag149
ag73
ag74
aa(lp2525
g148
ag149
ag76
ag77
aa(lp2526
g148
ag149
ag79
ag80
aa(lp2527
g148
ag149
ag82
ag83
aa(lp2528
g148
ag149
ag85
ag86
aa(lp2529
g148
ag149
ag88
ag89
aa(lp2530
g148
ag149
ag91
ag92
aa(lp2531
g148
ag149
ag94
ag95
aa(lp2532
g148
ag149
ag97
ag98
aa(lp2533
g148
ag149
ag100
ag101
aa(lp2534
g148
ag149
ag103
ag104
aa(lp2535
g148
ag149
ag106
ag107
aa(lp2536
g148
ag149
ag109
ag110
aa(lp2537
g148
ag149
ag112
ag113
aa(lp2538
g148
ag149
ag115
ag116
aa(lp2539
g148
ag149
ag118
ag119
aa(lp2540
g148
ag149
ag121
ag122
aa(lp2541
g148
ag149
ag124
ag125
aa(lp2542
g148
ag149
ag127
ag128
aa(lp2543
g148
ag149
ag130
ag131
aa(lp2544
g148
ag149
ag133
ag134
aa(lp2545
g148
ag149
ag136
ag137
aa(lp2546
g148
ag149
ag139
ag140
aa(lp2547
g148
ag149
ag142
ag143
aa(lp2548
g148
ag149
ag145
ag146
aa.