(lp0
(lp1
S'drop_VB'
p2
aS'fall_VB'
p3
aS'cut_VB'
p4
aS'bleed_VB'
p5
aa(lp6
g2
ag3
aS'nourish_VB'
p7
aS'grow_VB'
p8
aa(lp9
g2
ag3
aS'crush_VB'
p10
aS'break_VB'
p11
aa(lp12
g2
ag3
aS'kill_VB'
p13
aS'die_VB'
p14
aa(lp15
g2
ag3
aS'ignite_VB'
p16
aS'burn_VB'
p17
aa(lp18
g2
ag3
aS'hit_VB'
p19
aS'shatter_VB'
p20
aa(lp21
g2
ag3
aS'trip_VB'
p22
aS'stumble_VB'
p23
aa(lp24
g2
ag3
aS'watch_VB'
p25
aS'see_VB'
p26
aa(lp27
g2
ag3
aS'listen_VB'
p28
aS'hear_VB'
p29
aa(lp30
g2
ag3
aS'pursue_VB'
p31
aS'catch_VB'
p32
aa(lp33
g2
ag3
aS'aspire_VB'
p34
aS'attain_VB'
p35
aa(lp36
g2
ag3
aS'fear_VB'
p37
aS'flee_VB'
p38
aa(lp39
g2
ag3
aS'travel_VB'
p40
aS'arrive_VB'
p41
aa(lp42
g2
ag3
aS'throw_VB'
p43
aS'fly_VB'
p44
aa(lp45
g4
ag5
ag2
ag3
aa(lp46
g4
ag5
ag7
ag8
aa(lp47
g4
ag5
ag10
ag11
aa(lp48
g4
ag5
ag13
ag14
aa(lp49
g4
ag5
ag16
ag17
aa(lp50
g4
ag5
ag19
ag20
aa(lp51
g4
ag5
ag22
ag23
aa(lp52
g4
ag5
ag25
ag26
aa(lp53
g4
ag5
ag28
ag29
aa(lp54
g4
ag5
ag31
ag32
aa(lp55
g4
ag5
ag34
ag35
aa(lp56
g4
ag5
ag37
ag38
aa(lp57
g4
ag5
ag40
ag41
aa(lp58
g4
ag5
ag43
ag44
aa(lp59
g7
ag8
ag2
ag3
aa(lp60
g7
ag8
ag4
ag5
aa(lp61
g7
ag8
ag10
ag11
aa(lp62
g7
ag8
ag13
ag14
aa(lp63
g7
ag8
ag16
ag17
aa(lp64
g7
ag8
ag19
ag20
aa(lp65
g7
ag8
ag22
ag23
aa(lp66
g7
ag8
ag25
ag26
aa(lp67
g7
ag8
ag28
ag29
aa(lp68
g7
ag8
ag31
ag32
aa(lp69
g7
ag8
ag34
ag35
aa(lp70
g7
ag8
ag37
ag38
aa(lp71
g7
ag8
ag40
ag41
aa(lp72
g7
ag8
ag43
ag44
aa(lp73
g10
ag11
ag2
ag3
aa(lp74
g10
ag11
ag4
ag5
aa(lp75
g10
ag11
ag7
ag8
aa(lp76
g10
ag11
ag13
ag14
aa(lp77
g10
ag11
ag16
ag17
aa(lp78
g10
ag11
ag19
ag20
aa(lp79
g10
ag11
ag22
ag23
aa(lp80
g10
ag11
ag25
ag26
aa(lp81
g10
ag11
ag28
ag29
aa(lp82
g10
ag11
ag31
ag32
aa(lp83
g10
ag11
ag34
ag35
aa(lp84
g10
ag11
ag37
ag38
aa(lp85
g10
ag11
ag40
ag41
aa(lp86
g10
ag11
ag43
ag44
aa(lp87
g13
ag14
ag2
ag3
aa(lp88
g13
ag14
ag4
ag5
aa(lp89
g13
ag14
ag7
ag8
aa(lp90
g13
ag14
ag10
ag11
aa(lp91
g13
ag14
ag16
ag17
aa(lp92
g13
ag14
ag19
ag20
aa(lp93
g13
ag14
ag22
ag23
aa(lp94
g13
ag14
ag25
ag26
aa(lp95
g13
ag14
ag28
ag29
aa(lp96
g13
ag14
ag31
ag32
aa(lp97
g13
ag14
ag34
ag35
aa(lp98
g13
ag14
ag37
ag38
aa(lp99
g13
ag14
ag40
ag41
aa(lp100
g13
ag14
ag43
ag44
aa(lp101
g16
ag17
ag2
ag3
aa(lp102
g16
ag17
ag4
ag5
aa(lp103
g16
ag17
ag7
ag8
aa(lp104
g16
ag17
ag10
ag11
aa(lp105
g16
ag17
ag13
ag14
aa(lp106
g16
ag17
ag19
ag20
aa(lp107
g16
ag17
ag22
ag23
aa(lp108
g16
ag17
ag25
ag26
aa(lp109
g16
ag17
ag28
ag29
aa(lp110
g16
ag17
ag31
ag32
aa(lp111
g16
ag17
ag34
ag35
aa(lp112
g16
ag17
ag37
ag38
aa(lp113
g16
ag17
ag40
ag41
aa(lp114
g16
ag17
ag43
ag44
aa(lp115
g19
ag20
ag2
ag3
aa(lp116
g19
ag20
ag4
ag5
aa(lp117
g19
ag20
ag7
ag8
aa(lp118
g19
ag20
ag10
ag11
aa(lp119
g19
ag20
ag13
ag14
aa(lp120
g19
ag20
ag16
ag17
aa(lp121
g19
ag20
ag22
ag23
aa(lp122
g19
ag20
ag25
ag26
aa(lp123
g19
ag20
ag28
ag29
aa(lp124
g19
ag20
ag31
ag32
aa(lp125
g19
ag20
ag34
ag35
aa(lp126
g19
ag20
ag37
ag38
aa(lp127
g19
ag20
ag40
ag41
aa(lp128
g19
ag20
ag43
ag44
aa(lp129
g22
ag23
ag2
ag3
aa(lp130
g22
ag23
ag4
ag5
aa(lp131
g22
ag23
ag7
ag8
aa(lp132
g22
ag23
ag10
ag11
aa(lp133
g22
ag23
ag13
ag14
aa(lp134
g22
ag23
ag16
ag17
aa(lp135
g22
ag23
ag19
ag20
aa(lp136
g22
ag23
ag25
ag26
aa(lp137
g22
ag23
ag28
ag29
aa(lp138
g22
ag23
ag31
ag32
aa(lp139
g22
ag23
ag34
ag35
aa(lp140
g22
ag23
ag37
ag38
aa(lp141
g22
ag23
ag40
ag41
aa(lp142
g22
ag23
ag43
ag44
aa(lp143
g25
ag26
ag2
ag3
aa(lp144
g25
ag26
ag4
ag5
aa(lp145
g25
ag26
ag7
ag8
aa(lp146
g25
ag26
ag10
ag11
aa(lp147
g25
ag26
ag13
ag14
aa(lp148
g25
ag26
ag16
ag17
aa(lp149
g25
ag26
ag19
ag20
aa(lp150
g25
ag26
ag22
ag23
aa(lp151
g25
ag26
ag28
ag29
aa(lp152
g25
ag26
ag31
ag32
aa(lp153
g25
ag26
ag34
ag35
aa(lp154
g25
ag26
ag37
ag38
aa(lp155
g25
ag26
ag40
ag41
aa(lp156
g25
ag26
ag43
ag44
aa(lp157
g28
ag29
ag2
ag3
aa(lp158
g28
ag29
ag4
ag5
aa(lp159
g28
ag29
ag7
ag8
aa(lp160
g28
ag29
ag10
ag11
aa(lp161
g28
ag29
ag13
ag14
aa(lp162
g28
ag29
ag16
ag17
aa(lp163
g28
ag29
ag19
ag20
aa(lp164
g28
ag29
ag22
ag23
aa(lp165
g28
ag29
ag25
ag26
aa(lp166
g28
ag29
ag31
ag32
aa(lp167
g28
ag29
ag34
ag35
aa(lp168
g28
ag29
ag37
ag38
aa(lp169
g28
ag29
ag40
ag41
aa(lp170
g28
ag29
ag43
ag44
aa(lp171
g31
ag32
ag2
ag3
aa(lp172
g31
ag32
ag4
ag5
aa(lp173
g31
ag32
ag7
ag8
aa(lp174
g31
ag32
ag10
ag11
aa(lp175
g31
ag32
ag13
ag14
aa(lp176
g31
ag32
ag16
ag17
aa(lp177
g31
ag32
ag19
ag20
aa(lp178
g31
ag32
ag22
ag23
aa(lp179
g31
ag32
ag25
ag26
aa(lp180
g31
ag32
ag28
ag29
aa(lp181
g31
ag32
ag34
ag35
aa(lp182
g31
ag32
ag37
ag38
aa(lp183
g31
ag32
ag40
ag41
aa(lp184
g31
ag32
ag43
ag44
aa(lp185
g34
ag35
ag2
ag3
aa(lp186
g34
ag35
ag4
ag5
aa(lp187
g34
ag35
ag7
ag8
aa(lp188
g34
ag35
ag10
ag11
aa(lp189
g34
ag35
ag13
ag14
aa(lp190
g34
ag35
ag16
ag17
aa(lp191
g34
ag35
ag19
ag20
aa(lp192
g34
ag35
ag22
ag23
aa(lp193
g34
ag35
ag25
ag26
aa(lp194
g34
ag35
ag28
ag29
aa(lp195
g34
ag35
ag31
ag32
aa(lp196
g34
ag35
ag37
ag38
aa(lp197
g34
ag35
ag40
ag41
aa(lp198
g34
ag35
ag43
ag44
aa(lp199
g37
ag38
ag2
ag3
aa(lp200
g37
ag38
ag4
ag5
aa(lp201
g37
ag38
ag7
ag8
aa(lp202
g37
ag38
ag10
ag11
aa(lp203
g37
ag38
ag13
ag14
aa(lp204
g37
ag38
ag16
ag17
aa(lp205
g37
ag38
ag19
ag20
aa(lp206
g37
ag38
ag22
ag23
aa(lp207
g37
ag38
ag25
ag26
aa(lp208
g37
ag38
ag28
ag29
aa(lp209
g37
ag38
ag31
ag32
aa(lp210
g37
ag38
ag34
ag35
aa(lp211
g37
ag38
ag40
ag41
aa(lp212
g37
ag38
ag43
ag44
aa(lp213
g40
ag41
ag2
ag3
aa(lp214
g40
ag41
ag4
ag5
aa(lp215
g40
ag41
ag7
ag8
aa(lp216
g40
ag41
ag10
ag11
aa(lp217
g40
ag41
ag13
ag14
aa(lp218
g40
ag41
ag16
ag17
aa(lp219
g40
ag41
ag19
ag20
aa(lp220
g40
ag41
ag22
ag23
aa(lp221
g40
ag41
ag25
ag26
aa(lp222
g40
ag41
ag28
ag29
aa(lp223
g40
ag41
ag31
ag32
aa(lp224
g40
ag41
ag34
ag35
aa(lp225
g40
ag41
ag37
ag38
aa(lp226
g40
ag41
ag43
ag44
aa(lp227
g43
ag44
ag2
ag3
aa(lp228
g43
ag44
ag4
ag5
aa(lp229
g43
ag44
ag7
ag8
aa(lp230
g43
ag44
ag10
ag11
aa(lp231
g43
ag44
ag13
ag14
aa(lp232
g43
ag44
ag16
ag17
aa(lp233
g43
ag44
ag19
ag20
aa(lp234
g43
ag44
ag22
ag23
aa(lp235
g43
ag44
ag25
ag26
aa(lp236
g43
ag44
ag28
ag29
aa(lp237
g43
ag44
ag31
ag32
aa(lp238
g43
ag44
ag34
ag35
aa(lp239
g43
ag44
ag37
ag38
aa(lp240
g43
ag44
ag40
ag41
aa.