(lp0
(lp1
S'mayonnaise_NN'
p2
aS'refrigerator_NN'
p3
aS'broom_NN'
p4
aS'closet_NN'
p5
aa(lp6
S'mayonnaise_NN'
p7
aS'refrigerator_NN'
p8
aS'detergent_NN'
p9
aS'cupboard_NN'
p10
aa(lp11
S'mayonnaise_NN'
p12
aS'refrigerator_NN'
p13
aS'butter_NN'
p14
aS'refrigerator_NN'
p15
aa(lp16
S'mayonnaise_NN'
p17
aS'refrigerator_NN'
p18
aS'toaster_NN'
p19
aS'counter_NN'
p20
aa(lp21
S'mayonnaise_NN'
p22
aS'refrigerator_NN'
p23
aS'water_NN'
p24
aS'sink_VB'
p25
aa(lp26
S'mayonnaise_NN'
p27
aS'refrigerator_NN'
p28
aS'computer_NN'
p29
aS'desk_NN'
p30
aa(lp31
S'mayonnaise_NN'
p32
aS'refrigerator_NN'
p33
aS'keyboard_NN'
p34
aS'desk_NN'
p35
aa(lp36
S'mayonnaise_NN'
p37
aS'refrigerator_NN'
p38
aS'tomato_NN'
p39
aS'refrigerator_NN'
p40
aa(lp41
S'mayonnaise_NN'
p42
aS'refrigerator_NN'
p43
aS'bread_NN'
p44
aS'counter_NN'
p45
aa(lp46
S'mayonnaise_NN'
p47
aS'refrigerator_NN'
p48
aS'sponge_NN'
p49
aS'closet_NN'
p50
aa(lp51
S'mayonnaise_NN'
p52
aS'refrigerator_NN'
p53
aS'book_NN'
p54
aS'bookshelf_NN'
p55
aa(lp56
S'mayonnaise_NN'
p57
aS'refrigerator_NN'
p58
aS'cushion_NN'
p59
aS'sofa_NN'
p60
aa(lp61
S'mayonnaise_NN'
p62
aS'refrigerator_NN'
p63
aS'pillow_NN'
p64
aS'bed_NN'
p65
aa(lp66
S'mayonnaise_NN'
p67
aS'refrigerator_NN'
p68
aS'cups_NNS'
p69
aS'cupboard_NN'
p70
aa(lp71
S'mayonnaise_NN'
p72
aS'refrigerator_NN'
p73
aS'clothes_NNS'
p74
aS'dresser_NN'
p75
aa(lp76
S'mayonnaise_NN'
p77
aS'refrigerator_NN'
p78
aS'coats_NNS'
p79
aS'wardrobe_NN'
p80
aa(lp81
S'mayonnaise_NN'
p82
aS'refrigerator_NN'
p83
aS'silverware_NN'
p84
aS'drawer_NN'
p85
aa(lp86
S'mayonnaise_NN'
p87
aS'refrigerator_NN'
p88
aS'knives_NNS'
p89
aS'drawer_NN'
p90
aa(lp91
S'mayonnaise_NN'
p92
aS'refrigerator_NN'
p93
aS'cereal_NN'
p94
aS'cupboard_NN'
p95
aa(lp96
S'mayonnaise_NN'
p97
aS'refrigerator_NN'
p98
aS'milk_NN'
p99
aS'fridge_NN'
p100
aa(lp101
S'mayonnaise_NN'
p102
aS'refrigerator_NN'
p103
aS'soda_NN'
p104
aS'fridge_NN'
p105
aa(lp106
S'mayonnaise_NN'
p107
aS'refrigerator_NN'
p108
aS'crackers_NNS'
p109
aS'cupboard_NN'
p110
aa(lp111
S'mayonnaise_NN'
p112
aS'refrigerator_NN'
p113
aS'car_NN'
p114
aS'garage_NN'
p115
aa(lp116
S'mayonnaise_NN'
p117
aS'refrigerator_NN'
p118
aS'laundry_NN'
p119
aS'hamper_VB'
p120
aa(lp121
S'mayonnaise_NN'
p122
aS'refrigerator_NN'
p123
aS'screwdriver_NN'
p124
aS'toolbox_NN'
p125
aa(lp126
S'mayonnaise_NN'
p127
aS'refrigerator_NN'
p128
aS'hammer_NN'
p129
aS'toolbox_NN'
p130
aa(lp131
S'mayonnaise_NN'
p132
aS'refrigerator_NN'
p133
aS'chainsaw_NN'
p134
aS'garage_NN'
p135
aa(lp136
S'mayonnaise_NN'
p137
aS'refrigerator_NN'
p138
aS'shovel_NN'
p139
aS'shed_NN'
p140
aa(lp141
S'mayonnaise_NN'
p142
aS'refrigerator_NN'
p143
aS'rake_NN'
p144
aS'shed_NN'
p145
aa(lp146
S'mayonnaise_NN'
p147
aS'refrigerator_NN'
p148
aS'money_NN'
p149
aS'wallet_NN'
p150
aa(lp151
S'mayonnaise_NN'
p152
aS'refrigerator_NN'
p153
aS'plates_NNS'
p154
aS'cupboard_NN'
p155
aa(lp156
S'mayonnaise_NN'
p157
aS'refrigerator_NN'
p158
aS'flowers_NNS'
p159
aS'table_NN'
p160
aa(lp161
S'mayonnaise_NN'
p162
aS'refrigerator_NN'
p163
aS'popsicle_NN'
p164
aS'freezer_NN'
p165
aa(lp166
S'mayonnaise_NN'
p167
aS'refrigerator_NN'
p168
aS'ice_NN'
p169
aS'freezer_NN'
p170
aa(lp171
S'broom_NN'
p172
aS'closet_NN'
p173
aS'mayonnaise_NN'
p174
aS'refrigerator_NN'
p175
aa(lp176
S'broom_NN'
p177
aS'closet_NN'
p178
aS'detergent_NN'
p179
aS'cupboard_NN'
p180
aa(lp181
S'broom_NN'
p182
aS'closet_NN'
p183
aS'butter_NN'
p184
aS'refrigerator_NN'
p185
aa(lp186
S'broom_NN'
p187
aS'closet_NN'
p188
aS'toaster_NN'
p189
aS'counter_NN'
p190
aa(lp191
S'broom_NN'
p192
aS'closet_NN'
p193
aS'water_NN'
p194
aS'sink_VB'
p195
aa(lp196
S'broom_NN'
p197
aS'closet_NN'
p198
aS'computer_NN'
p199
aS'desk_NN'
p200
aa(lp201
S'broom_NN'
p202
aS'closet_NN'
p203
aS'keyboard_NN'
p204
aS'desk_NN'
p205
aa(lp206
S'broom_NN'
p207
aS'closet_NN'
p208
aS'tomato_NN'
p209
aS'refrigerator_NN'
p210
aa(lp211
S'broom_NN'
p212
aS'closet_NN'
p213
aS'bread_NN'
p214
aS'counter_NN'
p215
aa(lp216
S'broom_NN'
p217
aS'closet_NN'
p218
aS'sponge_NN'
p219
aS'closet_NN'
p220
aa(lp221
S'broom_NN'
p222
aS'closet_NN'
p223
aS'book_NN'
p224
aS'bookshelf_NN'
p225
aa(lp226
S'broom_NN'
p227
aS'closet_NN'
p228
aS'cushion_NN'
p229
aS'sofa_NN'
p230
aa(lp231
S'broom_NN'
p232
aS'closet_NN'
p233
aS'pillow_NN'
p234
aS'bed_NN'
p235
aa(lp236
S'broom_NN'
p237
aS'closet_NN'
p238
aS'cups_NNS'
p239
aS'cupboard_NN'
p240
aa(lp241
S'broom_NN'
p242
aS'closet_NN'
p243
aS'clothes_NNS'
p244
aS'dresser_NN'
p245
aa(lp246
S'broom_NN'
p247
aS'closet_NN'
p248
aS'coats_NNS'
p249
aS'wardrobe_NN'
p250
aa(lp251
S'broom_NN'
p252
aS'closet_NN'
p253
aS'silverware_NN'
p254
aS'drawer_NN'
p255
aa(lp256
S'broom_NN'
p257
aS'closet_NN'
p258
aS'knives_NNS'
p259
aS'drawer_NN'
p260
aa(lp261
S'broom_NN'
p262
aS'closet_NN'
p263
aS'cereal_NN'
p264
aS'cupboard_NN'
p265
aa(lp266
S'broom_NN'
p267
aS'closet_NN'
p268
aS'milk_NN'
p269
aS'fridge_NN'
p270
aa(lp271
S'broom_NN'
p272
aS'closet_NN'
p273
aS'soda_NN'
p274
aS'fridge_NN'
p275
aa(lp276
S'broom_NN'
p277
aS'closet_NN'
p278
aS'crackers_NNS'
p279
aS'cupboard_NN'
p280
aa(lp281
S'broom_NN'
p282
aS'closet_NN'
p283
aS'car_NN'
p284
aS'garage_NN'
p285
aa(lp286
S'broom_NN'
p287
aS'closet_NN'
p288
aS'laundry_NN'
p289
aS'hamper_VB'
p290
aa(lp291
S'broom_NN'
p292
aS'closet_NN'
p293
aS'screwdriver_NN'
p294
aS'toolbox_NN'
p295
aa(lp296
S'broom_NN'
p297
aS'closet_NN'
p298
aS'hammer_NN'
p299
aS'toolbox_NN'
p300
aa(lp301
S'broom_NN'
p302
aS'closet_NN'
p303
aS'chainsaw_NN'
p304
aS'garage_NN'
p305
aa(lp306
S'broom_NN'
p307
aS'closet_NN'
p308
aS'shovel_NN'
p309
aS'shed_NN'
p310
aa(lp311
S'broom_NN'
p312
aS'closet_NN'
p313
aS'rake_NN'
p314
aS'shed_NN'
p315
aa(lp316
S'broom_NN'
p317
aS'closet_NN'
p318
aS'money_NN'
p319
aS'wallet_NN'
p320
aa(lp321
S'broom_NN'
p322
aS'closet_NN'
p323
aS'plates_NNS'
p324
aS'cupboard_NN'
p325
aa(lp326
S'broom_NN'
p327
aS'closet_NN'
p328
aS'flowers_NNS'
p329
aS'table_NN'
p330
aa(lp331
S'broom_NN'
p332
aS'closet_NN'
p333
aS'popsicle_NN'
p334
aS'freezer_NN'
p335
aa(lp336
S'broom_NN'
p337
aS'closet_NN'
p338
aS'ice_NN'
p339
aS'freezer_NN'
p340
aa(lp341
S'detergent_NN'
p342
aS'cupboard_NN'
p343
aS'mayonnaise_NN'
p344
aS'refrigerator_NN'
p345
aa(lp346
S'detergent_NN'
p347
aS'cupboard_NN'
p348
aS'broom_NN'
p349
aS'closet_NN'
p350
aa(lp351
S'detergent_NN'
p352
aS'cupboard_NN'
p353
aS'butter_NN'
p354
aS'refrigerator_NN'
p355
aa(lp356
S'detergent_NN'
p357
aS'cupboard_NN'
p358
aS'toaster_NN'
p359
aS'counter_NN'
p360
aa(lp361
S'detergent_NN'
p362
aS'cupboard_NN'
p363
aS'water_NN'
p364
aS'sink_VB'
p365
aa(lp366
S'detergent_NN'
p367
aS'cupboard_NN'
p368
aS'computer_NN'
p369
aS'desk_NN'
p370
aa(lp371
S'detergent_NN'
p372
aS'cupboard_NN'
p373
aS'keyboard_NN'
p374
aS'desk_NN'
p375
aa(lp376
S'detergent_NN'
p377
aS'cupboard_NN'
p378
aS'tomato_NN'
p379
aS'refrigerator_NN'
p380
aa(lp381
S'detergent_NN'
p382
aS'cupboard_NN'
p383
aS'bread_NN'
p384
aS'counter_NN'
p385
aa(lp386
S'detergent_NN'
p387
aS'cupboard_NN'
p388
aS'sponge_NN'
p389
aS'closet_NN'
p390
aa(lp391
S'detergent_NN'
p392
aS'cupboard_NN'
p393
aS'book_NN'
p394
aS'bookshelf_NN'
p395
aa(lp396
S'detergent_NN'
p397
aS'cupboard_NN'
p398
aS'cushion_NN'
p399
aS'sofa_NN'
p400
aa(lp401
S'detergent_NN'
p402
aS'cupboard_NN'
p403
aS'pillow_NN'
p404
aS'bed_NN'
p405
aa(lp406
S'detergent_NN'
p407
aS'cupboard_NN'
p408
aS'cups_NNS'
p409
aS'cupboard_NN'
p410
aa(lp411
S'detergent_NN'
p412
aS'cupboard_NN'
p413
aS'clothes_NNS'
p414
aS'dresser_NN'
p415
aa(lp416
S'detergent_NN'
p417
aS'cupboard_NN'
p418
aS'coats_NNS'
p419
aS'wardrobe_NN'
p420
aa(lp421
S'detergent_NN'
p422
aS'cupboard_NN'
p423
aS'silverware_NN'
p424
aS'drawer_NN'
p425
aa(lp426
S'detergent_NN'
p427
aS'cupboard_NN'
p428
aS'knives_NNS'
p429
aS'drawer_NN'
p430
aa(lp431
S'detergent_NN'
p432
aS'cupboard_NN'
p433
aS'cereal_NN'
p434
aS'cupboard_NN'
p435
aa(lp436
S'detergent_NN'
p437
aS'cupboard_NN'
p438
aS'milk_NN'
p439
aS'fridge_NN'
p440
aa(lp441
S'detergent_NN'
p442
aS'cupboard_NN'
p443
aS'soda_NN'
p444
aS'fridge_NN'
p445
aa(lp446
S'detergent_NN'
p447
aS'cupboard_NN'
p448
aS'crackers_NNS'
p449
aS'cupboard_NN'
p450
aa(lp451
S'detergent_NN'
p452
aS'cupboard_NN'
p453
aS'car_NN'
p454
aS'garage_NN'
p455
aa(lp456
S'detergent_NN'
p457
aS'cupboard_NN'
p458
aS'laundry_NN'
p459
aS'hamper_VB'
p460
aa(lp461
S'detergent_NN'
p462
aS'cupboard_NN'
p463
aS'screwdriver_NN'
p464
aS'toolbox_NN'
p465
aa(lp466
S'detergent_NN'
p467
aS'cupboard_NN'
p468
aS'hammer_NN'
p469
aS'toolbox_NN'
p470
aa(lp471
S'detergent_NN'
p472
aS'cupboard_NN'
p473
aS'chainsaw_NN'
p474
aS'garage_NN'
p475
aa(lp476
S'detergent_NN'
p477
aS'cupboard_NN'
p478
aS'shovel_NN'
p479
aS'shed_NN'
p480
aa(lp481
S'detergent_NN'
p482
aS'cupboard_NN'
p483
aS'rake_NN'
p484
aS'shed_NN'
p485
aa(lp486
S'detergent_NN'
p487
aS'cupboard_NN'
p488
aS'money_NN'
p489
aS'wallet_NN'
p490
aa(lp491
S'detergent_NN'
p492
aS'cupboard_NN'
p493
aS'plates_NNS'
p494
aS'cupboard_NN'
p495
aa(lp496
S'detergent_NN'
p497
aS'cupboard_NN'
p498
aS'flowers_NNS'
p499
aS'table_NN'
p500
aa(lp501
S'detergent_NN'
p502
aS'cupboard_NN'
p503
aS'popsicle_NN'
p504
aS'freezer_NN'
p505
aa(lp506
S'detergent_NN'
p507
aS'cupboard_NN'
p508
aS'ice_NN'
p509
aS'freezer_NN'
p510
aa(lp511
S'butter_NN'
p512
aS'refrigerator_NN'
p513
aS'mayonnaise_NN'
p514
aS'refrigerator_NN'
p515
aa(lp516
S'butter_NN'
p517
aS'refrigerator_NN'
p518
aS'broom_NN'
p519
aS'closet_NN'
p520
aa(lp521
S'butter_NN'
p522
aS'refrigerator_NN'
p523
aS'detergent_NN'
p524
aS'cupboard_NN'
p525
aa(lp526
S'butter_NN'
p527
aS'refrigerator_NN'
p528
aS'toaster_NN'
p529
aS'counter_NN'
p530
aa(lp531
S'butter_NN'
p532
aS'refrigerator_NN'
p533
aS'water_NN'
p534
aS'sink_VB'
p535
aa(lp536
S'butter_NN'
p537
aS'refrigerator_NN'
p538
aS'computer_NN'
p539
aS'desk_NN'
p540
aa(lp541
S'butter_NN'
p542
aS'refrigerator_NN'
p543
aS'keyboard_NN'
p544
aS'desk_NN'
p545
aa(lp546
S'butter_NN'
p547
aS'refrigerator_NN'
p548
aS'tomato_NN'
p549
aS'refrigerator_NN'
p550
aa(lp551
S'butter_NN'
p552
aS'refrigerator_NN'
p553
aS'bread_NN'
p554
aS'counter_NN'
p555
aa(lp556
S'butter_NN'
p557
aS'refrigerator_NN'
p558
aS'sponge_NN'
p559
aS'closet_NN'
p560
aa(lp561
S'butter_NN'
p562
aS'refrigerator_NN'
p563
aS'book_NN'
p564
aS'bookshelf_NN'
p565
aa(lp566
S'butter_NN'
p567
aS'refrigerator_NN'
p568
aS'cushion_NN'
p569
aS'sofa_NN'
p570
aa(lp571
S'butter_NN'
p572
aS'refrigerator_NN'
p573
aS'pillow_NN'
p574
aS'bed_NN'
p575
aa(lp576
S'butter_NN'
p577
aS'refrigerator_NN'
p578
aS'cups_NNS'
p579
aS'cupboard_NN'
p580
aa(lp581
S'butter_NN'
p582
aS'refrigerator_NN'
p583
aS'clothes_NNS'
p584
aS'dresser_NN'
p585
aa(lp586
S'butter_NN'
p587
aS'refrigerator_NN'
p588
aS'coats_NNS'
p589
aS'wardrobe_NN'
p590
aa(lp591
S'butter_NN'
p592
aS'refrigerator_NN'
p593
aS'silverware_NN'
p594
aS'drawer_NN'
p595
aa(lp596
S'butter_NN'
p597
aS'refrigerator_NN'
p598
aS'knives_NNS'
p599
aS'drawer_NN'
p600
aa(lp601
S'butter_NN'
p602
aS'refrigerator_NN'
p603
aS'cereal_NN'
p604
aS'cupboard_NN'
p605
aa(lp606
S'butter_NN'
p607
aS'refrigerator_NN'
p608
aS'milk_NN'
p609
aS'fridge_NN'
p610
aa(lp611
S'butter_NN'
p612
aS'refrigerator_NN'
p613
aS'soda_NN'
p614
aS'fridge_NN'
p615
aa(lp616
S'butter_NN'
p617
aS'refrigerator_NN'
p618
aS'crackers_NNS'
p619
aS'cupboard_NN'
p620
aa(lp621
S'butter_NN'
p622
aS'refrigerator_NN'
p623
aS'car_NN'
p624
aS'garage_NN'
p625
aa(lp626
S'butter_NN'
p627
aS'refrigerator_NN'
p628
aS'laundry_NN'
p629
aS'hamper_VB'
p630
aa(lp631
S'butter_NN'
p632
aS'refrigerator_NN'
p633
aS'screwdriver_NN'
p634
aS'toolbox_NN'
p635
aa(lp636
S'butter_NN'
p637
aS'refrigerator_NN'
p638
aS'hammer_NN'
p639
aS'toolbox_NN'
p640
aa(lp641
S'butter_NN'
p642
aS'refrigerator_NN'
p643
aS'chainsaw_NN'
p644
aS'garage_NN'
p645
aa(lp646
S'butter_NN'
p647
aS'refrigerator_NN'
p648
aS'shovel_NN'
p649
aS'shed_NN'
p650
aa(lp651
S'butter_NN'
p652
aS'refrigerator_NN'
p653
aS'rake_NN'
p654
aS'shed_NN'
p655
aa(lp656
S'butter_NN'
p657
aS'refrigerator_NN'
p658
aS'money_NN'
p659
aS'wallet_NN'
p660
aa(lp661
S'butter_NN'
p662
aS'refrigerator_NN'
p663
aS'plates_NNS'
p664
aS'cupboard_NN'
p665
aa(lp666
S'butter_NN'
p667
aS'refrigerator_NN'
p668
aS'flowers_NNS'
p669
aS'table_NN'
p670
aa(lp671
S'butter_NN'
p672
aS'refrigerator_NN'
p673
aS'popsicle_NN'
p674
aS'freezer_NN'
p675
aa(lp676
S'butter_NN'
p677
aS'refrigerator_NN'
p678
aS'ice_NN'
p679
aS'freezer_NN'
p680
aa(lp681
S'toaster_NN'
p682
aS'counter_NN'
p683
aS'mayonnaise_NN'
p684
aS'refrigerator_NN'
p685
aa(lp686
S'toaster_NN'
p687
aS'counter_NN'
p688
aS'broom_NN'
p689
aS'closet_NN'
p690
aa(lp691
S'toaster_NN'
p692
aS'counter_NN'
p693
aS'detergent_NN'
p694
aS'cupboard_NN'
p695
aa(lp696
S'toaster_NN'
p697
aS'counter_NN'
p698
aS'butter_NN'
p699
aS'refrigerator_NN'
p700
aa(lp701
S'toaster_NN'
p702
aS'counter_NN'
p703
aS'water_NN'
p704
aS'sink_VB'
p705
aa(lp706
S'toaster_NN'
p707
aS'counter_NN'
p708
aS'computer_NN'
p709
aS'desk_NN'
p710
aa(lp711
S'toaster_NN'
p712
aS'counter_NN'
p713
aS'keyboard_NN'
p714
aS'desk_NN'
p715
aa(lp716
S'toaster_NN'
p717
aS'counter_NN'
p718
aS'tomato_NN'
p719
aS'refrigerator_NN'
p720
aa(lp721
S'toaster_NN'
p722
aS'counter_NN'
p723
aS'bread_NN'
p724
aS'counter_NN'
p725
aa(lp726
S'toaster_NN'
p727
aS'counter_NN'
p728
aS'sponge_NN'
p729
aS'closet_NN'
p730
aa(lp731
S'toaster_NN'
p732
aS'counter_NN'
p733
aS'book_NN'
p734
aS'bookshelf_NN'
p735
aa(lp736
S'toaster_NN'
p737
aS'counter_NN'
p738
aS'cushion_NN'
p739
aS'sofa_NN'
p740
aa(lp741
S'toaster_NN'
p742
aS'counter_NN'
p743
aS'pillow_NN'
p744
aS'bed_NN'
p745
aa(lp746
S'toaster_NN'
p747
aS'counter_NN'
p748
aS'cups_NNS'
p749
aS'cupboard_NN'
p750
aa(lp751
S'toaster_NN'
p752
aS'counter_NN'
p753
aS'clothes_NNS'
p754
aS'dresser_NN'
p755
aa(lp756
S'toaster_NN'
p757
aS'counter_NN'
p758
aS'coats_NNS'
p759
aS'wardrobe_NN'
p760
aa(lp761
S'toaster_NN'
p762
aS'counter_NN'
p763
aS'silverware_NN'
p764
aS'drawer_NN'
p765
aa(lp766
S'toaster_NN'
p767
aS'counter_NN'
p768
aS'knives_NNS'
p769
aS'drawer_NN'
p770
aa(lp771
S'toaster_NN'
p772
aS'counter_NN'
p773
aS'cereal_NN'
p774
aS'cupboard_NN'
p775
aa(lp776
S'toaster_NN'
p777
aS'counter_NN'
p778
aS'milk_NN'
p779
aS'fridge_NN'
p780
aa(lp781
S'toaster_NN'
p782
aS'counter_NN'
p783
aS'soda_NN'
p784
aS'fridge_NN'
p785
aa(lp786
S'toaster_NN'
p787
aS'counter_NN'
p788
aS'crackers_NNS'
p789
aS'cupboard_NN'
p790
aa(lp791
S'toaster_NN'
p792
aS'counter_NN'
p793
aS'car_NN'
p794
aS'garage_NN'
p795
aa(lp796
S'toaster_NN'
p797
aS'counter_NN'
p798
aS'laundry_NN'
p799
aS'hamper_VB'
p800
aa(lp801
S'toaster_NN'
p802
aS'counter_NN'
p803
aS'screwdriver_NN'
p804
aS'toolbox_NN'
p805
aa(lp806
S'toaster_NN'
p807
aS'counter_NN'
p808
aS'hammer_NN'
p809
aS'toolbox_NN'
p810
aa(lp811
S'toaster_NN'
p812
aS'counter_NN'
p813
aS'chainsaw_NN'
p814
aS'garage_NN'
p815
aa(lp816
S'toaster_NN'
p817
aS'counter_NN'
p818
aS'shovel_NN'
p819
aS'shed_NN'
p820
aa(lp821
S'toaster_NN'
p822
aS'counter_NN'
p823
aS'rake_NN'
p824
aS'shed_NN'
p825
aa(lp826
S'toaster_NN'
p827
aS'counter_NN'
p828
aS'money_NN'
p829
aS'wallet_NN'
p830
aa(lp831
S'toaster_NN'
p832
aS'counter_NN'
p833
aS'plates_NNS'
p834
aS'cupboard_NN'
p835
aa(lp836
S'toaster_NN'
p837
aS'counter_NN'
p838
aS'flowers_NNS'
p839
aS'table_NN'
p840
aa(lp841
S'toaster_NN'
p842
aS'counter_NN'
p843
aS'popsicle_NN'
p844
aS'freezer_NN'
p845
aa(lp846
S'toaster_NN'
p847
aS'counter_NN'
p848
aS'ice_NN'
p849
aS'freezer_NN'
p850
aa(lp851
S'water_NN'
p852
aS'sink_VB'
p853
aS'mayonnaise_NN'
p854
aS'refrigerator_NN'
p855
aa(lp856
S'water_NN'
p857
aS'sink_VB'
p858
aS'broom_NN'
p859
aS'closet_NN'
p860
aa(lp861
S'water_NN'
p862
aS'sink_VB'
p863
aS'detergent_NN'
p864
aS'cupboard_NN'
p865
aa(lp866
S'water_NN'
p867
aS'sink_VB'
p868
aS'butter_NN'
p869
aS'refrigerator_NN'
p870
aa(lp871
S'water_NN'
p872
aS'sink_VB'
p873
aS'toaster_NN'
p874
aS'counter_NN'
p875
aa(lp876
S'water_NN'
p877
aS'sink_VB'
p878
aS'computer_NN'
p879
aS'desk_NN'
p880
aa(lp881
S'water_NN'
p882
aS'sink_VB'
p883
aS'keyboard_NN'
p884
aS'desk_NN'
p885
aa(lp886
S'water_NN'
p887
aS'sink_VB'
p888
aS'tomato_NN'
p889
aS'refrigerator_NN'
p890
aa(lp891
S'water_NN'
p892
aS'sink_VB'
p893
aS'bread_NN'
p894
aS'counter_NN'
p895
aa(lp896
S'water_NN'
p897
aS'sink_VB'
p898
aS'sponge_NN'
p899
aS'closet_NN'
p900
aa(lp901
S'water_NN'
p902
aS'sink_VB'
p903
aS'book_NN'
p904
aS'bookshelf_NN'
p905
aa(lp906
S'water_NN'
p907
aS'sink_VB'
p908
aS'cushion_NN'
p909
aS'sofa_NN'
p910
aa(lp911
S'water_NN'
p912
aS'sink_VB'
p913
aS'pillow_NN'
p914
aS'bed_NN'
p915
aa(lp916
S'water_NN'
p917
aS'sink_VB'
p918
aS'cups_NNS'
p919
aS'cupboard_NN'
p920
aa(lp921
S'water_NN'
p922
aS'sink_VB'
p923
aS'clothes_NNS'
p924
aS'dresser_NN'
p925
aa(lp926
S'water_NN'
p927
aS'sink_VB'
p928
aS'coats_NNS'
p929
aS'wardrobe_NN'
p930
aa(lp931
S'water_NN'
p932
aS'sink_VB'
p933
aS'silverware_NN'
p934
aS'drawer_NN'
p935
aa(lp936
S'water_NN'
p937
aS'sink_VB'
p938
aS'knives_NNS'
p939
aS'drawer_NN'
p940
aa(lp941
S'water_NN'
p942
aS'sink_VB'
p943
aS'cereal_NN'
p944
aS'cupboard_NN'
p945
aa(lp946
S'water_NN'
p947
aS'sink_VB'
p948
aS'milk_NN'
p949
aS'fridge_NN'
p950
aa(lp951
S'water_NN'
p952
aS'sink_VB'
p953
aS'soda_NN'
p954
aS'fridge_NN'
p955
aa(lp956
S'water_NN'
p957
aS'sink_VB'
p958
aS'crackers_NNS'
p959
aS'cupboard_NN'
p960
aa(lp961
S'water_NN'
p962
aS'sink_VB'
p963
aS'car_NN'
p964
aS'garage_NN'
p965
aa(lp966
S'water_NN'
p967
aS'sink_VB'
p968
aS'laundry_NN'
p969
aS'hamper_VB'
p970
aa(lp971
S'water_NN'
p972
aS'sink_VB'
p973
aS'screwdriver_NN'
p974
aS'toolbox_NN'
p975
aa(lp976
S'water_NN'
p977
aS'sink_VB'
p978
aS'hammer_NN'
p979
aS'toolbox_NN'
p980
aa(lp981
S'water_NN'
p982
aS'sink_VB'
p983
aS'chainsaw_NN'
p984
aS'garage_NN'
p985
aa(lp986
S'water_NN'
p987
aS'sink_VB'
p988
aS'shovel_NN'
p989
aS'shed_NN'
p990
aa(lp991
S'water_NN'
p992
aS'sink_VB'
p993
aS'rake_NN'
p994
aS'shed_NN'
p995
aa(lp996
S'water_NN'
p997
aS'sink_VB'
p998
aS'money_NN'
p999
aS'wallet_NN'
p1000
aa(lp1001
S'water_NN'
p1002
aS'sink_VB'
p1003
aS'plates_NNS'
p1004
aS'cupboard_NN'
p1005
aa(lp1006
S'water_NN'
p1007
aS'sink_VB'
p1008
aS'flowers_NNS'
p1009
aS'table_NN'
p1010
aa(lp1011
S'water_NN'
p1012
aS'sink_VB'
p1013
aS'popsicle_NN'
p1014
aS'freezer_NN'
p1015
aa(lp1016
S'water_NN'
p1017
aS'sink_VB'
p1018
aS'ice_NN'
p1019
aS'freezer_NN'
p1020
aa(lp1021
S'computer_NN'
p1022
aS'desk_NN'
p1023
aS'mayonnaise_NN'
p1024
aS'refrigerator_NN'
p1025
aa(lp1026
S'computer_NN'
p1027
aS'desk_NN'
p1028
aS'broom_NN'
p1029
aS'closet_NN'
p1030
aa(lp1031
S'computer_NN'
p1032
aS'desk_NN'
p1033
aS'detergent_NN'
p1034
aS'cupboard_NN'
p1035
aa(lp1036
S'computer_NN'
p1037
aS'desk_NN'
p1038
aS'butter_NN'
p1039
aS'refrigerator_NN'
p1040
aa(lp1041
S'computer_NN'
p1042
aS'desk_NN'
p1043
aS'toaster_NN'
p1044
aS'counter_NN'
p1045
aa(lp1046
S'computer_NN'
p1047
aS'desk_NN'
p1048
aS'water_NN'
p1049
aS'sink_VB'
p1050
aa(lp1051
S'computer_NN'
p1052
aS'desk_NN'
p1053
aS'keyboard_NN'
p1054
aS'desk_NN'
p1055
aa(lp1056
S'computer_NN'
p1057
aS'desk_NN'
p1058
aS'tomato_NN'
p1059
aS'refrigerator_NN'
p1060
aa(lp1061
S'computer_NN'
p1062
aS'desk_NN'
p1063
aS'bread_NN'
p1064
aS'counter_NN'
p1065
aa(lp1066
S'computer_NN'
p1067
aS'desk_NN'
p1068
aS'sponge_NN'
p1069
aS'closet_NN'
p1070
aa(lp1071
S'computer_NN'
p1072
aS'desk_NN'
p1073
aS'book_NN'
p1074
aS'bookshelf_NN'
p1075
aa(lp1076
S'computer_NN'
p1077
aS'desk_NN'
p1078
aS'cushion_NN'
p1079
aS'sofa_NN'
p1080
aa(lp1081
S'computer_NN'
p1082
aS'desk_NN'
p1083
aS'pillow_NN'
p1084
aS'bed_NN'
p1085
aa(lp1086
S'computer_NN'
p1087
aS'desk_NN'
p1088
aS'cups_NNS'
p1089
aS'cupboard_NN'
p1090
aa(lp1091
S'computer_NN'
p1092
aS'desk_NN'
p1093
aS'clothes_NNS'
p1094
aS'dresser_NN'
p1095
aa(lp1096
S'computer_NN'
p1097
aS'desk_NN'
p1098
aS'coats_NNS'
p1099
aS'wardrobe_NN'
p1100
aa(lp1101
S'computer_NN'
p1102
aS'desk_NN'
p1103
aS'silverware_NN'
p1104
aS'drawer_NN'
p1105
aa(lp1106
S'computer_NN'
p1107
aS'desk_NN'
p1108
aS'knives_NNS'
p1109
aS'drawer_NN'
p1110
aa(lp1111
S'computer_NN'
p1112
aS'desk_NN'
p1113
aS'cereal_NN'
p1114
aS'cupboard_NN'
p1115
aa(lp1116
S'computer_NN'
p1117
aS'desk_NN'
p1118
aS'milk_NN'
p1119
aS'fridge_NN'
p1120
aa(lp1121
S'computer_NN'
p1122
aS'desk_NN'
p1123
aS'soda_NN'
p1124
aS'fridge_NN'
p1125
aa(lp1126
S'computer_NN'
p1127
aS'desk_NN'
p1128
aS'crackers_NNS'
p1129
aS'cupboard_NN'
p1130
aa(lp1131
S'computer_NN'
p1132
aS'desk_NN'
p1133
aS'car_NN'
p1134
aS'garage_NN'
p1135
aa(lp1136
S'computer_NN'
p1137
aS'desk_NN'
p1138
aS'laundry_NN'
p1139
aS'hamper_VB'
p1140
aa(lp1141
S'computer_NN'
p1142
aS'desk_NN'
p1143
aS'screwdriver_NN'
p1144
aS'toolbox_NN'
p1145
aa(lp1146
S'computer_NN'
p1147
aS'desk_NN'
p1148
aS'hammer_NN'
p1149
aS'toolbox_NN'
p1150
aa(lp1151
S'computer_NN'
p1152
aS'desk_NN'
p1153
aS'chainsaw_NN'
p1154
aS'garage_NN'
p1155
aa(lp1156
S'computer_NN'
p1157
aS'desk_NN'
p1158
aS'shovel_NN'
p1159
aS'shed_NN'
p1160
aa(lp1161
S'computer_NN'
p1162
aS'desk_NN'
p1163
aS'rake_NN'
p1164
aS'shed_NN'
p1165
aa(lp1166
S'computer_NN'
p1167
aS'desk_NN'
p1168
aS'money_NN'
p1169
aS'wallet_NN'
p1170
aa(lp1171
S'computer_NN'
p1172
aS'desk_NN'
p1173
aS'plates_NNS'
p1174
aS'cupboard_NN'
p1175
aa(lp1176
S'computer_NN'
p1177
aS'desk_NN'
p1178
aS'flowers_NNS'
p1179
aS'table_NN'
p1180
aa(lp1181
S'computer_NN'
p1182
aS'desk_NN'
p1183
aS'popsicle_NN'
p1184
aS'freezer_NN'
p1185
aa(lp1186
S'computer_NN'
p1187
aS'desk_NN'
p1188
aS'ice_NN'
p1189
aS'freezer_NN'
p1190
aa(lp1191
S'keyboard_NN'
p1192
aS'desk_NN'
p1193
aS'mayonnaise_NN'
p1194
aS'refrigerator_NN'
p1195
aa(lp1196
S'keyboard_NN'
p1197
aS'desk_NN'
p1198
aS'broom_NN'
p1199
aS'closet_NN'
p1200
aa(lp1201
S'keyboard_NN'
p1202
aS'desk_NN'
p1203
aS'detergent_NN'
p1204
aS'cupboard_NN'
p1205
aa(lp1206
S'keyboard_NN'
p1207
aS'desk_NN'
p1208
aS'butter_NN'
p1209
aS'refrigerator_NN'
p1210
aa(lp1211
S'keyboard_NN'
p1212
aS'desk_NN'
p1213
aS'toaster_NN'
p1214
aS'counter_NN'
p1215
aa(lp1216
S'keyboard_NN'
p1217
aS'desk_NN'
p1218
aS'water_NN'
p1219
aS'sink_VB'
p1220
aa(lp1221
S'keyboard_NN'
p1222
aS'desk_NN'
p1223
aS'computer_NN'
p1224
aS'desk_NN'
p1225
aa(lp1226
S'keyboard_NN'
p1227
aS'desk_NN'
p1228
aS'tomato_NN'
p1229
aS'refrigerator_NN'
p1230
aa(lp1231
S'keyboard_NN'
p1232
aS'desk_NN'
p1233
aS'bread_NN'
p1234
aS'counter_NN'
p1235
aa(lp1236
S'keyboard_NN'
p1237
aS'desk_NN'
p1238
aS'sponge_NN'
p1239
aS'closet_NN'
p1240
aa(lp1241
S'keyboard_NN'
p1242
aS'desk_NN'
p1243
aS'book_NN'
p1244
aS'bookshelf_NN'
p1245
aa(lp1246
S'keyboard_NN'
p1247
aS'desk_NN'
p1248
aS'cushion_NN'
p1249
aS'sofa_NN'
p1250
aa(lp1251
S'keyboard_NN'
p1252
aS'desk_NN'
p1253
aS'pillow_NN'
p1254
aS'bed_NN'
p1255
aa(lp1256
S'keyboard_NN'
p1257
aS'desk_NN'
p1258
aS'cups_NNS'
p1259
aS'cupboard_NN'
p1260
aa(lp1261
S'keyboard_NN'
p1262
aS'desk_NN'
p1263
aS'clothes_NNS'
p1264
aS'dresser_NN'
p1265
aa(lp1266
S'keyboard_NN'
p1267
aS'desk_NN'
p1268
aS'coats_NNS'
p1269
aS'wardrobe_NN'
p1270
aa(lp1271
S'keyboard_NN'
p1272
aS'desk_NN'
p1273
aS'silverware_NN'
p1274
aS'drawer_NN'
p1275
aa(lp1276
S'keyboard_NN'
p1277
aS'desk_NN'
p1278
aS'knives_NNS'
p1279
aS'drawer_NN'
p1280
aa(lp1281
S'keyboard_NN'
p1282
aS'desk_NN'
p1283
aS'cereal_NN'
p1284
aS'cupboard_NN'
p1285
aa(lp1286
S'keyboard_NN'
p1287
aS'desk_NN'
p1288
aS'milk_NN'
p1289
aS'fridge_NN'
p1290
aa(lp1291
S'keyboard_NN'
p1292
aS'desk_NN'
p1293
aS'soda_NN'
p1294
aS'fridge_NN'
p1295
aa(lp1296
S'keyboard_NN'
p1297
aS'desk_NN'
p1298
aS'crackers_NNS'
p1299
aS'cupboard_NN'
p1300
aa(lp1301
S'keyboard_NN'
p1302
aS'desk_NN'
p1303
aS'car_NN'
p1304
aS'garage_NN'
p1305
aa(lp1306
S'keyboard_NN'
p1307
aS'desk_NN'
p1308
aS'laundry_NN'
p1309
aS'hamper_VB'
p1310
aa(lp1311
S'keyboard_NN'
p1312
aS'desk_NN'
p1313
aS'screwdriver_NN'
p1314
aS'toolbox_NN'
p1315
aa(lp1316
S'keyboard_NN'
p1317
aS'desk_NN'
p1318
aS'hammer_NN'
p1319
aS'toolbox_NN'
p1320
aa(lp1321
S'keyboard_NN'
p1322
aS'desk_NN'
p1323
aS'chainsaw_NN'
p1324
aS'garage_NN'
p1325
aa(lp1326
S'keyboard_NN'
p1327
aS'desk_NN'
p1328
aS'shovel_NN'
p1329
aS'shed_NN'
p1330
aa(lp1331
S'keyboard_NN'
p1332
aS'desk_NN'
p1333
aS'rake_NN'
p1334
aS'shed_NN'
p1335
aa(lp1336
S'keyboard_NN'
p1337
aS'desk_NN'
p1338
aS'money_NN'
p1339
aS'wallet_NN'
p1340
aa(lp1341
S'keyboard_NN'
p1342
aS'desk_NN'
p1343
aS'plates_NNS'
p1344
aS'cupboard_NN'
p1345
aa(lp1346
S'keyboard_NN'
p1347
aS'desk_NN'
p1348
aS'flowers_NNS'
p1349
aS'table_NN'
p1350
aa(lp1351
S'keyboard_NN'
p1352
aS'desk_NN'
p1353
aS'popsicle_NN'
p1354
aS'freezer_NN'
p1355
aa(lp1356
S'keyboard_NN'
p1357
aS'desk_NN'
p1358
aS'ice_NN'
p1359
aS'freezer_NN'
p1360
aa(lp1361
S'tomato_NN'
p1362
aS'refrigerator_NN'
p1363
aS'mayonnaise_NN'
p1364
aS'refrigerator_NN'
p1365
aa(lp1366
S'tomato_NN'
p1367
aS'refrigerator_NN'
p1368
aS'broom_NN'
p1369
aS'closet_NN'
p1370
aa(lp1371
S'tomato_NN'
p1372
aS'refrigerator_NN'
p1373
aS'detergent_NN'
p1374
aS'cupboard_NN'
p1375
aa(lp1376
S'tomato_NN'
p1377
aS'refrigerator_NN'
p1378
aS'butter_NN'
p1379
aS'refrigerator_NN'
p1380
aa(lp1381
S'tomato_NN'
p1382
aS'refrigerator_NN'
p1383
aS'toaster_NN'
p1384
aS'counter_NN'
p1385
aa(lp1386
S'tomato_NN'
p1387
aS'refrigerator_NN'
p1388
aS'water_NN'
p1389
aS'sink_VB'
p1390
aa(lp1391
S'tomato_NN'
p1392
aS'refrigerator_NN'
p1393
aS'computer_NN'
p1394
aS'desk_NN'
p1395
aa(lp1396
S'tomato_NN'
p1397
aS'refrigerator_NN'
p1398
aS'keyboard_NN'
p1399
aS'desk_NN'
p1400
aa(lp1401
S'tomato_NN'
p1402
aS'refrigerator_NN'
p1403
aS'bread_NN'
p1404
aS'counter_NN'
p1405
aa(lp1406
S'tomato_NN'
p1407
aS'refrigerator_NN'
p1408
aS'sponge_NN'
p1409
aS'closet_NN'
p1410
aa(lp1411
S'tomato_NN'
p1412
aS'refrigerator_NN'
p1413
aS'book_NN'
p1414
aS'bookshelf_NN'
p1415
aa(lp1416
S'tomato_NN'
p1417
aS'refrigerator_NN'
p1418
aS'cushion_NN'
p1419
aS'sofa_NN'
p1420
aa(lp1421
S'tomato_NN'
p1422
aS'refrigerator_NN'
p1423
aS'pillow_NN'
p1424
aS'bed_NN'
p1425
aa(lp1426
S'tomato_NN'
p1427
aS'refrigerator_NN'
p1428
aS'cups_NNS'
p1429
aS'cupboard_NN'
p1430
aa(lp1431
S'tomato_NN'
p1432
aS'refrigerator_NN'
p1433
aS'clothes_NNS'
p1434
aS'dresser_NN'
p1435
aa(lp1436
S'tomato_NN'
p1437
aS'refrigerator_NN'
p1438
aS'coats_NNS'
p1439
aS'wardrobe_NN'
p1440
aa(lp1441
S'tomato_NN'
p1442
aS'refrigerator_NN'
p1443
aS'silverware_NN'
p1444
aS'drawer_NN'
p1445
aa(lp1446
S'tomato_NN'
p1447
aS'refrigerator_NN'
p1448
aS'knives_NNS'
p1449
aS'drawer_NN'
p1450
aa(lp1451
S'tomato_NN'
p1452
aS'refrigerator_NN'
p1453
aS'cereal_NN'
p1454
aS'cupboard_NN'
p1455
aa(lp1456
S'tomato_NN'
p1457
aS'refrigerator_NN'
p1458
aS'milk_NN'
p1459
aS'fridge_NN'
p1460
aa(lp1461
S'tomato_NN'
p1462
aS'refrigerator_NN'
p1463
aS'soda_NN'
p1464
aS'fridge_NN'
p1465
aa(lp1466
S'tomato_NN'
p1467
aS'refrigerator_NN'
p1468
aS'crackers_NNS'
p1469
aS'cupboard_NN'
p1470
aa(lp1471
S'tomato_NN'
p1472
aS'refrigerator_NN'
p1473
aS'car_NN'
p1474
aS'garage_NN'
p1475
aa(lp1476
S'tomato_NN'
p1477
aS'refrigerator_NN'
p1478
aS'laundry_NN'
p1479
aS'hamper_VB'
p1480
aa(lp1481
S'tomato_NN'
p1482
aS'refrigerator_NN'
p1483
aS'screwdriver_NN'
p1484
aS'toolbox_NN'
p1485
aa(lp1486
S'tomato_NN'
p1487
aS'refrigerator_NN'
p1488
aS'hammer_NN'
p1489
aS'toolbox_NN'
p1490
aa(lp1491
S'tomato_NN'
p1492
aS'refrigerator_NN'
p1493
aS'chainsaw_NN'
p1494
aS'garage_NN'
p1495
aa(lp1496
S'tomato_NN'
p1497
aS'refrigerator_NN'
p1498
aS'shovel_NN'
p1499
aS'shed_NN'
p1500
aa(lp1501
S'tomato_NN'
p1502
aS'refrigerator_NN'
p1503
aS'rake_NN'
p1504
aS'shed_NN'
p1505
aa(lp1506
S'tomato_NN'
p1507
aS'refrigerator_NN'
p1508
aS'money_NN'
p1509
aS'wallet_NN'
p1510
aa(lp1511
S'tomato_NN'
p1512
aS'refrigerator_NN'
p1513
aS'plates_NNS'
p1514
aS'cupboard_NN'
p1515
aa(lp1516
S'tomato_NN'
p1517
aS'refrigerator_NN'
p1518
aS'flowers_NNS'
p1519
aS'table_NN'
p1520
aa(lp1521
S'tomato_NN'
p1522
aS'refrigerator_NN'
p1523
aS'popsicle_NN'
p1524
aS'freezer_NN'
p1525
aa(lp1526
S'tomato_NN'
p1527
aS'refrigerator_NN'
p1528
aS'ice_NN'
p1529
aS'freezer_NN'
p1530
aa(lp1531
S'bread_NN'
p1532
aS'counter_NN'
p1533
aS'mayonnaise_NN'
p1534
aS'refrigerator_NN'
p1535
aa(lp1536
S'bread_NN'
p1537
aS'counter_NN'
p1538
aS'broom_NN'
p1539
aS'closet_NN'
p1540
aa(lp1541
S'bread_NN'
p1542
aS'counter_NN'
p1543
aS'detergent_NN'
p1544
aS'cupboard_NN'
p1545
aa(lp1546
S'bread_NN'
p1547
aS'counter_NN'
p1548
aS'butter_NN'
p1549
aS'refrigerator_NN'
p1550
aa(lp1551
S'bread_NN'
p1552
aS'counter_NN'
p1553
aS'toaster_NN'
p1554
aS'counter_NN'
p1555
aa(lp1556
S'bread_NN'
p1557
aS'counter_NN'
p1558
aS'water_NN'
p1559
aS'sink_VB'
p1560
aa(lp1561
S'bread_NN'
p1562
aS'counter_NN'
p1563
aS'computer_NN'
p1564
aS'desk_NN'
p1565
aa(lp1566
S'bread_NN'
p1567
aS'counter_NN'
p1568
aS'keyboard_NN'
p1569
aS'desk_NN'
p1570
aa(lp1571
S'bread_NN'
p1572
aS'counter_NN'
p1573
aS'tomato_NN'
p1574
aS'refrigerator_NN'
p1575
aa(lp1576
S'bread_NN'
p1577
aS'counter_NN'
p1578
aS'sponge_NN'
p1579
aS'closet_NN'
p1580
aa(lp1581
S'bread_NN'
p1582
aS'counter_NN'
p1583
aS'book_NN'
p1584
aS'bookshelf_NN'
p1585
aa(lp1586
S'bread_NN'
p1587
aS'counter_NN'
p1588
aS'cushion_NN'
p1589
aS'sofa_NN'
p1590
aa(lp1591
S'bread_NN'
p1592
aS'counter_NN'
p1593
aS'pillow_NN'
p1594
aS'bed_NN'
p1595
aa(lp1596
S'bread_NN'
p1597
aS'counter_NN'
p1598
aS'cups_NNS'
p1599
aS'cupboard_NN'
p1600
aa(lp1601
S'bread_NN'
p1602
aS'counter_NN'
p1603
aS'clothes_NNS'
p1604
aS'dresser_NN'
p1605
aa(lp1606
S'bread_NN'
p1607
aS'counter_NN'
p1608
aS'coats_NNS'
p1609
aS'wardrobe_NN'
p1610
aa(lp1611
S'bread_NN'
p1612
aS'counter_NN'
p1613
aS'silverware_NN'
p1614
aS'drawer_NN'
p1615
aa(lp1616
S'bread_NN'
p1617
aS'counter_NN'
p1618
aS'knives_NNS'
p1619
aS'drawer_NN'
p1620
aa(lp1621
S'bread_NN'
p1622
aS'counter_NN'
p1623
aS'cereal_NN'
p1624
aS'cupboard_NN'
p1625
aa(lp1626
S'bread_NN'
p1627
aS'counter_NN'
p1628
aS'milk_NN'
p1629
aS'fridge_NN'
p1630
aa(lp1631
S'bread_NN'
p1632
aS'counter_NN'
p1633
aS'soda_NN'
p1634
aS'fridge_NN'
p1635
aa(lp1636
S'bread_NN'
p1637
aS'counter_NN'
p1638
aS'crackers_NNS'
p1639
aS'cupboard_NN'
p1640
aa(lp1641
S'bread_NN'
p1642
aS'counter_NN'
p1643
aS'car_NN'
p1644
aS'garage_NN'
p1645
aa(lp1646
S'bread_NN'
p1647
aS'counter_NN'
p1648
aS'laundry_NN'
p1649
aS'hamper_VB'
p1650
aa(lp1651
S'bread_NN'
p1652
aS'counter_NN'
p1653
aS'screwdriver_NN'
p1654
aS'toolbox_NN'
p1655
aa(lp1656
S'bread_NN'
p1657
aS'counter_NN'
p1658
aS'hammer_NN'
p1659
aS'toolbox_NN'
p1660
aa(lp1661
S'bread_NN'
p1662
aS'counter_NN'
p1663
aS'chainsaw_NN'
p1664
aS'garage_NN'
p1665
aa(lp1666
S'bread_NN'
p1667
aS'counter_NN'
p1668
aS'shovel_NN'
p1669
aS'shed_NN'
p1670
aa(lp1671
S'bread_NN'
p1672
aS'counter_NN'
p1673
aS'rake_NN'
p1674
aS'shed_NN'
p1675
aa(lp1676
S'bread_NN'
p1677
aS'counter_NN'
p1678
aS'money_NN'
p1679
aS'wallet_NN'
p1680
aa(lp1681
S'bread_NN'
p1682
aS'counter_NN'
p1683
aS'plates_NNS'
p1684
aS'cupboard_NN'
p1685
aa(lp1686
S'bread_NN'
p1687
aS'counter_NN'
p1688
aS'flowers_NNS'
p1689
aS'table_NN'
p1690
aa(lp1691
S'bread_NN'
p1692
aS'counter_NN'
p1693
aS'popsicle_NN'
p1694
aS'freezer_NN'
p1695
aa(lp1696
S'bread_NN'
p1697
aS'counter_NN'
p1698
aS'ice_NN'
p1699
aS'freezer_NN'
p1700
aa(lp1701
S'sponge_NN'
p1702
aS'closet_NN'
p1703
aS'mayonnaise_NN'
p1704
aS'refrigerator_NN'
p1705
aa(lp1706
S'sponge_NN'
p1707
aS'closet_NN'
p1708
aS'broom_NN'
p1709
aS'closet_NN'
p1710
aa(lp1711
S'sponge_NN'
p1712
aS'closet_NN'
p1713
aS'detergent_NN'
p1714
aS'cupboard_NN'
p1715
aa(lp1716
S'sponge_NN'
p1717
aS'closet_NN'
p1718
aS'butter_NN'
p1719
aS'refrigerator_NN'
p1720
aa(lp1721
S'sponge_NN'
p1722
aS'closet_NN'
p1723
aS'toaster_NN'
p1724
aS'counter_NN'
p1725
aa(lp1726
S'sponge_NN'
p1727
aS'closet_NN'
p1728
aS'water_NN'
p1729
aS'sink_VB'
p1730
aa(lp1731
S'sponge_NN'
p1732
aS'closet_NN'
p1733
aS'computer_NN'
p1734
aS'desk_NN'
p1735
aa(lp1736
S'sponge_NN'
p1737
aS'closet_NN'
p1738
aS'keyboard_NN'
p1739
aS'desk_NN'
p1740
aa(lp1741
S'sponge_NN'
p1742
aS'closet_NN'
p1743
aS'tomato_NN'
p1744
aS'refrigerator_NN'
p1745
aa(lp1746
S'sponge_NN'
p1747
aS'closet_NN'
p1748
aS'bread_NN'
p1749
aS'counter_NN'
p1750
aa(lp1751
S'sponge_NN'
p1752
aS'closet_NN'
p1753
aS'book_NN'
p1754
aS'bookshelf_NN'
p1755
aa(lp1756
S'sponge_NN'
p1757
aS'closet_NN'
p1758
aS'cushion_NN'
p1759
aS'sofa_NN'
p1760
aa(lp1761
S'sponge_NN'
p1762
aS'closet_NN'
p1763
aS'pillow_NN'
p1764
aS'bed_NN'
p1765
aa(lp1766
S'sponge_NN'
p1767
aS'closet_NN'
p1768
aS'cups_NNS'
p1769
aS'cupboard_NN'
p1770
aa(lp1771
S'sponge_NN'
p1772
aS'closet_NN'
p1773
aS'clothes_NNS'
p1774
aS'dresser_NN'
p1775
aa(lp1776
S'sponge_NN'
p1777
aS'closet_NN'
p1778
aS'coats_NNS'
p1779
aS'wardrobe_NN'
p1780
aa(lp1781
S'sponge_NN'
p1782
aS'closet_NN'
p1783
aS'silverware_NN'
p1784
aS'drawer_NN'
p1785
aa(lp1786
S'sponge_NN'
p1787
aS'closet_NN'
p1788
aS'knives_NNS'
p1789
aS'drawer_NN'
p1790
aa(lp1791
S'sponge_NN'
p1792
aS'closet_NN'
p1793
aS'cereal_NN'
p1794
aS'cupboard_NN'
p1795
aa(lp1796
S'sponge_NN'
p1797
aS'closet_NN'
p1798
aS'milk_NN'
p1799
aS'fridge_NN'
p1800
aa(lp1801
S'sponge_NN'
p1802
aS'closet_NN'
p1803
aS'soda_NN'
p1804
aS'fridge_NN'
p1805
aa(lp1806
S'sponge_NN'
p1807
aS'closet_NN'
p1808
aS'crackers_NNS'
p1809
aS'cupboard_NN'
p1810
aa(lp1811
S'sponge_NN'
p1812
aS'closet_NN'
p1813
aS'car_NN'
p1814
aS'garage_NN'
p1815
aa(lp1816
S'sponge_NN'
p1817
aS'closet_NN'
p1818
aS'laundry_NN'
p1819
aS'hamper_VB'
p1820
aa(lp1821
S'sponge_NN'
p1822
aS'closet_NN'
p1823
aS'screwdriver_NN'
p1824
aS'toolbox_NN'
p1825
aa(lp1826
S'sponge_NN'
p1827
aS'closet_NN'
p1828
aS'hammer_NN'
p1829
aS'toolbox_NN'
p1830
aa(lp1831
S'sponge_NN'
p1832
aS'closet_NN'
p1833
aS'chainsaw_NN'
p1834
aS'garage_NN'
p1835
aa(lp1836
S'sponge_NN'
p1837
aS'closet_NN'
p1838
aS'shovel_NN'
p1839
aS'shed_NN'
p1840
aa(lp1841
S'sponge_NN'
p1842
aS'closet_NN'
p1843
aS'rake_NN'
p1844
aS'shed_NN'
p1845
aa(lp1846
S'sponge_NN'
p1847
aS'closet_NN'
p1848
aS'money_NN'
p1849
aS'wallet_NN'
p1850
aa(lp1851
S'sponge_NN'
p1852
aS'closet_NN'
p1853
aS'plates_NNS'
p1854
aS'cupboard_NN'
p1855
aa(lp1856
S'sponge_NN'
p1857
aS'closet_NN'
p1858
aS'flowers_NNS'
p1859
aS'table_NN'
p1860
aa(lp1861
S'sponge_NN'
p1862
aS'closet_NN'
p1863
aS'popsicle_NN'
p1864
aS'freezer_NN'
p1865
aa(lp1866
S'sponge_NN'
p1867
aS'closet_NN'
p1868
aS'ice_NN'
p1869
aS'freezer_NN'
p1870
aa(lp1871
S'book_NN'
p1872
aS'bookshelf_NN'
p1873
aS'mayonnaise_NN'
p1874
aS'refrigerator_NN'
p1875
aa(lp1876
S'book_NN'
p1877
aS'bookshelf_NN'
p1878
aS'broom_NN'
p1879
aS'closet_NN'
p1880
aa(lp1881
S'book_NN'
p1882
aS'bookshelf_NN'
p1883
aS'detergent_NN'
p1884
aS'cupboard_NN'
p1885
aa(lp1886
S'book_NN'
p1887
aS'bookshelf_NN'
p1888
aS'butter_NN'
p1889
aS'refrigerator_NN'
p1890
aa(lp1891
S'book_NN'
p1892
aS'bookshelf_NN'
p1893
aS'toaster_NN'
p1894
aS'counter_NN'
p1895
aa(lp1896
S'book_NN'
p1897
aS'bookshelf_NN'
p1898
aS'water_NN'
p1899
aS'sink_VB'
p1900
aa(lp1901
S'book_NN'
p1902
aS'bookshelf_NN'
p1903
aS'computer_NN'
p1904
aS'desk_NN'
p1905
aa(lp1906
S'book_NN'
p1907
aS'bookshelf_NN'
p1908
aS'keyboard_NN'
p1909
aS'desk_NN'
p1910
aa(lp1911
S'book_NN'
p1912
aS'bookshelf_NN'
p1913
aS'tomato_NN'
p1914
aS'refrigerator_NN'
p1915
aa(lp1916
S'book_NN'
p1917
aS'bookshelf_NN'
p1918
aS'bread_NN'
p1919
aS'counter_NN'
p1920
aa(lp1921
S'book_NN'
p1922
aS'bookshelf_NN'
p1923
aS'sponge_NN'
p1924
aS'closet_NN'
p1925
aa(lp1926
S'book_NN'
p1927
aS'bookshelf_NN'
p1928
aS'cushion_NN'
p1929
aS'sofa_NN'
p1930
aa(lp1931
S'book_NN'
p1932
aS'bookshelf_NN'
p1933
aS'pillow_NN'
p1934
aS'bed_NN'
p1935
aa(lp1936
S'book_NN'
p1937
aS'bookshelf_NN'
p1938
aS'cups_NNS'
p1939
aS'cupboard_NN'
p1940
aa(lp1941
S'book_NN'
p1942
aS'bookshelf_NN'
p1943
aS'clothes_NNS'
p1944
aS'dresser_NN'
p1945
aa(lp1946
S'book_NN'
p1947
aS'bookshelf_NN'
p1948
aS'coats_NNS'
p1949
aS'wardrobe_NN'
p1950
aa(lp1951
S'book_NN'
p1952
aS'bookshelf_NN'
p1953
aS'silverware_NN'
p1954
aS'drawer_NN'
p1955
aa(lp1956
S'book_NN'
p1957
aS'bookshelf_NN'
p1958
aS'knives_NNS'
p1959
aS'drawer_NN'
p1960
aa(lp1961
S'book_NN'
p1962
aS'bookshelf_NN'
p1963
aS'cereal_NN'
p1964
aS'cupboard_NN'
p1965
aa(lp1966
S'book_NN'
p1967
aS'bookshelf_NN'
p1968
aS'milk_NN'
p1969
aS'fridge_NN'
p1970
aa(lp1971
S'book_NN'
p1972
aS'bookshelf_NN'
p1973
aS'soda_NN'
p1974
aS'fridge_NN'
p1975
aa(lp1976
S'book_NN'
p1977
aS'bookshelf_NN'
p1978
aS'crackers_NNS'
p1979
aS'cupboard_NN'
p1980
aa(lp1981
S'book_NN'
p1982
aS'bookshelf_NN'
p1983
aS'car_NN'
p1984
aS'garage_NN'
p1985
aa(lp1986
S'book_NN'
p1987
aS'bookshelf_NN'
p1988
aS'laundry_NN'
p1989
aS'hamper_VB'
p1990
aa(lp1991
S'book_NN'
p1992
aS'bookshelf_NN'
p1993
aS'screwdriver_NN'
p1994
aS'toolbox_NN'
p1995
aa(lp1996
S'book_NN'
p1997
aS'bookshelf_NN'
p1998
aS'hammer_NN'
p1999
aS'toolbox_NN'
p2000
aa(lp2001
S'book_NN'
p2002
aS'bookshelf_NN'
p2003
aS'chainsaw_NN'
p2004
aS'garage_NN'
p2005
aa(lp2006
S'book_NN'
p2007
aS'bookshelf_NN'
p2008
aS'shovel_NN'
p2009
aS'shed_NN'
p2010
aa(lp2011
S'book_NN'
p2012
aS'bookshelf_NN'
p2013
aS'rake_NN'
p2014
aS'shed_NN'
p2015
aa(lp2016
S'book_NN'
p2017
aS'bookshelf_NN'
p2018
aS'money_NN'
p2019
aS'wallet_NN'
p2020
aa(lp2021
S'book_NN'
p2022
aS'bookshelf_NN'
p2023
aS'plates_NNS'
p2024
aS'cupboard_NN'
p2025
aa(lp2026
S'book_NN'
p2027
aS'bookshelf_NN'
p2028
aS'flowers_NNS'
p2029
aS'table_NN'
p2030
aa(lp2031
S'book_NN'
p2032
aS'bookshelf_NN'
p2033
aS'popsicle_NN'
p2034
aS'freezer_NN'
p2035
aa(lp2036
S'book_NN'
p2037
aS'bookshelf_NN'
p2038
aS'ice_NN'
p2039
aS'freezer_NN'
p2040
aa(lp2041
S'cushion_NN'
p2042
aS'sofa_NN'
p2043
aS'mayonnaise_NN'
p2044
aS'refrigerator_NN'
p2045
aa(lp2046
S'cushion_NN'
p2047
aS'sofa_NN'
p2048
aS'broom_NN'
p2049
aS'closet_NN'
p2050
aa(lp2051
S'cushion_NN'
p2052
aS'sofa_NN'
p2053
aS'detergent_NN'
p2054
aS'cupboard_NN'
p2055
aa(lp2056
S'cushion_NN'
p2057
aS'sofa_NN'
p2058
aS'butter_NN'
p2059
aS'refrigerator_NN'
p2060
aa(lp2061
S'cushion_NN'
p2062
aS'sofa_NN'
p2063
aS'toaster_NN'
p2064
aS'counter_NN'
p2065
aa(lp2066
S'cushion_NN'
p2067
aS'sofa_NN'
p2068
aS'water_NN'
p2069
aS'sink_VB'
p2070
aa(lp2071
S'cushion_NN'
p2072
aS'sofa_NN'
p2073
aS'computer_NN'
p2074
aS'desk_NN'
p2075
aa(lp2076
S'cushion_NN'
p2077
aS'sofa_NN'
p2078
aS'keyboard_NN'
p2079
aS'desk_NN'
p2080
aa(lp2081
S'cushion_NN'
p2082
aS'sofa_NN'
p2083
aS'tomato_NN'
p2084
aS'refrigerator_NN'
p2085
aa(lp2086
S'cushion_NN'
p2087
aS'sofa_NN'
p2088
aS'bread_NN'
p2089
aS'counter_NN'
p2090
aa(lp2091
S'cushion_NN'
p2092
aS'sofa_NN'
p2093
aS'sponge_NN'
p2094
aS'closet_NN'
p2095
aa(lp2096
S'cushion_NN'
p2097
aS'sofa_NN'
p2098
aS'book_NN'
p2099
aS'bookshelf_NN'
p2100
aa(lp2101
S'cushion_NN'
p2102
aS'sofa_NN'
p2103
aS'pillow_NN'
p2104
aS'bed_NN'
p2105
aa(lp2106
S'cushion_NN'
p2107
aS'sofa_NN'
p2108
aS'cups_NNS'
p2109
aS'cupboard_NN'
p2110
aa(lp2111
S'cushion_NN'
p2112
aS'sofa_NN'
p2113
aS'clothes_NNS'
p2114
aS'dresser_NN'
p2115
aa(lp2116
S'cushion_NN'
p2117
aS'sofa_NN'
p2118
aS'coats_NNS'
p2119
aS'wardrobe_NN'
p2120
aa(lp2121
S'cushion_NN'
p2122
aS'sofa_NN'
p2123
aS'silverware_NN'
p2124
aS'drawer_NN'
p2125
aa(lp2126
S'cushion_NN'
p2127
aS'sofa_NN'
p2128
aS'knives_NNS'
p2129
aS'drawer_NN'
p2130
aa(lp2131
S'cushion_NN'
p2132
aS'sofa_NN'
p2133
aS'cereal_NN'
p2134
aS'cupboard_NN'
p2135
aa(lp2136
S'cushion_NN'
p2137
aS'sofa_NN'
p2138
aS'milk_NN'
p2139
aS'fridge_NN'
p2140
aa(lp2141
S'cushion_NN'
p2142
aS'sofa_NN'
p2143
aS'soda_NN'
p2144
aS'fridge_NN'
p2145
aa(lp2146
S'cushion_NN'
p2147
aS'sofa_NN'
p2148
aS'crackers_NNS'
p2149
aS'cupboard_NN'
p2150
aa(lp2151
S'cushion_NN'
p2152
aS'sofa_NN'
p2153
aS'car_NN'
p2154
aS'garage_NN'
p2155
aa(lp2156
S'cushion_NN'
p2157
aS'sofa_NN'
p2158
aS'laundry_NN'
p2159
aS'hamper_VB'
p2160
aa(lp2161
S'cushion_NN'
p2162
aS'sofa_NN'
p2163
aS'screwdriver_NN'
p2164
aS'toolbox_NN'
p2165
aa(lp2166
S'cushion_NN'
p2167
aS'sofa_NN'
p2168
aS'hammer_NN'
p2169
aS'toolbox_NN'
p2170
aa(lp2171
S'cushion_NN'
p2172
aS'sofa_NN'
p2173
aS'chainsaw_NN'
p2174
aS'garage_NN'
p2175
aa(lp2176
S'cushion_NN'
p2177
aS'sofa_NN'
p2178
aS'shovel_NN'
p2179
aS'shed_NN'
p2180
aa(lp2181
S'cushion_NN'
p2182
aS'sofa_NN'
p2183
aS'rake_NN'
p2184
aS'shed_NN'
p2185
aa(lp2186
S'cushion_NN'
p2187
aS'sofa_NN'
p2188
aS'money_NN'
p2189
aS'wallet_NN'
p2190
aa(lp2191
S'cushion_NN'
p2192
aS'sofa_NN'
p2193
aS'plates_NNS'
p2194
aS'cupboard_NN'
p2195
aa(lp2196
S'cushion_NN'
p2197
aS'sofa_NN'
p2198
aS'flowers_NNS'
p2199
aS'table_NN'
p2200
aa(lp2201
S'cushion_NN'
p2202
aS'sofa_NN'
p2203
aS'popsicle_NN'
p2204
aS'freezer_NN'
p2205
aa(lp2206
S'cushion_NN'
p2207
aS'sofa_NN'
p2208
aS'ice_NN'
p2209
aS'freezer_NN'
p2210
aa(lp2211
S'pillow_NN'
p2212
aS'bed_NN'
p2213
aS'mayonnaise_NN'
p2214
aS'refrigerator_NN'
p2215
aa(lp2216
S'pillow_NN'
p2217
aS'bed_NN'
p2218
aS'broom_NN'
p2219
aS'closet_NN'
p2220
aa(lp2221
S'pillow_NN'
p2222
aS'bed_NN'
p2223
aS'detergent_NN'
p2224
aS'cupboard_NN'
p2225
aa(lp2226
S'pillow_NN'
p2227
aS'bed_NN'
p2228
aS'butter_NN'
p2229
aS'refrigerator_NN'
p2230
aa(lp2231
S'pillow_NN'
p2232
aS'bed_NN'
p2233
aS'toaster_NN'
p2234
aS'counter_NN'
p2235
aa(lp2236
S'pillow_NN'
p2237
aS'bed_NN'
p2238
aS'water_NN'
p2239
aS'sink_VB'
p2240
aa(lp2241
S'pillow_NN'
p2242
aS'bed_NN'
p2243
aS'computer_NN'
p2244
aS'desk_NN'
p2245
aa(lp2246
S'pillow_NN'
p2247
aS'bed_NN'
p2248
aS'keyboard_NN'
p2249
aS'desk_NN'
p2250
aa(lp2251
S'pillow_NN'
p2252
aS'bed_NN'
p2253
aS'tomato_NN'
p2254
aS'refrigerator_NN'
p2255
aa(lp2256
S'pillow_NN'
p2257
aS'bed_NN'
p2258
aS'bread_NN'
p2259
aS'counter_NN'
p2260
aa(lp2261
S'pillow_NN'
p2262
aS'bed_NN'
p2263
aS'sponge_NN'
p2264
aS'closet_NN'
p2265
aa(lp2266
S'pillow_NN'
p2267
aS'bed_NN'
p2268
aS'book_NN'
p2269
aS'bookshelf_NN'
p2270
aa(lp2271
S'pillow_NN'
p2272
aS'bed_NN'
p2273
aS'cushion_NN'
p2274
aS'sofa_NN'
p2275
aa(lp2276
S'pillow_NN'
p2277
aS'bed_NN'
p2278
aS'cups_NNS'
p2279
aS'cupboard_NN'
p2280
aa(lp2281
S'pillow_NN'
p2282
aS'bed_NN'
p2283
aS'clothes_NNS'
p2284
aS'dresser_NN'
p2285
aa(lp2286
S'pillow_NN'
p2287
aS'bed_NN'
p2288
aS'coats_NNS'
p2289
aS'wardrobe_NN'
p2290
aa(lp2291
S'pillow_NN'
p2292
aS'bed_NN'
p2293
aS'silverware_NN'
p2294
aS'drawer_NN'
p2295
aa(lp2296
S'pillow_NN'
p2297
aS'bed_NN'
p2298
aS'knives_NNS'
p2299
aS'drawer_NN'
p2300
aa(lp2301
S'pillow_NN'
p2302
aS'bed_NN'
p2303
aS'cereal_NN'
p2304
aS'cupboard_NN'
p2305
aa(lp2306
S'pillow_NN'
p2307
aS'bed_NN'
p2308
aS'milk_NN'
p2309
aS'fridge_NN'
p2310
aa(lp2311
S'pillow_NN'
p2312
aS'bed_NN'
p2313
aS'soda_NN'
p2314
aS'fridge_NN'
p2315
aa(lp2316
S'pillow_NN'
p2317
aS'bed_NN'
p2318
aS'crackers_NNS'
p2319
aS'cupboard_NN'
p2320
aa(lp2321
S'pillow_NN'
p2322
aS'bed_NN'
p2323
aS'car_NN'
p2324
aS'garage_NN'
p2325
aa(lp2326
S'pillow_NN'
p2327
aS'bed_NN'
p2328
aS'laundry_NN'
p2329
aS'hamper_VB'
p2330
aa(lp2331
S'pillow_NN'
p2332
aS'bed_NN'
p2333
aS'screwdriver_NN'
p2334
aS'toolbox_NN'
p2335
aa(lp2336
S'pillow_NN'
p2337
aS'bed_NN'
p2338
aS'hammer_NN'
p2339
aS'toolbox_NN'
p2340
aa(lp2341
S'pillow_NN'
p2342
aS'bed_NN'
p2343
aS'chainsaw_NN'
p2344
aS'garage_NN'
p2345
aa(lp2346
S'pillow_NN'
p2347
aS'bed_NN'
p2348
aS'shovel_NN'
p2349
aS'shed_NN'
p2350
aa(lp2351
S'pillow_NN'
p2352
aS'bed_NN'
p2353
aS'rake_NN'
p2354
aS'shed_NN'
p2355
aa(lp2356
S'pillow_NN'
p2357
aS'bed_NN'
p2358
aS'money_NN'
p2359
aS'wallet_NN'
p2360
aa(lp2361
S'pillow_NN'
p2362
aS'bed_NN'
p2363
aS'plates_NNS'
p2364
aS'cupboard_NN'
p2365
aa(lp2366
S'pillow_NN'
p2367
aS'bed_NN'
p2368
aS'flowers_NNS'
p2369
aS'table_NN'
p2370
aa(lp2371
S'pillow_NN'
p2372
aS'bed_NN'
p2373
aS'popsicle_NN'
p2374
aS'freezer_NN'
p2375
aa(lp2376
S'pillow_NN'
p2377
aS'bed_NN'
p2378
aS'ice_NN'
p2379
aS'freezer_NN'
p2380
aa(lp2381
S'cups_NNS'
p2382
aS'cupboard_NN'
p2383
aS'mayonnaise_NN'
p2384
aS'refrigerator_NN'
p2385
aa(lp2386
S'cups_NNS'
p2387
aS'cupboard_NN'
p2388
aS'broom_NN'
p2389
aS'closet_NN'
p2390
aa(lp2391
S'cups_NNS'
p2392
aS'cupboard_NN'
p2393
aS'detergent_NN'
p2394
aS'cupboard_NN'
p2395
aa(lp2396
S'cups_NNS'
p2397
aS'cupboard_NN'
p2398
aS'butter_NN'
p2399
aS'refrigerator_NN'
p2400
aa(lp2401
S'cups_NNS'
p2402
aS'cupboard_NN'
p2403
aS'toaster_NN'
p2404
aS'counter_NN'
p2405
aa(lp2406
S'cups_NNS'
p2407
aS'cupboard_NN'
p2408
aS'water_NN'
p2409
aS'sink_VB'
p2410
aa(lp2411
S'cups_NNS'
p2412
aS'cupboard_NN'
p2413
aS'computer_NN'
p2414
aS'desk_NN'
p2415
aa(lp2416
S'cups_NNS'
p2417
aS'cupboard_NN'
p2418
aS'keyboard_NN'
p2419
aS'desk_NN'
p2420
aa(lp2421
S'cups_NNS'
p2422
aS'cupboard_NN'
p2423
aS'tomato_NN'
p2424
aS'refrigerator_NN'
p2425
aa(lp2426
S'cups_NNS'
p2427
aS'cupboard_NN'
p2428
aS'bread_NN'
p2429
aS'counter_NN'
p2430
aa(lp2431
S'cups_NNS'
p2432
aS'cupboard_NN'
p2433
aS'sponge_NN'
p2434
aS'closet_NN'
p2435
aa(lp2436
S'cups_NNS'
p2437
aS'cupboard_NN'
p2438
aS'book_NN'
p2439
aS'bookshelf_NN'
p2440
aa(lp2441
S'cups_NNS'
p2442
aS'cupboard_NN'
p2443
aS'cushion_NN'
p2444
aS'sofa_NN'
p2445
aa(lp2446
S'cups_NNS'
p2447
aS'cupboard_NN'
p2448
aS'pillow_NN'
p2449
aS'bed_NN'
p2450
aa(lp2451
S'cups_NNS'
p2452
aS'cupboard_NN'
p2453
aS'clothes_NNS'
p2454
aS'dresser_NN'
p2455
aa(lp2456
S'cups_NNS'
p2457
aS'cupboard_NN'
p2458
aS'coats_NNS'
p2459
aS'wardrobe_NN'
p2460
aa(lp2461
S'cups_NNS'
p2462
aS'cupboard_NN'
p2463
aS'silverware_NN'
p2464
aS'drawer_NN'
p2465
aa(lp2466
S'cups_NNS'
p2467
aS'cupboard_NN'
p2468
aS'knives_NNS'
p2469
aS'drawer_NN'
p2470
aa(lp2471
S'cups_NNS'
p2472
aS'cupboard_NN'
p2473
aS'cereal_NN'
p2474
aS'cupboard_NN'
p2475
aa(lp2476
S'cups_NNS'
p2477
aS'cupboard_NN'
p2478
aS'milk_NN'
p2479
aS'fridge_NN'
p2480
aa(lp2481
S'cups_NNS'
p2482
aS'cupboard_NN'
p2483
aS'soda_NN'
p2484
aS'fridge_NN'
p2485
aa(lp2486
S'cups_NNS'
p2487
aS'cupboard_NN'
p2488
aS'crackers_NNS'
p2489
aS'cupboard_NN'
p2490
aa(lp2491
S'cups_NNS'
p2492
aS'cupboard_NN'
p2493
aS'car_NN'
p2494
aS'garage_NN'
p2495
aa(lp2496
S'cups_NNS'
p2497
aS'cupboard_NN'
p2498
aS'laundry_NN'
p2499
aS'hamper_VB'
p2500
aa(lp2501
S'cups_NNS'
p2502
aS'cupboard_NN'
p2503
aS'screwdriver_NN'
p2504
aS'toolbox_NN'
p2505
aa(lp2506
S'cups_NNS'
p2507
aS'cupboard_NN'
p2508
aS'hammer_NN'
p2509
aS'toolbox_NN'
p2510
aa(lp2511
S'cups_NNS'
p2512
aS'cupboard_NN'
p2513
aS'chainsaw_NN'
p2514
aS'garage_NN'
p2515
aa(lp2516
S'cups_NNS'
p2517
aS'cupboard_NN'
p2518
aS'shovel_NN'
p2519
aS'shed_NN'
p2520
aa(lp2521
S'cups_NNS'
p2522
aS'cupboard_NN'
p2523
aS'rake_NN'
p2524
aS'shed_NN'
p2525
aa(lp2526
S'cups_NNS'
p2527
aS'cupboard_NN'
p2528
aS'money_NN'
p2529
aS'wallet_NN'
p2530
aa(lp2531
S'cups_NNS'
p2532
aS'cupboard_NN'
p2533
aS'plates_NNS'
p2534
aS'cupboard_NN'
p2535
aa(lp2536
S'cups_NNS'
p2537
aS'cupboard_NN'
p2538
aS'flowers_NNS'
p2539
aS'table_NN'
p2540
aa(lp2541
S'cups_NNS'
p2542
aS'cupboard_NN'
p2543
aS'popsicle_NN'
p2544
aS'freezer_NN'
p2545
aa(lp2546
S'cups_NNS'
p2547
aS'cupboard_NN'
p2548
aS'ice_NN'
p2549
aS'freezer_NN'
p2550
aa(lp2551
S'clothes_NNS'
p2552
aS'dresser_NN'
p2553
aS'mayonnaise_NN'
p2554
aS'refrigerator_NN'
p2555
aa(lp2556
S'clothes_NNS'
p2557
aS'dresser_NN'
p2558
aS'broom_NN'
p2559
aS'closet_NN'
p2560
aa(lp2561
S'clothes_NNS'
p2562
aS'dresser_NN'
p2563
aS'detergent_NN'
p2564
aS'cupboard_NN'
p2565
aa(lp2566
S'clothes_NNS'
p2567
aS'dresser_NN'
p2568
aS'butter_NN'
p2569
aS'refrigerator_NN'
p2570
aa(lp2571
S'clothes_NNS'
p2572
aS'dresser_NN'
p2573
aS'toaster_NN'
p2574
aS'counter_NN'
p2575
aa(lp2576
S'clothes_NNS'
p2577
aS'dresser_NN'
p2578
aS'water_NN'
p2579
aS'sink_VB'
p2580
aa(lp2581
S'clothes_NNS'
p2582
aS'dresser_NN'
p2583
aS'computer_NN'
p2584
aS'desk_NN'
p2585
aa(lp2586
S'clothes_NNS'
p2587
aS'dresser_NN'
p2588
aS'keyboard_NN'
p2589
aS'desk_NN'
p2590
aa(lp2591
S'clothes_NNS'
p2592
aS'dresser_NN'
p2593
aS'tomato_NN'
p2594
aS'refrigerator_NN'
p2595
aa(lp2596
S'clothes_NNS'
p2597
aS'dresser_NN'
p2598
aS'bread_NN'
p2599
aS'counter_NN'
p2600
aa(lp2601
S'clothes_NNS'
p2602
aS'dresser_NN'
p2603
aS'sponge_NN'
p2604
aS'closet_NN'
p2605
aa(lp2606
S'clothes_NNS'
p2607
aS'dresser_NN'
p2608
aS'book_NN'
p2609
aS'bookshelf_NN'
p2610
aa(lp2611
S'clothes_NNS'
p2612
aS'dresser_NN'
p2613
aS'cushion_NN'
p2614
aS'sofa_NN'
p2615
aa(lp2616
S'clothes_NNS'
p2617
aS'dresser_NN'
p2618
aS'pillow_NN'
p2619
aS'bed_NN'
p2620
aa(lp2621
S'clothes_NNS'
p2622
aS'dresser_NN'
p2623
aS'cups_NNS'
p2624
aS'cupboard_NN'
p2625
aa(lp2626
S'clothes_NNS'
p2627
aS'dresser_NN'
p2628
aS'coats_NNS'
p2629
aS'wardrobe_NN'
p2630
aa(lp2631
S'clothes_NNS'
p2632
aS'dresser_NN'
p2633
aS'silverware_NN'
p2634
aS'drawer_NN'
p2635
aa(lp2636
S'clothes_NNS'
p2637
aS'dresser_NN'
p2638
aS'knives_NNS'
p2639
aS'drawer_NN'
p2640
aa(lp2641
S'clothes_NNS'
p2642
aS'dresser_NN'
p2643
aS'cereal_NN'
p2644
aS'cupboard_NN'
p2645
aa(lp2646
S'clothes_NNS'
p2647
aS'dresser_NN'
p2648
aS'milk_NN'
p2649
aS'fridge_NN'
p2650
aa(lp2651
S'clothes_NNS'
p2652
aS'dresser_NN'
p2653
aS'soda_NN'
p2654
aS'fridge_NN'
p2655
aa(lp2656
S'clothes_NNS'
p2657
aS'dresser_NN'
p2658
aS'crackers_NNS'
p2659
aS'cupboard_NN'
p2660
aa(lp2661
S'clothes_NNS'
p2662
aS'dresser_NN'
p2663
aS'car_NN'
p2664
aS'garage_NN'
p2665
aa(lp2666
S'clothes_NNS'
p2667
aS'dresser_NN'
p2668
aS'laundry_NN'
p2669
aS'hamper_VB'
p2670
aa(lp2671
S'clothes_NNS'
p2672
aS'dresser_NN'
p2673
aS'screwdriver_NN'
p2674
aS'toolbox_NN'
p2675
aa(lp2676
S'clothes_NNS'
p2677
aS'dresser_NN'
p2678
aS'hammer_NN'
p2679
aS'toolbox_NN'
p2680
aa(lp2681
S'clothes_NNS'
p2682
aS'dresser_NN'
p2683
aS'chainsaw_NN'
p2684
aS'garage_NN'
p2685
aa(lp2686
S'clothes_NNS'
p2687
aS'dresser_NN'
p2688
aS'shovel_NN'
p2689
aS'shed_NN'
p2690
aa(lp2691
S'clothes_NNS'
p2692
aS'dresser_NN'
p2693
aS'rake_NN'
p2694
aS'shed_NN'
p2695
aa(lp2696
S'clothes_NNS'
p2697
aS'dresser_NN'
p2698
aS'money_NN'
p2699
aS'wallet_NN'
p2700
aa(lp2701
S'clothes_NNS'
p2702
aS'dresser_NN'
p2703
aS'plates_NNS'
p2704
aS'cupboard_NN'
p2705
aa(lp2706
S'clothes_NNS'
p2707
aS'dresser_NN'
p2708
aS'flowers_NNS'
p2709
aS'table_NN'
p2710
aa(lp2711
S'clothes_NNS'
p2712
aS'dresser_NN'
p2713
aS'popsicle_NN'
p2714
aS'freezer_NN'
p2715
aa(lp2716
S'clothes_NNS'
p2717
aS'dresser_NN'
p2718
aS'ice_NN'
p2719
aS'freezer_NN'
p2720
aa(lp2721
S'coats_NNS'
p2722
aS'wardrobe_NN'
p2723
aS'mayonnaise_NN'
p2724
aS'refrigerator_NN'
p2725
aa(lp2726
S'coats_NNS'
p2727
aS'wardrobe_NN'
p2728
aS'broom_NN'
p2729
aS'closet_NN'
p2730
aa(lp2731
S'coats_NNS'
p2732
aS'wardrobe_NN'
p2733
aS'detergent_NN'
p2734
aS'cupboard_NN'
p2735
aa(lp2736
S'coats_NNS'
p2737
aS'wardrobe_NN'
p2738
aS'butter_NN'
p2739
aS'refrigerator_NN'
p2740
aa(lp2741
S'coats_NNS'
p2742
aS'wardrobe_NN'
p2743
aS'toaster_NN'
p2744
aS'counter_NN'
p2745
aa(lp2746
S'coats_NNS'
p2747
aS'wardrobe_NN'
p2748
aS'water_NN'
p2749
aS'sink_VB'
p2750
aa(lp2751
S'coats_NNS'
p2752
aS'wardrobe_NN'
p2753
aS'computer_NN'
p2754
aS'desk_NN'
p2755
aa(lp2756
S'coats_NNS'
p2757
aS'wardrobe_NN'
p2758
aS'keyboard_NN'
p2759
aS'desk_NN'
p2760
aa(lp2761
S'coats_NNS'
p2762
aS'wardrobe_NN'
p2763
aS'tomato_NN'
p2764
aS'refrigerator_NN'
p2765
aa(lp2766
S'coats_NNS'
p2767
aS'wardrobe_NN'
p2768
aS'bread_NN'
p2769
aS'counter_NN'
p2770
aa(lp2771
S'coats_NNS'
p2772
aS'wardrobe_NN'
p2773
aS'sponge_NN'
p2774
aS'closet_NN'
p2775
aa(lp2776
S'coats_NNS'
p2777
aS'wardrobe_NN'
p2778
aS'book_NN'
p2779
aS'bookshelf_NN'
p2780
aa(lp2781
S'coats_NNS'
p2782
aS'wardrobe_NN'
p2783
aS'cushion_NN'
p2784
aS'sofa_NN'
p2785
aa(lp2786
S'coats_NNS'
p2787
aS'wardrobe_NN'
p2788
aS'pillow_NN'
p2789
aS'bed_NN'
p2790
aa(lp2791
S'coats_NNS'
p2792
aS'wardrobe_NN'
p2793
aS'cups_NNS'
p2794
aS'cupboard_NN'
p2795
aa(lp2796
S'coats_NNS'
p2797
aS'wardrobe_NN'
p2798
aS'clothes_NNS'
p2799
aS'dresser_NN'
p2800
aa(lp2801
S'coats_NNS'
p2802
aS'wardrobe_NN'
p2803
aS'silverware_NN'
p2804
aS'drawer_NN'
p2805
aa(lp2806
S'coats_NNS'
p2807
aS'wardrobe_NN'
p2808
aS'knives_NNS'
p2809
aS'drawer_NN'
p2810
aa(lp2811
S'coats_NNS'
p2812
aS'wardrobe_NN'
p2813
aS'cereal_NN'
p2814
aS'cupboard_NN'
p2815
aa(lp2816
S'coats_NNS'
p2817
aS'wardrobe_NN'
p2818
aS'milk_NN'
p2819
aS'fridge_NN'
p2820
aa(lp2821
S'coats_NNS'
p2822
aS'wardrobe_NN'
p2823
aS'soda_NN'
p2824
aS'fridge_NN'
p2825
aa(lp2826
S'coats_NNS'
p2827
aS'wardrobe_NN'
p2828
aS'crackers_NNS'
p2829
aS'cupboard_NN'
p2830
aa(lp2831
S'coats_NNS'
p2832
aS'wardrobe_NN'
p2833
aS'car_NN'
p2834
aS'garage_NN'
p2835
aa(lp2836
S'coats_NNS'
p2837
aS'wardrobe_NN'
p2838
aS'laundry_NN'
p2839
aS'hamper_VB'
p2840
aa(lp2841
S'coats_NNS'
p2842
aS'wardrobe_NN'
p2843
aS'screwdriver_NN'
p2844
aS'toolbox_NN'
p2845
aa(lp2846
S'coats_NNS'
p2847
aS'wardrobe_NN'
p2848
aS'hammer_NN'
p2849
aS'toolbox_NN'
p2850
aa(lp2851
S'coats_NNS'
p2852
aS'wardrobe_NN'
p2853
aS'chainsaw_NN'
p2854
aS'garage_NN'
p2855
aa(lp2856
S'coats_NNS'
p2857
aS'wardrobe_NN'
p2858
aS'shovel_NN'
p2859
aS'shed_NN'
p2860
aa(lp2861
S'coats_NNS'
p2862
aS'wardrobe_NN'
p2863
aS'rake_NN'
p2864
aS'shed_NN'
p2865
aa(lp2866
S'coats_NNS'
p2867
aS'wardrobe_NN'
p2868
aS'money_NN'
p2869
aS'wallet_NN'
p2870
aa(lp2871
S'coats_NNS'
p2872
aS'wardrobe_NN'
p2873
aS'plates_NNS'
p2874
aS'cupboard_NN'
p2875
aa(lp2876
S'coats_NNS'
p2877
aS'wardrobe_NN'
p2878
aS'flowers_NNS'
p2879
aS'table_NN'
p2880
aa(lp2881
S'coats_NNS'
p2882
aS'wardrobe_NN'
p2883
aS'popsicle_NN'
p2884
aS'freezer_NN'
p2885
aa(lp2886
S'coats_NNS'
p2887
aS'wardrobe_NN'
p2888
aS'ice_NN'
p2889
aS'freezer_NN'
p2890
aa(lp2891
S'silverware_NN'
p2892
aS'drawer_NN'
p2893
aS'mayonnaise_NN'
p2894
aS'refrigerator_NN'
p2895
aa(lp2896
S'silverware_NN'
p2897
aS'drawer_NN'
p2898
aS'broom_NN'
p2899
aS'closet_NN'
p2900
aa(lp2901
S'silverware_NN'
p2902
aS'drawer_NN'
p2903
aS'detergent_NN'
p2904
aS'cupboard_NN'
p2905
aa(lp2906
S'silverware_NN'
p2907
aS'drawer_NN'
p2908
aS'butter_NN'
p2909
aS'refrigerator_NN'
p2910
aa(lp2911
S'silverware_NN'
p2912
aS'drawer_NN'
p2913
aS'toaster_NN'
p2914
aS'counter_NN'
p2915
aa(lp2916
S'silverware_NN'
p2917
aS'drawer_NN'
p2918
aS'water_NN'
p2919
aS'sink_VB'
p2920
aa(lp2921
S'silverware_NN'
p2922
aS'drawer_NN'
p2923
aS'computer_NN'
p2924
aS'desk_NN'
p2925
aa(lp2926
S'silverware_NN'
p2927
aS'drawer_NN'
p2928
aS'keyboard_NN'
p2929
aS'desk_NN'
p2930
aa(lp2931
S'silverware_NN'
p2932
aS'drawer_NN'
p2933
aS'tomato_NN'
p2934
aS'refrigerator_NN'
p2935
aa(lp2936
S'silverware_NN'
p2937
aS'drawer_NN'
p2938
aS'bread_NN'
p2939
aS'counter_NN'
p2940
aa(lp2941
S'silverware_NN'
p2942
aS'drawer_NN'
p2943
aS'sponge_NN'
p2944
aS'closet_NN'
p2945
aa(lp2946
S'silverware_NN'
p2947
aS'drawer_NN'
p2948
aS'book_NN'
p2949
aS'bookshelf_NN'
p2950
aa(lp2951
S'silverware_NN'
p2952
aS'drawer_NN'
p2953
aS'cushion_NN'
p2954
aS'sofa_NN'
p2955
aa(lp2956
S'silverware_NN'
p2957
aS'drawer_NN'
p2958
aS'pillow_NN'
p2959
aS'bed_NN'
p2960
aa(lp2961
S'silverware_NN'
p2962
aS'drawer_NN'
p2963
aS'cups_NNS'
p2964
aS'cupboard_NN'
p2965
aa(lp2966
S'silverware_NN'
p2967
aS'drawer_NN'
p2968
aS'clothes_NNS'
p2969
aS'dresser_NN'
p2970
aa(lp2971
S'silverware_NN'
p2972
aS'drawer_NN'
p2973
aS'coats_NNS'
p2974
aS'wardrobe_NN'
p2975
aa(lp2976
S'silverware_NN'
p2977
aS'drawer_NN'
p2978
aS'knives_NNS'
p2979
aS'drawer_NN'
p2980
aa(lp2981
S'silverware_NN'
p2982
aS'drawer_NN'
p2983
aS'cereal_NN'
p2984
aS'cupboard_NN'
p2985
aa(lp2986
S'silverware_NN'
p2987
aS'drawer_NN'
p2988
aS'milk_NN'
p2989
aS'fridge_NN'
p2990
aa(lp2991
S'silverware_NN'
p2992
aS'drawer_NN'
p2993
aS'soda_NN'
p2994
aS'fridge_NN'
p2995
aa(lp2996
S'silverware_NN'
p2997
aS'drawer_NN'
p2998
aS'crackers_NNS'
p2999
aS'cupboard_NN'
p3000
aa(lp3001
S'silverware_NN'
p3002
aS'drawer_NN'
p3003
aS'car_NN'
p3004
aS'garage_NN'
p3005
aa(lp3006
S'silverware_NN'
p3007
aS'drawer_NN'
p3008
aS'laundry_NN'
p3009
aS'hamper_VB'
p3010
aa(lp3011
S'silverware_NN'
p3012
aS'drawer_NN'
p3013
aS'screwdriver_NN'
p3014
aS'toolbox_NN'
p3015
aa(lp3016
S'silverware_NN'
p3017
aS'drawer_NN'
p3018
aS'hammer_NN'
p3019
aS'toolbox_NN'
p3020
aa(lp3021
S'silverware_NN'
p3022
aS'drawer_NN'
p3023
aS'chainsaw_NN'
p3024
aS'garage_NN'
p3025
aa(lp3026
S'silverware_NN'
p3027
aS'drawer_NN'
p3028
aS'shovel_NN'
p3029
aS'shed_NN'
p3030
aa(lp3031
S'silverware_NN'
p3032
aS'drawer_NN'
p3033
aS'rake_NN'
p3034
aS'shed_NN'
p3035
aa(lp3036
S'silverware_NN'
p3037
aS'drawer_NN'
p3038
aS'money_NN'
p3039
aS'wallet_NN'
p3040
aa(lp3041
S'silverware_NN'
p3042
aS'drawer_NN'
p3043
aS'plates_NNS'
p3044
aS'cupboard_NN'
p3045
aa(lp3046
S'silverware_NN'
p3047
aS'drawer_NN'
p3048
aS'flowers_NNS'
p3049
aS'table_NN'
p3050
aa(lp3051
S'silverware_NN'
p3052
aS'drawer_NN'
p3053
aS'popsicle_NN'
p3054
aS'freezer_NN'
p3055
aa(lp3056
S'silverware_NN'
p3057
aS'drawer_NN'
p3058
aS'ice_NN'
p3059
aS'freezer_NN'
p3060
aa(lp3061
S'knives_NNS'
p3062
aS'drawer_NN'
p3063
aS'mayonnaise_NN'
p3064
aS'refrigerator_NN'
p3065
aa(lp3066
S'knives_NNS'
p3067
aS'drawer_NN'
p3068
aS'broom_NN'
p3069
aS'closet_NN'
p3070
aa(lp3071
S'knives_NNS'
p3072
aS'drawer_NN'
p3073
aS'detergent_NN'
p3074
aS'cupboard_NN'
p3075
aa(lp3076
S'knives_NNS'
p3077
aS'drawer_NN'
p3078
aS'butter_NN'
p3079
aS'refrigerator_NN'
p3080
aa(lp3081
S'knives_NNS'
p3082
aS'drawer_NN'
p3083
aS'toaster_NN'
p3084
aS'counter_NN'
p3085
aa(lp3086
S'knives_NNS'
p3087
aS'drawer_NN'
p3088
aS'water_NN'
p3089
aS'sink_VB'
p3090
aa(lp3091
S'knives_NNS'
p3092
aS'drawer_NN'
p3093
aS'computer_NN'
p3094
aS'desk_NN'
p3095
aa(lp3096
S'knives_NNS'
p3097
aS'drawer_NN'
p3098
aS'keyboard_NN'
p3099
aS'desk_NN'
p3100
aa(lp3101
S'knives_NNS'
p3102
aS'drawer_NN'
p3103
aS'tomato_NN'
p3104
aS'refrigerator_NN'
p3105
aa(lp3106
S'knives_NNS'
p3107
aS'drawer_NN'
p3108
aS'bread_NN'
p3109
aS'counter_NN'
p3110
aa(lp3111
S'knives_NNS'
p3112
aS'drawer_NN'
p3113
aS'sponge_NN'
p3114
aS'closet_NN'
p3115
aa(lp3116
S'knives_NNS'
p3117
aS'drawer_NN'
p3118
aS'book_NN'
p3119
aS'bookshelf_NN'
p3120
aa(lp3121
S'knives_NNS'
p3122
aS'drawer_NN'
p3123
aS'cushion_NN'
p3124
aS'sofa_NN'
p3125
aa(lp3126
S'knives_NNS'
p3127
aS'drawer_NN'
p3128
aS'pillow_NN'
p3129
aS'bed_NN'
p3130
aa(lp3131
S'knives_NNS'
p3132
aS'drawer_NN'
p3133
aS'cups_NNS'
p3134
aS'cupboard_NN'
p3135
aa(lp3136
S'knives_NNS'
p3137
aS'drawer_NN'
p3138
aS'clothes_NNS'
p3139
aS'dresser_NN'
p3140
aa(lp3141
S'knives_NNS'
p3142
aS'drawer_NN'
p3143
aS'coats_NNS'
p3144
aS'wardrobe_NN'
p3145
aa(lp3146
S'knives_NNS'
p3147
aS'drawer_NN'
p3148
aS'silverware_NN'
p3149
aS'drawer_NN'
p3150
aa(lp3151
S'knives_NNS'
p3152
aS'drawer_NN'
p3153
aS'cereal_NN'
p3154
aS'cupboard_NN'
p3155
aa(lp3156
S'knives_NNS'
p3157
aS'drawer_NN'
p3158
aS'milk_NN'
p3159
aS'fridge_NN'
p3160
aa(lp3161
S'knives_NNS'
p3162
aS'drawer_NN'
p3163
aS'soda_NN'
p3164
aS'fridge_NN'
p3165
aa(lp3166
S'knives_NNS'
p3167
aS'drawer_NN'
p3168
aS'crackers_NNS'
p3169
aS'cupboard_NN'
p3170
aa(lp3171
S'knives_NNS'
p3172
aS'drawer_NN'
p3173
aS'car_NN'
p3174
aS'garage_NN'
p3175
aa(lp3176
S'knives_NNS'
p3177
aS'drawer_NN'
p3178
aS'laundry_NN'
p3179
aS'hamper_VB'
p3180
aa(lp3181
S'knives_NNS'
p3182
aS'drawer_NN'
p3183
aS'screwdriver_NN'
p3184
aS'toolbox_NN'
p3185
aa(lp3186
S'knives_NNS'
p3187
aS'drawer_NN'
p3188
aS'hammer_NN'
p3189
aS'toolbox_NN'
p3190
aa(lp3191
S'knives_NNS'
p3192
aS'drawer_NN'
p3193
aS'chainsaw_NN'
p3194
aS'garage_NN'
p3195
aa(lp3196
S'knives_NNS'
p3197
aS'drawer_NN'
p3198
aS'shovel_NN'
p3199
aS'shed_NN'
p3200
aa(lp3201
S'knives_NNS'
p3202
aS'drawer_NN'
p3203
aS'rake_NN'
p3204
aS'shed_NN'
p3205
aa(lp3206
S'knives_NNS'
p3207
aS'drawer_NN'
p3208
aS'money_NN'
p3209
aS'wallet_NN'
p3210
aa(lp3211
S'knives_NNS'
p3212
aS'drawer_NN'
p3213
aS'plates_NNS'
p3214
aS'cupboard_NN'
p3215
aa(lp3216
S'knives_NNS'
p3217
aS'drawer_NN'
p3218
aS'flowers_NNS'
p3219
aS'table_NN'
p3220
aa(lp3221
S'knives_NNS'
p3222
aS'drawer_NN'
p3223
aS'popsicle_NN'
p3224
aS'freezer_NN'
p3225
aa(lp3226
S'knives_NNS'
p3227
aS'drawer_NN'
p3228
aS'ice_NN'
p3229
aS'freezer_NN'
p3230
aa(lp3231
S'cereal_NN'
p3232
aS'cupboard_NN'
p3233
aS'mayonnaise_NN'
p3234
aS'refrigerator_NN'
p3235
aa(lp3236
S'cereal_NN'
p3237
aS'cupboard_NN'
p3238
aS'broom_NN'
p3239
aS'closet_NN'
p3240
aa(lp3241
S'cereal_NN'
p3242
aS'cupboard_NN'
p3243
aS'detergent_NN'
p3244
aS'cupboard_NN'
p3245
aa(lp3246
S'cereal_NN'
p3247
aS'cupboard_NN'
p3248
aS'butter_NN'
p3249
aS'refrigerator_NN'
p3250
aa(lp3251
S'cereal_NN'
p3252
aS'cupboard_NN'
p3253
aS'toaster_NN'
p3254
aS'counter_NN'
p3255
aa(lp3256
S'cereal_NN'
p3257
aS'cupboard_NN'
p3258
aS'water_NN'
p3259
aS'sink_VB'
p3260
aa(lp3261
S'cereal_NN'
p3262
aS'cupboard_NN'
p3263
aS'computer_NN'
p3264
aS'desk_NN'
p3265
aa(lp3266
S'cereal_NN'
p3267
aS'cupboard_NN'
p3268
aS'keyboard_NN'
p3269
aS'desk_NN'
p3270
aa(lp3271
S'cereal_NN'
p3272
aS'cupboard_NN'
p3273
aS'tomato_NN'
p3274
aS'refrigerator_NN'
p3275
aa(lp3276
S'cereal_NN'
p3277
aS'cupboard_NN'
p3278
aS'bread_NN'
p3279
aS'counter_NN'
p3280
aa(lp3281
S'cereal_NN'
p3282
aS'cupboard_NN'
p3283
aS'sponge_NN'
p3284
aS'closet_NN'
p3285
aa(lp3286
S'cereal_NN'
p3287
aS'cupboard_NN'
p3288
aS'book_NN'
p3289
aS'bookshelf_NN'
p3290
aa(lp3291
S'cereal_NN'
p3292
aS'cupboard_NN'
p3293
aS'cushion_NN'
p3294
aS'sofa_NN'
p3295
aa(lp3296
S'cereal_NN'
p3297
aS'cupboard_NN'
p3298
aS'pillow_NN'
p3299
aS'bed_NN'
p3300
aa(lp3301
S'cereal_NN'
p3302
aS'cupboard_NN'
p3303
aS'cups_NNS'
p3304
aS'cupboard_NN'
p3305
aa(lp3306
S'cereal_NN'
p3307
aS'cupboard_NN'
p3308
aS'clothes_NNS'
p3309
aS'dresser_NN'
p3310
aa(lp3311
S'cereal_NN'
p3312
aS'cupboard_NN'
p3313
aS'coats_NNS'
p3314
aS'wardrobe_NN'
p3315
aa(lp3316
S'cereal_NN'
p3317
aS'cupboard_NN'
p3318
aS'silverware_NN'
p3319
aS'drawer_NN'
p3320
aa(lp3321
S'cereal_NN'
p3322
aS'cupboard_NN'
p3323
aS'knives_NNS'
p3324
aS'drawer_NN'
p3325
aa(lp3326
S'cereal_NN'
p3327
aS'cupboard_NN'
p3328
aS'milk_NN'
p3329
aS'fridge_NN'
p3330
aa(lp3331
S'cereal_NN'
p3332
aS'cupboard_NN'
p3333
aS'soda_NN'
p3334
aS'fridge_NN'
p3335
aa(lp3336
S'cereal_NN'
p3337
aS'cupboard_NN'
p3338
aS'crackers_NNS'
p3339
aS'cupboard_NN'
p3340
aa(lp3341
S'cereal_NN'
p3342
aS'cupboard_NN'
p3343
aS'car_NN'
p3344
aS'garage_NN'
p3345
aa(lp3346
S'cereal_NN'
p3347
aS'cupboard_NN'
p3348
aS'laundry_NN'
p3349
aS'hamper_VB'
p3350
aa(lp3351
S'cereal_NN'
p3352
aS'cupboard_NN'
p3353
aS'screwdriver_NN'
p3354
aS'toolbox_NN'
p3355
aa(lp3356
S'cereal_NN'
p3357
aS'cupboard_NN'
p3358
aS'hammer_NN'
p3359
aS'toolbox_NN'
p3360
aa(lp3361
S'cereal_NN'
p3362
aS'cupboard_NN'
p3363
aS'chainsaw_NN'
p3364
aS'garage_NN'
p3365
aa(lp3366
S'cereal_NN'
p3367
aS'cupboard_NN'
p3368
aS'shovel_NN'
p3369
aS'shed_NN'
p3370
aa(lp3371
S'cereal_NN'
p3372
aS'cupboard_NN'
p3373
aS'rake_NN'
p3374
aS'shed_NN'
p3375
aa(lp3376
S'cereal_NN'
p3377
aS'cupboard_NN'
p3378
aS'money_NN'
p3379
aS'wallet_NN'
p3380
aa(lp3381
S'cereal_NN'
p3382
aS'cupboard_NN'
p3383
aS'plates_NNS'
p3384
aS'cupboard_NN'
p3385
aa(lp3386
S'cereal_NN'
p3387
aS'cupboard_NN'
p3388
aS'flowers_NNS'
p3389
aS'table_NN'
p3390
aa(lp3391
S'cereal_NN'
p3392
aS'cupboard_NN'
p3393
aS'popsicle_NN'
p3394
aS'freezer_NN'
p3395
aa(lp3396
S'cereal_NN'
p3397
aS'cupboard_NN'
p3398
aS'ice_NN'
p3399
aS'freezer_NN'
p3400
aa(lp3401
S'milk_NN'
p3402
aS'fridge_NN'
p3403
aS'mayonnaise_NN'
p3404
aS'refrigerator_NN'
p3405
aa(lp3406
S'milk_NN'
p3407
aS'fridge_NN'
p3408
aS'broom_NN'
p3409
aS'closet_NN'
p3410
aa(lp3411
S'milk_NN'
p3412
aS'fridge_NN'
p3413
aS'detergent_NN'
p3414
aS'cupboard_NN'
p3415
aa(lp3416
S'milk_NN'
p3417
aS'fridge_NN'
p3418
aS'butter_NN'
p3419
aS'refrigerator_NN'
p3420
aa(lp3421
S'milk_NN'
p3422
aS'fridge_NN'
p3423
aS'toaster_NN'
p3424
aS'counter_NN'
p3425
aa(lp3426
S'milk_NN'
p3427
aS'fridge_NN'
p3428
aS'water_NN'
p3429
aS'sink_VB'
p3430
aa(lp3431
S'milk_NN'
p3432
aS'fridge_NN'
p3433
aS'computer_NN'
p3434
aS'desk_NN'
p3435
aa(lp3436
S'milk_NN'
p3437
aS'fridge_NN'
p3438
aS'keyboard_NN'
p3439
aS'desk_NN'
p3440
aa(lp3441
S'milk_NN'
p3442
aS'fridge_NN'
p3443
aS'tomato_NN'
p3444
aS'refrigerator_NN'
p3445
aa(lp3446
S'milk_NN'
p3447
aS'fridge_NN'
p3448
aS'bread_NN'
p3449
aS'counter_NN'
p3450
aa(lp3451
S'milk_NN'
p3452
aS'fridge_NN'
p3453
aS'sponge_NN'
p3454
aS'closet_NN'
p3455
aa(lp3456
S'milk_NN'
p3457
aS'fridge_NN'
p3458
aS'book_NN'
p3459
aS'bookshelf_NN'
p3460
aa(lp3461
S'milk_NN'
p3462
aS'fridge_NN'
p3463
aS'cushion_NN'
p3464
aS'sofa_NN'
p3465
aa(lp3466
S'milk_NN'
p3467
aS'fridge_NN'
p3468
aS'pillow_NN'
p3469
aS'bed_NN'
p3470
aa(lp3471
S'milk_NN'
p3472
aS'fridge_NN'
p3473
aS'cups_NNS'
p3474
aS'cupboard_NN'
p3475
aa(lp3476
S'milk_NN'
p3477
aS'fridge_NN'
p3478
aS'clothes_NNS'
p3479
aS'dresser_NN'
p3480
aa(lp3481
S'milk_NN'
p3482
aS'fridge_NN'
p3483
aS'coats_NNS'
p3484
aS'wardrobe_NN'
p3485
aa(lp3486
S'milk_NN'
p3487
aS'fridge_NN'
p3488
aS'silverware_NN'
p3489
aS'drawer_NN'
p3490
aa(lp3491
S'milk_NN'
p3492
aS'fridge_NN'
p3493
aS'knives_NNS'
p3494
aS'drawer_NN'
p3495
aa(lp3496
S'milk_NN'
p3497
aS'fridge_NN'
p3498
aS'cereal_NN'
p3499
aS'cupboard_NN'
p3500
aa(lp3501
S'milk_NN'
p3502
aS'fridge_NN'
p3503
aS'soda_NN'
p3504
aS'fridge_NN'
p3505
aa(lp3506
S'milk_NN'
p3507
aS'fridge_NN'
p3508
aS'crackers_NNS'
p3509
aS'cupboard_NN'
p3510
aa(lp3511
S'milk_NN'
p3512
aS'fridge_NN'
p3513
aS'car_NN'
p3514
aS'garage_NN'
p3515
aa(lp3516
S'milk_NN'
p3517
aS'fridge_NN'
p3518
aS'laundry_NN'
p3519
aS'hamper_VB'
p3520
aa(lp3521
S'milk_NN'
p3522
aS'fridge_NN'
p3523
aS'screwdriver_NN'
p3524
aS'toolbox_NN'
p3525
aa(lp3526
S'milk_NN'
p3527
aS'fridge_NN'
p3528
aS'hammer_NN'
p3529
aS'toolbox_NN'
p3530
aa(lp3531
S'milk_NN'
p3532
aS'fridge_NN'
p3533
aS'chainsaw_NN'
p3534
aS'garage_NN'
p3535
aa(lp3536
S'milk_NN'
p3537
aS'fridge_NN'
p3538
aS'shovel_NN'
p3539
aS'shed_NN'
p3540
aa(lp3541
S'milk_NN'
p3542
aS'fridge_NN'
p3543
aS'rake_NN'
p3544
aS'shed_NN'
p3545
aa(lp3546
S'milk_NN'
p3547
aS'fridge_NN'
p3548
aS'money_NN'
p3549
aS'wallet_NN'
p3550
aa(lp3551
S'milk_NN'
p3552
aS'fridge_NN'
p3553
aS'plates_NNS'
p3554
aS'cupboard_NN'
p3555
aa(lp3556
S'milk_NN'
p3557
aS'fridge_NN'
p3558
aS'flowers_NNS'
p3559
aS'table_NN'
p3560
aa(lp3561
S'milk_NN'
p3562
aS'fridge_NN'
p3563
aS'popsicle_NN'
p3564
aS'freezer_NN'
p3565
aa(lp3566
S'milk_NN'
p3567
aS'fridge_NN'
p3568
aS'ice_NN'
p3569
aS'freezer_NN'
p3570
aa(lp3571
S'soda_NN'
p3572
aS'fridge_NN'
p3573
aS'mayonnaise_NN'
p3574
aS'refrigerator_NN'
p3575
aa(lp3576
S'soda_NN'
p3577
aS'fridge_NN'
p3578
aS'broom_NN'
p3579
aS'closet_NN'
p3580
aa(lp3581
S'soda_NN'
p3582
aS'fridge_NN'
p3583
aS'detergent_NN'
p3584
aS'cupboard_NN'
p3585
aa(lp3586
S'soda_NN'
p3587
aS'fridge_NN'
p3588
aS'butter_NN'
p3589
aS'refrigerator_NN'
p3590
aa(lp3591
S'soda_NN'
p3592
aS'fridge_NN'
p3593
aS'toaster_NN'
p3594
aS'counter_NN'
p3595
aa(lp3596
S'soda_NN'
p3597
aS'fridge_NN'
p3598
aS'water_NN'
p3599
aS'sink_VB'
p3600
aa(lp3601
S'soda_NN'
p3602
aS'fridge_NN'
p3603
aS'computer_NN'
p3604
aS'desk_NN'
p3605
aa(lp3606
S'soda_NN'
p3607
aS'fridge_NN'
p3608
aS'keyboard_NN'
p3609
aS'desk_NN'
p3610
aa(lp3611
S'soda_NN'
p3612
aS'fridge_NN'
p3613
aS'tomato_NN'
p3614
aS'refrigerator_NN'
p3615
aa(lp3616
S'soda_NN'
p3617
aS'fridge_NN'
p3618
aS'bread_NN'
p3619
aS'counter_NN'
p3620
aa(lp3621
S'soda_NN'
p3622
aS'fridge_NN'
p3623
aS'sponge_NN'
p3624
aS'closet_NN'
p3625
aa(lp3626
S'soda_NN'
p3627
aS'fridge_NN'
p3628
aS'book_NN'
p3629
aS'bookshelf_NN'
p3630
aa(lp3631
S'soda_NN'
p3632
aS'fridge_NN'
p3633
aS'cushion_NN'
p3634
aS'sofa_NN'
p3635
aa(lp3636
S'soda_NN'
p3637
aS'fridge_NN'
p3638
aS'pillow_NN'
p3639
aS'bed_NN'
p3640
aa(lp3641
S'soda_NN'
p3642
aS'fridge_NN'
p3643
aS'cups_NNS'
p3644
aS'cupboard_NN'
p3645
aa(lp3646
S'soda_NN'
p3647
aS'fridge_NN'
p3648
aS'clothes_NNS'
p3649
aS'dresser_NN'
p3650
aa(lp3651
S'soda_NN'
p3652
aS'fridge_NN'
p3653
aS'coats_NNS'
p3654
aS'wardrobe_NN'
p3655
aa(lp3656
S'soda_NN'
p3657
aS'fridge_NN'
p3658
aS'silverware_NN'
p3659
aS'drawer_NN'
p3660
aa(lp3661
S'soda_NN'
p3662
aS'fridge_NN'
p3663
aS'knives_NNS'
p3664
aS'drawer_NN'
p3665
aa(lp3666
S'soda_NN'
p3667
aS'fridge_NN'
p3668
aS'cereal_NN'
p3669
aS'cupboard_NN'
p3670
aa(lp3671
S'soda_NN'
p3672
aS'fridge_NN'
p3673
aS'milk_NN'
p3674
aS'fridge_NN'
p3675
aa(lp3676
S'soda_NN'
p3677
aS'fridge_NN'
p3678
aS'crackers_NNS'
p3679
aS'cupboard_NN'
p3680
aa(lp3681
S'soda_NN'
p3682
aS'fridge_NN'
p3683
aS'car_NN'
p3684
aS'garage_NN'
p3685
aa(lp3686
S'soda_NN'
p3687
aS'fridge_NN'
p3688
aS'laundry_NN'
p3689
aS'hamper_VB'
p3690
aa(lp3691
S'soda_NN'
p3692
aS'fridge_NN'
p3693
aS'screwdriver_NN'
p3694
aS'toolbox_NN'
p3695
aa(lp3696
S'soda_NN'
p3697
aS'fridge_NN'
p3698
aS'hammer_NN'
p3699
aS'toolbox_NN'
p3700
aa(lp3701
S'soda_NN'
p3702
aS'fridge_NN'
p3703
aS'chainsaw_NN'
p3704
aS'garage_NN'
p3705
aa(lp3706
S'soda_NN'
p3707
aS'fridge_NN'
p3708
aS'shovel_NN'
p3709
aS'shed_NN'
p3710
aa(lp3711
S'soda_NN'
p3712
aS'fridge_NN'
p3713
aS'rake_NN'
p3714
aS'shed_NN'
p3715
aa(lp3716
S'soda_NN'
p3717
aS'fridge_NN'
p3718
aS'money_NN'
p3719
aS'wallet_NN'
p3720
aa(lp3721
S'soda_NN'
p3722
aS'fridge_NN'
p3723
aS'plates_NNS'
p3724
aS'cupboard_NN'
p3725
aa(lp3726
S'soda_NN'
p3727
aS'fridge_NN'
p3728
aS'flowers_NNS'
p3729
aS'table_NN'
p3730
aa(lp3731
S'soda_NN'
p3732
aS'fridge_NN'
p3733
aS'popsicle_NN'
p3734
aS'freezer_NN'
p3735
aa(lp3736
S'soda_NN'
p3737
aS'fridge_NN'
p3738
aS'ice_NN'
p3739
aS'freezer_NN'
p3740
aa(lp3741
S'crackers_NNS'
p3742
aS'cupboard_NN'
p3743
aS'mayonnaise_NN'
p3744
aS'refrigerator_NN'
p3745
aa(lp3746
S'crackers_NNS'
p3747
aS'cupboard_NN'
p3748
aS'broom_NN'
p3749
aS'closet_NN'
p3750
aa(lp3751
S'crackers_NNS'
p3752
aS'cupboard_NN'
p3753
aS'detergent_NN'
p3754
aS'cupboard_NN'
p3755
aa(lp3756
S'crackers_NNS'
p3757
aS'cupboard_NN'
p3758
aS'butter_NN'
p3759
aS'refrigerator_NN'
p3760
aa(lp3761
S'crackers_NNS'
p3762
aS'cupboard_NN'
p3763
aS'toaster_NN'
p3764
aS'counter_NN'
p3765
aa(lp3766
S'crackers_NNS'
p3767
aS'cupboard_NN'
p3768
aS'water_NN'
p3769
aS'sink_VB'
p3770
aa(lp3771
S'crackers_NNS'
p3772
aS'cupboard_NN'
p3773
aS'computer_NN'
p3774
aS'desk_NN'
p3775
aa(lp3776
S'crackers_NNS'
p3777
aS'cupboard_NN'
p3778
aS'keyboard_NN'
p3779
aS'desk_NN'
p3780
aa(lp3781
S'crackers_NNS'
p3782
aS'cupboard_NN'
p3783
aS'tomato_NN'
p3784
aS'refrigerator_NN'
p3785
aa(lp3786
S'crackers_NNS'
p3787
aS'cupboard_NN'
p3788
aS'bread_NN'
p3789
aS'counter_NN'
p3790
aa(lp3791
S'crackers_NNS'
p3792
aS'cupboard_NN'
p3793
aS'sponge_NN'
p3794
aS'closet_NN'
p3795
aa(lp3796
S'crackers_NNS'
p3797
aS'cupboard_NN'
p3798
aS'book_NN'
p3799
aS'bookshelf_NN'
p3800
aa(lp3801
S'crackers_NNS'
p3802
aS'cupboard_NN'
p3803
aS'cushion_NN'
p3804
aS'sofa_NN'
p3805
aa(lp3806
S'crackers_NNS'
p3807
aS'cupboard_NN'
p3808
aS'pillow_NN'
p3809
aS'bed_NN'
p3810
aa(lp3811
S'crackers_NNS'
p3812
aS'cupboard_NN'
p3813
aS'cups_NNS'
p3814
aS'cupboard_NN'
p3815
aa(lp3816
S'crackers_NNS'
p3817
aS'cupboard_NN'
p3818
aS'clothes_NNS'
p3819
aS'dresser_NN'
p3820
aa(lp3821
S'crackers_NNS'
p3822
aS'cupboard_NN'
p3823
aS'coats_NNS'
p3824
aS'wardrobe_NN'
p3825
aa(lp3826
S'crackers_NNS'
p3827
aS'cupboard_NN'
p3828
aS'silverware_NN'
p3829
aS'drawer_NN'
p3830
aa(lp3831
S'crackers_NNS'
p3832
aS'cupboard_NN'
p3833
aS'knives_NNS'
p3834
aS'drawer_NN'
p3835
aa(lp3836
S'crackers_NNS'
p3837
aS'cupboard_NN'
p3838
aS'cereal_NN'
p3839
aS'cupboard_NN'
p3840
aa(lp3841
S'crackers_NNS'
p3842
aS'cupboard_NN'
p3843
aS'milk_NN'
p3844
aS'fridge_NN'
p3845
aa(lp3846
S'crackers_NNS'
p3847
aS'cupboard_NN'
p3848
aS'soda_NN'
p3849
aS'fridge_NN'
p3850
aa(lp3851
S'crackers_NNS'
p3852
aS'cupboard_NN'
p3853
aS'car_NN'
p3854
aS'garage_NN'
p3855
aa(lp3856
S'crackers_NNS'
p3857
aS'cupboard_NN'
p3858
aS'laundry_NN'
p3859
aS'hamper_VB'
p3860
aa(lp3861
S'crackers_NNS'
p3862
aS'cupboard_NN'
p3863
aS'screwdriver_NN'
p3864
aS'toolbox_NN'
p3865
aa(lp3866
S'crackers_NNS'
p3867
aS'cupboard_NN'
p3868
aS'hammer_NN'
p3869
aS'toolbox_NN'
p3870
aa(lp3871
S'crackers_NNS'
p3872
aS'cupboard_NN'
p3873
aS'chainsaw_NN'
p3874
aS'garage_NN'
p3875
aa(lp3876
S'crackers_NNS'
p3877
aS'cupboard_NN'
p3878
aS'shovel_NN'
p3879
aS'shed_NN'
p3880
aa(lp3881
S'crackers_NNS'
p3882
aS'cupboard_NN'
p3883
aS'rake_NN'
p3884
aS'shed_NN'
p3885
aa(lp3886
S'crackers_NNS'
p3887
aS'cupboard_NN'
p3888
aS'money_NN'
p3889
aS'wallet_NN'
p3890
aa(lp3891
S'crackers_NNS'
p3892
aS'cupboard_NN'
p3893
aS'plates_NNS'
p3894
aS'cupboard_NN'
p3895
aa(lp3896
S'crackers_NNS'
p3897
aS'cupboard_NN'
p3898
aS'flowers_NNS'
p3899
aS'table_NN'
p3900
aa(lp3901
S'crackers_NNS'
p3902
aS'cupboard_NN'
p3903
aS'popsicle_NN'
p3904
aS'freezer_NN'
p3905
aa(lp3906
S'crackers_NNS'
p3907
aS'cupboard_NN'
p3908
aS'ice_NN'
p3909
aS'freezer_NN'
p3910
aa(lp3911
S'car_NN'
p3912
aS'garage_NN'
p3913
aS'mayonnaise_NN'
p3914
aS'refrigerator_NN'
p3915
aa(lp3916
S'car_NN'
p3917
aS'garage_NN'
p3918
aS'broom_NN'
p3919
aS'closet_NN'
p3920
aa(lp3921
S'car_NN'
p3922
aS'garage_NN'
p3923
aS'detergent_NN'
p3924
aS'cupboard_NN'
p3925
aa(lp3926
S'car_NN'
p3927
aS'garage_NN'
p3928
aS'butter_NN'
p3929
aS'refrigerator_NN'
p3930
aa(lp3931
S'car_NN'
p3932
aS'garage_NN'
p3933
aS'toaster_NN'
p3934
aS'counter_NN'
p3935
aa(lp3936
S'car_NN'
p3937
aS'garage_NN'
p3938
aS'water_NN'
p3939
aS'sink_VB'
p3940
aa(lp3941
S'car_NN'
p3942
aS'garage_NN'
p3943
aS'computer_NN'
p3944
aS'desk_NN'
p3945
aa(lp3946
S'car_NN'
p3947
aS'garage_NN'
p3948
aS'keyboard_NN'
p3949
aS'desk_NN'
p3950
aa(lp3951
S'car_NN'
p3952
aS'garage_NN'
p3953
aS'tomato_NN'
p3954
aS'refrigerator_NN'
p3955
aa(lp3956
S'car_NN'
p3957
aS'garage_NN'
p3958
aS'bread_NN'
p3959
aS'counter_NN'
p3960
aa(lp3961
S'car_NN'
p3962
aS'garage_NN'
p3963
aS'sponge_NN'
p3964
aS'closet_NN'
p3965
aa(lp3966
S'car_NN'
p3967
aS'garage_NN'
p3968
aS'book_NN'
p3969
aS'bookshelf_NN'
p3970
aa(lp3971
S'car_NN'
p3972
aS'garage_NN'
p3973
aS'cushion_NN'
p3974
aS'sofa_NN'
p3975
aa(lp3976
S'car_NN'
p3977
aS'garage_NN'
p3978
aS'pillow_NN'
p3979
aS'bed_NN'
p3980
aa(lp3981
S'car_NN'
p3982
aS'garage_NN'
p3983
aS'cups_NNS'
p3984
aS'cupboard_NN'
p3985
aa(lp3986
S'car_NN'
p3987
aS'garage_NN'
p3988
aS'clothes_NNS'
p3989
aS'dresser_NN'
p3990
aa(lp3991
S'car_NN'
p3992
aS'garage_NN'
p3993
aS'coats_NNS'
p3994
aS'wardrobe_NN'
p3995
aa(lp3996
S'car_NN'
p3997
aS'garage_NN'
p3998
aS'silverware_NN'
p3999
aS'drawer_NN'
p4000
aa(lp4001
S'car_NN'
p4002
aS'garage_NN'
p4003
aS'knives_NNS'
p4004
aS'drawer_NN'
p4005
aa(lp4006
S'car_NN'
p4007
aS'garage_NN'
p4008
aS'cereal_NN'
p4009
aS'cupboard_NN'
p4010
aa(lp4011
S'car_NN'
p4012
aS'garage_NN'
p4013
aS'milk_NN'
p4014
aS'fridge_NN'
p4015
aa(lp4016
S'car_NN'
p4017
aS'garage_NN'
p4018
aS'soda_NN'
p4019
aS'fridge_NN'
p4020
aa(lp4021
S'car_NN'
p4022
aS'garage_NN'
p4023
aS'crackers_NNS'
p4024
aS'cupboard_NN'
p4025
aa(lp4026
S'car_NN'
p4027
aS'garage_NN'
p4028
aS'laundry_NN'
p4029
aS'hamper_VB'
p4030
aa(lp4031
S'car_NN'
p4032
aS'garage_NN'
p4033
aS'screwdriver_NN'
p4034
aS'toolbox_NN'
p4035
aa(lp4036
S'car_NN'
p4037
aS'garage_NN'
p4038
aS'hammer_NN'
p4039
aS'toolbox_NN'
p4040
aa(lp4041
S'car_NN'
p4042
aS'garage_NN'
p4043
aS'chainsaw_NN'
p4044
aS'garage_NN'
p4045
aa(lp4046
S'car_NN'
p4047
aS'garage_NN'
p4048
aS'shovel_NN'
p4049
aS'shed_NN'
p4050
aa(lp4051
S'car_NN'
p4052
aS'garage_NN'
p4053
aS'rake_NN'
p4054
aS'shed_NN'
p4055
aa(lp4056
S'car_NN'
p4057
aS'garage_NN'
p4058
aS'money_NN'
p4059
aS'wallet_NN'
p4060
aa(lp4061
S'car_NN'
p4062
aS'garage_NN'
p4063
aS'plates_NNS'
p4064
aS'cupboard_NN'
p4065
aa(lp4066
S'car_NN'
p4067
aS'garage_NN'
p4068
aS'flowers_NNS'
p4069
aS'table_NN'
p4070
aa(lp4071
S'car_NN'
p4072
aS'garage_NN'
p4073
aS'popsicle_NN'
p4074
aS'freezer_NN'
p4075
aa(lp4076
S'car_NN'
p4077
aS'garage_NN'
p4078
aS'ice_NN'
p4079
aS'freezer_NN'
p4080
aa(lp4081
S'laundry_NN'
p4082
aS'hamper_VB'
p4083
aS'mayonnaise_NN'
p4084
aS'refrigerator_NN'
p4085
aa(lp4086
S'laundry_NN'
p4087
aS'hamper_VB'
p4088
aS'broom_NN'
p4089
aS'closet_NN'
p4090
aa(lp4091
S'laundry_NN'
p4092
aS'hamper_VB'
p4093
aS'detergent_NN'
p4094
aS'cupboard_NN'
p4095
aa(lp4096
S'laundry_NN'
p4097
aS'hamper_VB'
p4098
aS'butter_NN'
p4099
aS'refrigerator_NN'
p4100
aa(lp4101
S'laundry_NN'
p4102
aS'hamper_VB'
p4103
aS'toaster_NN'
p4104
aS'counter_NN'
p4105
aa(lp4106
S'laundry_NN'
p4107
aS'hamper_VB'
p4108
aS'water_NN'
p4109
aS'sink_VB'
p4110
aa(lp4111
S'laundry_NN'
p4112
aS'hamper_VB'
p4113
aS'computer_NN'
p4114
aS'desk_NN'
p4115
aa(lp4116
S'laundry_NN'
p4117
aS'hamper_VB'
p4118
aS'keyboard_NN'
p4119
aS'desk_NN'
p4120
aa(lp4121
S'laundry_NN'
p4122
aS'hamper_VB'
p4123
aS'tomato_NN'
p4124
aS'refrigerator_NN'
p4125
aa(lp4126
S'laundry_NN'
p4127
aS'hamper_VB'
p4128
aS'bread_NN'
p4129
aS'counter_NN'
p4130
aa(lp4131
S'laundry_NN'
p4132
aS'hamper_VB'
p4133
aS'sponge_NN'
p4134
aS'closet_NN'
p4135
aa(lp4136
S'laundry_NN'
p4137
aS'hamper_VB'
p4138
aS'book_NN'
p4139
aS'bookshelf_NN'
p4140
aa(lp4141
S'laundry_NN'
p4142
aS'hamper_VB'
p4143
aS'cushion_NN'
p4144
aS'sofa_NN'
p4145
aa(lp4146
S'laundry_NN'
p4147
aS'hamper_VB'
p4148
aS'pillow_NN'
p4149
aS'bed_NN'
p4150
aa(lp4151
S'laundry_NN'
p4152
aS'hamper_VB'
p4153
aS'cups_NNS'
p4154
aS'cupboard_NN'
p4155
aa(lp4156
S'laundry_NN'
p4157
aS'hamper_VB'
p4158
aS'clothes_NNS'
p4159
aS'dresser_NN'
p4160
aa(lp4161
S'laundry_NN'
p4162
aS'hamper_VB'
p4163
aS'coats_NNS'
p4164
aS'wardrobe_NN'
p4165
aa(lp4166
S'laundry_NN'
p4167
aS'hamper_VB'
p4168
aS'silverware_NN'
p4169
aS'drawer_NN'
p4170
aa(lp4171
S'laundry_NN'
p4172
aS'hamper_VB'
p4173
aS'knives_NNS'
p4174
aS'drawer_NN'
p4175
aa(lp4176
S'laundry_NN'
p4177
aS'hamper_VB'
p4178
aS'cereal_NN'
p4179
aS'cupboard_NN'
p4180
aa(lp4181
S'laundry_NN'
p4182
aS'hamper_VB'
p4183
aS'milk_NN'
p4184
aS'fridge_NN'
p4185
aa(lp4186
S'laundry_NN'
p4187
aS'hamper_VB'
p4188
aS'soda_NN'
p4189
aS'fridge_NN'
p4190
aa(lp4191
S'laundry_NN'
p4192
aS'hamper_VB'
p4193
aS'crackers_NNS'
p4194
aS'cupboard_NN'
p4195
aa(lp4196
S'laundry_NN'
p4197
aS'hamper_VB'
p4198
aS'car_NN'
p4199
aS'garage_NN'
p4200
aa(lp4201
S'laundry_NN'
p4202
aS'hamper_VB'
p4203
aS'screwdriver_NN'
p4204
aS'toolbox_NN'
p4205
aa(lp4206
S'laundry_NN'
p4207
aS'hamper_VB'
p4208
aS'hammer_NN'
p4209
aS'toolbox_NN'
p4210
aa(lp4211
S'laundry_NN'
p4212
aS'hamper_VB'
p4213
aS'chainsaw_NN'
p4214
aS'garage_NN'
p4215
aa(lp4216
S'laundry_NN'
p4217
aS'hamper_VB'
p4218
aS'shovel_NN'
p4219
aS'shed_NN'
p4220
aa(lp4221
S'laundry_NN'
p4222
aS'hamper_VB'
p4223
aS'rake_NN'
p4224
aS'shed_NN'
p4225
aa(lp4226
S'laundry_NN'
p4227
aS'hamper_VB'
p4228
aS'money_NN'
p4229
aS'wallet_NN'
p4230
aa(lp4231
S'laundry_NN'
p4232
aS'hamper_VB'
p4233
aS'plates_NNS'
p4234
aS'cupboard_NN'
p4235
aa(lp4236
S'laundry_NN'
p4237
aS'hamper_VB'
p4238
aS'flowers_NNS'
p4239
aS'table_NN'
p4240
aa(lp4241
S'laundry_NN'
p4242
aS'hamper_VB'
p4243
aS'popsicle_NN'
p4244
aS'freezer_NN'
p4245
aa(lp4246
S'laundry_NN'
p4247
aS'hamper_VB'
p4248
aS'ice_NN'
p4249
aS'freezer_NN'
p4250
aa(lp4251
S'screwdriver_NN'
p4252
aS'toolbox_NN'
p4253
aS'mayonnaise_NN'
p4254
aS'refrigerator_NN'
p4255
aa(lp4256
S'screwdriver_NN'
p4257
aS'toolbox_NN'
p4258
aS'broom_NN'
p4259
aS'closet_NN'
p4260
aa(lp4261
S'screwdriver_NN'
p4262
aS'toolbox_NN'
p4263
aS'detergent_NN'
p4264
aS'cupboard_NN'
p4265
aa(lp4266
S'screwdriver_NN'
p4267
aS'toolbox_NN'
p4268
aS'butter_NN'
p4269
aS'refrigerator_NN'
p4270
aa(lp4271
S'screwdriver_NN'
p4272
aS'toolbox_NN'
p4273
aS'toaster_NN'
p4274
aS'counter_NN'
p4275
aa(lp4276
S'screwdriver_NN'
p4277
aS'toolbox_NN'
p4278
aS'water_NN'
p4279
aS'sink_VB'
p4280
aa(lp4281
S'screwdriver_NN'
p4282
aS'toolbox_NN'
p4283
aS'computer_NN'
p4284
aS'desk_NN'
p4285
aa(lp4286
S'screwdriver_NN'
p4287
aS'toolbox_NN'
p4288
aS'keyboard_NN'
p4289
aS'desk_NN'
p4290
aa(lp4291
S'screwdriver_NN'
p4292
aS'toolbox_NN'
p4293
aS'tomato_NN'
p4294
aS'refrigerator_NN'
p4295
aa(lp4296
S'screwdriver_NN'
p4297
aS'toolbox_NN'
p4298
aS'bread_NN'
p4299
aS'counter_NN'
p4300
aa(lp4301
S'screwdriver_NN'
p4302
aS'toolbox_NN'
p4303
aS'sponge_NN'
p4304
aS'closet_NN'
p4305
aa(lp4306
S'screwdriver_NN'
p4307
aS'toolbox_NN'
p4308
aS'book_NN'
p4309
aS'bookshelf_NN'
p4310
aa(lp4311
S'screwdriver_NN'
p4312
aS'toolbox_NN'
p4313
aS'cushion_NN'
p4314
aS'sofa_NN'
p4315
aa(lp4316
S'screwdriver_NN'
p4317
aS'toolbox_NN'
p4318
aS'pillow_NN'
p4319
aS'bed_NN'
p4320
aa(lp4321
S'screwdriver_NN'
p4322
aS'toolbox_NN'
p4323
aS'cups_NNS'
p4324
aS'cupboard_NN'
p4325
aa(lp4326
S'screwdriver_NN'
p4327
aS'toolbox_NN'
p4328
aS'clothes_NNS'
p4329
aS'dresser_NN'
p4330
aa(lp4331
S'screwdriver_NN'
p4332
aS'toolbox_NN'
p4333
aS'coats_NNS'
p4334
aS'wardrobe_NN'
p4335
aa(lp4336
S'screwdriver_NN'
p4337
aS'toolbox_NN'
p4338
aS'silverware_NN'
p4339
aS'drawer_NN'
p4340
aa(lp4341
S'screwdriver_NN'
p4342
aS'toolbox_NN'
p4343
aS'knives_NNS'
p4344
aS'drawer_NN'
p4345
aa(lp4346
S'screwdriver_NN'
p4347
aS'toolbox_NN'
p4348
aS'cereal_NN'
p4349
aS'cupboard_NN'
p4350
aa(lp4351
S'screwdriver_NN'
p4352
aS'toolbox_NN'
p4353
aS'milk_NN'
p4354
aS'fridge_NN'
p4355
aa(lp4356
S'screwdriver_NN'
p4357
aS'toolbox_NN'
p4358
aS'soda_NN'
p4359
aS'fridge_NN'
p4360
aa(lp4361
S'screwdriver_NN'
p4362
aS'toolbox_NN'
p4363
aS'crackers_NNS'
p4364
aS'cupboard_NN'
p4365
aa(lp4366
S'screwdriver_NN'
p4367
aS'toolbox_NN'
p4368
aS'car_NN'
p4369
aS'garage_NN'
p4370
aa(lp4371
S'screwdriver_NN'
p4372
aS'toolbox_NN'
p4373
aS'laundry_NN'
p4374
aS'hamper_VB'
p4375
aa(lp4376
S'screwdriver_NN'
p4377
aS'toolbox_NN'
p4378
aS'hammer_NN'
p4379
aS'toolbox_NN'
p4380
aa(lp4381
S'screwdriver_NN'
p4382
aS'toolbox_NN'
p4383
aS'chainsaw_NN'
p4384
aS'garage_NN'
p4385
aa(lp4386
S'screwdriver_NN'
p4387
aS'toolbox_NN'
p4388
aS'shovel_NN'
p4389
aS'shed_NN'
p4390
aa(lp4391
S'screwdriver_NN'
p4392
aS'toolbox_NN'
p4393
aS'rake_NN'
p4394
aS'shed_NN'
p4395
aa(lp4396
S'screwdriver_NN'
p4397
aS'toolbox_NN'
p4398
aS'money_NN'
p4399
aS'wallet_NN'
p4400
aa(lp4401
S'screwdriver_NN'
p4402
aS'toolbox_NN'
p4403
aS'plates_NNS'
p4404
aS'cupboard_NN'
p4405
aa(lp4406
S'screwdriver_NN'
p4407
aS'toolbox_NN'
p4408
aS'flowers_NNS'
p4409
aS'table_NN'
p4410
aa(lp4411
S'screwdriver_NN'
p4412
aS'toolbox_NN'
p4413
aS'popsicle_NN'
p4414
aS'freezer_NN'
p4415
aa(lp4416
S'screwdriver_NN'
p4417
aS'toolbox_NN'
p4418
aS'ice_NN'
p4419
aS'freezer_NN'
p4420
aa(lp4421
S'hammer_NN'
p4422
aS'toolbox_NN'
p4423
aS'mayonnaise_NN'
p4424
aS'refrigerator_NN'
p4425
aa(lp4426
S'hammer_NN'
p4427
aS'toolbox_NN'
p4428
aS'broom_NN'
p4429
aS'closet_NN'
p4430
aa(lp4431
S'hammer_NN'
p4432
aS'toolbox_NN'
p4433
aS'detergent_NN'
p4434
aS'cupboard_NN'
p4435
aa(lp4436
S'hammer_NN'
p4437
aS'toolbox_NN'
p4438
aS'butter_NN'
p4439
aS'refrigerator_NN'
p4440
aa(lp4441
S'hammer_NN'
p4442
aS'toolbox_NN'
p4443
aS'toaster_NN'
p4444
aS'counter_NN'
p4445
aa(lp4446
S'hammer_NN'
p4447
aS'toolbox_NN'
p4448
aS'water_NN'
p4449
aS'sink_VB'
p4450
aa(lp4451
S'hammer_NN'
p4452
aS'toolbox_NN'
p4453
aS'computer_NN'
p4454
aS'desk_NN'
p4455
aa(lp4456
S'hammer_NN'
p4457
aS'toolbox_NN'
p4458
aS'keyboard_NN'
p4459
aS'desk_NN'
p4460
aa(lp4461
S'hammer_NN'
p4462
aS'toolbox_NN'
p4463
aS'tomato_NN'
p4464
aS'refrigerator_NN'
p4465
aa(lp4466
S'hammer_NN'
p4467
aS'toolbox_NN'
p4468
aS'bread_NN'
p4469
aS'counter_NN'
p4470
aa(lp4471
S'hammer_NN'
p4472
aS'toolbox_NN'
p4473
aS'sponge_NN'
p4474
aS'closet_NN'
p4475
aa(lp4476
S'hammer_NN'
p4477
aS'toolbox_NN'
p4478
aS'book_NN'
p4479
aS'bookshelf_NN'
p4480
aa(lp4481
S'hammer_NN'
p4482
aS'toolbox_NN'
p4483
aS'cushion_NN'
p4484
aS'sofa_NN'
p4485
aa(lp4486
S'hammer_NN'
p4487
aS'toolbox_NN'
p4488
aS'pillow_NN'
p4489
aS'bed_NN'
p4490
aa(lp4491
S'hammer_NN'
p4492
aS'toolbox_NN'
p4493
aS'cups_NNS'
p4494
aS'cupboard_NN'
p4495
aa(lp4496
S'hammer_NN'
p4497
aS'toolbox_NN'
p4498
aS'clothes_NNS'
p4499
aS'dresser_NN'
p4500
aa(lp4501
S'hammer_NN'
p4502
aS'toolbox_NN'
p4503
aS'coats_NNS'
p4504
aS'wardrobe_NN'
p4505
aa(lp4506
S'hammer_NN'
p4507
aS'toolbox_NN'
p4508
aS'silverware_NN'
p4509
aS'drawer_NN'
p4510
aa(lp4511
S'hammer_NN'
p4512
aS'toolbox_NN'
p4513
aS'knives_NNS'
p4514
aS'drawer_NN'
p4515
aa(lp4516
S'hammer_NN'
p4517
aS'toolbox_NN'
p4518
aS'cereal_NN'
p4519
aS'cupboard_NN'
p4520
aa(lp4521
S'hammer_NN'
p4522
aS'toolbox_NN'
p4523
aS'milk_NN'
p4524
aS'fridge_NN'
p4525
aa(lp4526
S'hammer_NN'
p4527
aS'toolbox_NN'
p4528
aS'soda_NN'
p4529
aS'fridge_NN'
p4530
aa(lp4531
S'hammer_NN'
p4532
aS'toolbox_NN'
p4533
aS'crackers_NNS'
p4534
aS'cupboard_NN'
p4535
aa(lp4536
S'hammer_NN'
p4537
aS'toolbox_NN'
p4538
aS'car_NN'
p4539
aS'garage_NN'
p4540
aa(lp4541
S'hammer_NN'
p4542
aS'toolbox_NN'
p4543
aS'laundry_NN'
p4544
aS'hamper_VB'
p4545
aa(lp4546
S'hammer_NN'
p4547
aS'toolbox_NN'
p4548
aS'screwdriver_NN'
p4549
aS'toolbox_NN'
p4550
aa(lp4551
S'hammer_NN'
p4552
aS'toolbox_NN'
p4553
aS'chainsaw_NN'
p4554
aS'garage_NN'
p4555
aa(lp4556
S'hammer_NN'
p4557
aS'toolbox_NN'
p4558
aS'shovel_NN'
p4559
aS'shed_NN'
p4560
aa(lp4561
S'hammer_NN'
p4562
aS'toolbox_NN'
p4563
aS'rake_NN'
p4564
aS'shed_NN'
p4565
aa(lp4566
S'hammer_NN'
p4567
aS'toolbox_NN'
p4568
aS'money_NN'
p4569
aS'wallet_NN'
p4570
aa(lp4571
S'hammer_NN'
p4572
aS'toolbox_NN'
p4573
aS'plates_NNS'
p4574
aS'cupboard_NN'
p4575
aa(lp4576
S'hammer_NN'
p4577
aS'toolbox_NN'
p4578
aS'flowers_NNS'
p4579
aS'table_NN'
p4580
aa(lp4581
S'hammer_NN'
p4582
aS'toolbox_NN'
p4583
aS'popsicle_NN'
p4584
aS'freezer_NN'
p4585
aa(lp4586
S'hammer_NN'
p4587
aS'toolbox_NN'
p4588
aS'ice_NN'
p4589
aS'freezer_NN'
p4590
aa(lp4591
S'chainsaw_NN'
p4592
aS'garage_NN'
p4593
aS'mayonnaise_NN'
p4594
aS'refrigerator_NN'
p4595
aa(lp4596
S'chainsaw_NN'
p4597
aS'garage_NN'
p4598
aS'broom_NN'
p4599
aS'closet_NN'
p4600
aa(lp4601
S'chainsaw_NN'
p4602
aS'garage_NN'
p4603
aS'detergent_NN'
p4604
aS'cupboard_NN'
p4605
aa(lp4606
S'chainsaw_NN'
p4607
aS'garage_NN'
p4608
aS'butter_NN'
p4609
aS'refrigerator_NN'
p4610
aa(lp4611
S'chainsaw_NN'
p4612
aS'garage_NN'
p4613
aS'toaster_NN'
p4614
aS'counter_NN'
p4615
aa(lp4616
S'chainsaw_NN'
p4617
aS'garage_NN'
p4618
aS'water_NN'
p4619
aS'sink_VB'
p4620
aa(lp4621
S'chainsaw_NN'
p4622
aS'garage_NN'
p4623
aS'computer_NN'
p4624
aS'desk_NN'
p4625
aa(lp4626
S'chainsaw_NN'
p4627
aS'garage_NN'
p4628
aS'keyboard_NN'
p4629
aS'desk_NN'
p4630
aa(lp4631
S'chainsaw_NN'
p4632
aS'garage_NN'
p4633
aS'tomato_NN'
p4634
aS'refrigerator_NN'
p4635
aa(lp4636
S'chainsaw_NN'
p4637
aS'garage_NN'
p4638
aS'bread_NN'
p4639
aS'counter_NN'
p4640
aa(lp4641
S'chainsaw_NN'
p4642
aS'garage_NN'
p4643
aS'sponge_NN'
p4644
aS'closet_NN'
p4645
aa(lp4646
S'chainsaw_NN'
p4647
aS'garage_NN'
p4648
aS'book_NN'
p4649
aS'bookshelf_NN'
p4650
aa(lp4651
S'chainsaw_NN'
p4652
aS'garage_NN'
p4653
aS'cushion_NN'
p4654
aS'sofa_NN'
p4655
aa(lp4656
S'chainsaw_NN'
p4657
aS'garage_NN'
p4658
aS'pillow_NN'
p4659
aS'bed_NN'
p4660
aa(lp4661
S'chainsaw_NN'
p4662
aS'garage_NN'
p4663
aS'cups_NNS'
p4664
aS'cupboard_NN'
p4665
aa(lp4666
S'chainsaw_NN'
p4667
aS'garage_NN'
p4668
aS'clothes_NNS'
p4669
aS'dresser_NN'
p4670
aa(lp4671
S'chainsaw_NN'
p4672
aS'garage_NN'
p4673
aS'coats_NNS'
p4674
aS'wardrobe_NN'
p4675
aa(lp4676
S'chainsaw_NN'
p4677
aS'garage_NN'
p4678
aS'silverware_NN'
p4679
aS'drawer_NN'
p4680
aa(lp4681
S'chainsaw_NN'
p4682
aS'garage_NN'
p4683
aS'knives_NNS'
p4684
aS'drawer_NN'
p4685
aa(lp4686
S'chainsaw_NN'
p4687
aS'garage_NN'
p4688
aS'cereal_NN'
p4689
aS'cupboard_NN'
p4690
aa(lp4691
S'chainsaw_NN'
p4692
aS'garage_NN'
p4693
aS'milk_NN'
p4694
aS'fridge_NN'
p4695
aa(lp4696
S'chainsaw_NN'
p4697
aS'garage_NN'
p4698
aS'soda_NN'
p4699
aS'fridge_NN'
p4700
aa(lp4701
S'chainsaw_NN'
p4702
aS'garage_NN'
p4703
aS'crackers_NNS'
p4704
aS'cupboard_NN'
p4705
aa(lp4706
S'chainsaw_NN'
p4707
aS'garage_NN'
p4708
aS'car_NN'
p4709
aS'garage_NN'
p4710
aa(lp4711
S'chainsaw_NN'
p4712
aS'garage_NN'
p4713
aS'laundry_NN'
p4714
aS'hamper_VB'
p4715
aa(lp4716
S'chainsaw_NN'
p4717
aS'garage_NN'
p4718
aS'screwdriver_NN'
p4719
aS'toolbox_NN'
p4720
aa(lp4721
S'chainsaw_NN'
p4722
aS'garage_NN'
p4723
aS'hammer_NN'
p4724
aS'toolbox_NN'
p4725
aa(lp4726
S'chainsaw_NN'
p4727
aS'garage_NN'
p4728
aS'shovel_NN'
p4729
aS'shed_NN'
p4730
aa(lp4731
S'chainsaw_NN'
p4732
aS'garage_NN'
p4733
aS'rake_NN'
p4734
aS'shed_NN'
p4735
aa(lp4736
S'chainsaw_NN'
p4737
aS'garage_NN'
p4738
aS'money_NN'
p4739
aS'wallet_NN'
p4740
aa(lp4741
S'chainsaw_NN'
p4742
aS'garage_NN'
p4743
aS'plates_NNS'
p4744
aS'cupboard_NN'
p4745
aa(lp4746
S'chainsaw_NN'
p4747
aS'garage_NN'
p4748
aS'flowers_NNS'
p4749
aS'table_NN'
p4750
aa(lp4751
S'chainsaw_NN'
p4752
aS'garage_NN'
p4753
aS'popsicle_NN'
p4754
aS'freezer_NN'
p4755
aa(lp4756
S'chainsaw_NN'
p4757
aS'garage_NN'
p4758
aS'ice_NN'
p4759
aS'freezer_NN'
p4760
aa(lp4761
S'shovel_NN'
p4762
aS'shed_NN'
p4763
aS'mayonnaise_NN'
p4764
aS'refrigerator_NN'
p4765
aa(lp4766
S'shovel_NN'
p4767
aS'shed_NN'
p4768
aS'broom_NN'
p4769
aS'closet_NN'
p4770
aa(lp4771
S'shovel_NN'
p4772
aS'shed_NN'
p4773
aS'detergent_NN'
p4774
aS'cupboard_NN'
p4775
aa(lp4776
S'shovel_NN'
p4777
aS'shed_NN'
p4778
aS'butter_NN'
p4779
aS'refrigerator_NN'
p4780
aa(lp4781
S'shovel_NN'
p4782
aS'shed_NN'
p4783
aS'toaster_NN'
p4784
aS'counter_NN'
p4785
aa(lp4786
S'shovel_NN'
p4787
aS'shed_NN'
p4788
aS'water_NN'
p4789
aS'sink_VB'
p4790
aa(lp4791
S'shovel_NN'
p4792
aS'shed_NN'
p4793
aS'computer_NN'
p4794
aS'desk_NN'
p4795
aa(lp4796
S'shovel_NN'
p4797
aS'shed_NN'
p4798
aS'keyboard_NN'
p4799
aS'desk_NN'
p4800
aa(lp4801
S'shovel_NN'
p4802
aS'shed_NN'
p4803
aS'tomato_NN'
p4804
aS'refrigerator_NN'
p4805
aa(lp4806
S'shovel_NN'
p4807
aS'shed_NN'
p4808
aS'bread_NN'
p4809
aS'counter_NN'
p4810
aa(lp4811
S'shovel_NN'
p4812
aS'shed_NN'
p4813
aS'sponge_NN'
p4814
aS'closet_NN'
p4815
aa(lp4816
S'shovel_NN'
p4817
aS'shed_NN'
p4818
aS'book_NN'
p4819
aS'bookshelf_NN'
p4820
aa(lp4821
S'shovel_NN'
p4822
aS'shed_NN'
p4823
aS'cushion_NN'
p4824
aS'sofa_NN'
p4825
aa(lp4826
S'shovel_NN'
p4827
aS'shed_NN'
p4828
aS'pillow_NN'
p4829
aS'bed_NN'
p4830
aa(lp4831
S'shovel_NN'
p4832
aS'shed_NN'
p4833
aS'cups_NNS'
p4834
aS'cupboard_NN'
p4835
aa(lp4836
S'shovel_NN'
p4837
aS'shed_NN'
p4838
aS'clothes_NNS'
p4839
aS'dresser_NN'
p4840
aa(lp4841
S'shovel_NN'
p4842
aS'shed_NN'
p4843
aS'coats_NNS'
p4844
aS'wardrobe_NN'
p4845
aa(lp4846
S'shovel_NN'
p4847
aS'shed_NN'
p4848
aS'silverware_NN'
p4849
aS'drawer_NN'
p4850
aa(lp4851
S'shovel_NN'
p4852
aS'shed_NN'
p4853
aS'knives_NNS'
p4854
aS'drawer_NN'
p4855
aa(lp4856
S'shovel_NN'
p4857
aS'shed_NN'
p4858
aS'cereal_NN'
p4859
aS'cupboard_NN'
p4860
aa(lp4861
S'shovel_NN'
p4862
aS'shed_NN'
p4863
aS'milk_NN'
p4864
aS'fridge_NN'
p4865
aa(lp4866
S'shovel_NN'
p4867
aS'shed_NN'
p4868
aS'soda_NN'
p4869
aS'fridge_NN'
p4870
aa(lp4871
S'shovel_NN'
p4872
aS'shed_NN'
p4873
aS'crackers_NNS'
p4874
aS'cupboard_NN'
p4875
aa(lp4876
S'shovel_NN'
p4877
aS'shed_NN'
p4878
aS'car_NN'
p4879
aS'garage_NN'
p4880
aa(lp4881
S'shovel_NN'
p4882
aS'shed_NN'
p4883
aS'laundry_NN'
p4884
aS'hamper_VB'
p4885
aa(lp4886
S'shovel_NN'
p4887
aS'shed_NN'
p4888
aS'screwdriver_NN'
p4889
aS'toolbox_NN'
p4890
aa(lp4891
S'shovel_NN'
p4892
aS'shed_NN'
p4893
aS'hammer_NN'
p4894
aS'toolbox_NN'
p4895
aa(lp4896
S'shovel_NN'
p4897
aS'shed_NN'
p4898
aS'chainsaw_NN'
p4899
aS'garage_NN'
p4900
aa(lp4901
S'shovel_NN'
p4902
aS'shed_NN'
p4903
aS'rake_NN'
p4904
aS'shed_NN'
p4905
aa(lp4906
S'shovel_NN'
p4907
aS'shed_NN'
p4908
aS'money_NN'
p4909
aS'wallet_NN'
p4910
aa(lp4911
S'shovel_NN'
p4912
aS'shed_NN'
p4913
aS'plates_NNS'
p4914
aS'cupboard_NN'
p4915
aa(lp4916
S'shovel_NN'
p4917
aS'shed_NN'
p4918
aS'flowers_NNS'
p4919
aS'table_NN'
p4920
aa(lp4921
S'shovel_NN'
p4922
aS'shed_NN'
p4923
aS'popsicle_NN'
p4924
aS'freezer_NN'
p4925
aa(lp4926
S'shovel_NN'
p4927
aS'shed_NN'
p4928
aS'ice_NN'
p4929
aS'freezer_NN'
p4930
aa(lp4931
S'rake_NN'
p4932
aS'shed_NN'
p4933
aS'mayonnaise_NN'
p4934
aS'refrigerator_NN'
p4935
aa(lp4936
S'rake_NN'
p4937
aS'shed_NN'
p4938
aS'broom_NN'
p4939
aS'closet_NN'
p4940
aa(lp4941
S'rake_NN'
p4942
aS'shed_NN'
p4943
aS'detergent_NN'
p4944
aS'cupboard_NN'
p4945
aa(lp4946
S'rake_NN'
p4947
aS'shed_NN'
p4948
aS'butter_NN'
p4949
aS'refrigerator_NN'
p4950
aa(lp4951
S'rake_NN'
p4952
aS'shed_NN'
p4953
aS'toaster_NN'
p4954
aS'counter_NN'
p4955
aa(lp4956
S'rake_NN'
p4957
aS'shed_NN'
p4958
aS'water_NN'
p4959
aS'sink_VB'
p4960
aa(lp4961
S'rake_NN'
p4962
aS'shed_NN'
p4963
aS'computer_NN'
p4964
aS'desk_NN'
p4965
aa(lp4966
S'rake_NN'
p4967
aS'shed_NN'
p4968
aS'keyboard_NN'
p4969
aS'desk_NN'
p4970
aa(lp4971
S'rake_NN'
p4972
aS'shed_NN'
p4973
aS'tomato_NN'
p4974
aS'refrigerator_NN'
p4975
aa(lp4976
S'rake_NN'
p4977
aS'shed_NN'
p4978
aS'bread_NN'
p4979
aS'counter_NN'
p4980
aa(lp4981
S'rake_NN'
p4982
aS'shed_NN'
p4983
aS'sponge_NN'
p4984
aS'closet_NN'
p4985
aa(lp4986
S'rake_NN'
p4987
aS'shed_NN'
p4988
aS'book_NN'
p4989
aS'bookshelf_NN'
p4990
aa(lp4991
S'rake_NN'
p4992
aS'shed_NN'
p4993
aS'cushion_NN'
p4994
aS'sofa_NN'
p4995
aa(lp4996
S'rake_NN'
p4997
aS'shed_NN'
p4998
aS'pillow_NN'
p4999
aS'bed_NN'
p5000
aa(lp5001
S'rake_NN'
p5002
aS'shed_NN'
p5003
aS'cups_NNS'
p5004
aS'cupboard_NN'
p5005
aa(lp5006
S'rake_NN'
p5007
aS'shed_NN'
p5008
aS'clothes_NNS'
p5009
aS'dresser_NN'
p5010
aa(lp5011
S'rake_NN'
p5012
aS'shed_NN'
p5013
aS'coats_NNS'
p5014
aS'wardrobe_NN'
p5015
aa(lp5016
S'rake_NN'
p5017
aS'shed_NN'
p5018
aS'silverware_NN'
p5019
aS'drawer_NN'
p5020
aa(lp5021
S'rake_NN'
p5022
aS'shed_NN'
p5023
aS'knives_NNS'
p5024
aS'drawer_NN'
p5025
aa(lp5026
S'rake_NN'
p5027
aS'shed_NN'
p5028
aS'cereal_NN'
p5029
aS'cupboard_NN'
p5030
aa(lp5031
S'rake_NN'
p5032
aS'shed_NN'
p5033
aS'milk_NN'
p5034
aS'fridge_NN'
p5035
aa(lp5036
S'rake_NN'
p5037
aS'shed_NN'
p5038
aS'soda_NN'
p5039
aS'fridge_NN'
p5040
aa(lp5041
S'rake_NN'
p5042
aS'shed_NN'
p5043
aS'crackers_NNS'
p5044
aS'cupboard_NN'
p5045
aa(lp5046
S'rake_NN'
p5047
aS'shed_NN'
p5048
aS'car_NN'
p5049
aS'garage_NN'
p5050
aa(lp5051
S'rake_NN'
p5052
aS'shed_NN'
p5053
aS'laundry_NN'
p5054
aS'hamper_VB'
p5055
aa(lp5056
S'rake_NN'
p5057
aS'shed_NN'
p5058
aS'screwdriver_NN'
p5059
aS'toolbox_NN'
p5060
aa(lp5061
S'rake_NN'
p5062
aS'shed_NN'
p5063
aS'hammer_NN'
p5064
aS'toolbox_NN'
p5065
aa(lp5066
S'rake_NN'
p5067
aS'shed_NN'
p5068
aS'chainsaw_NN'
p5069
aS'garage_NN'
p5070
aa(lp5071
S'rake_NN'
p5072
aS'shed_NN'
p5073
aS'shovel_NN'
p5074
aS'shed_NN'
p5075
aa(lp5076
S'rake_NN'
p5077
aS'shed_NN'
p5078
aS'money_NN'
p5079
aS'wallet_NN'
p5080
aa(lp5081
S'rake_NN'
p5082
aS'shed_NN'
p5083
aS'plates_NNS'
p5084
aS'cupboard_NN'
p5085
aa(lp5086
S'rake_NN'
p5087
aS'shed_NN'
p5088
aS'flowers_NNS'
p5089
aS'table_NN'
p5090
aa(lp5091
S'rake_NN'
p5092
aS'shed_NN'
p5093
aS'popsicle_NN'
p5094
aS'freezer_NN'
p5095
aa(lp5096
S'rake_NN'
p5097
aS'shed_NN'
p5098
aS'ice_NN'
p5099
aS'freezer_NN'
p5100
aa(lp5101
S'money_NN'
p5102
aS'wallet_NN'
p5103
aS'mayonnaise_NN'
p5104
aS'refrigerator_NN'
p5105
aa(lp5106
S'money_NN'
p5107
aS'wallet_NN'
p5108
aS'broom_NN'
p5109
aS'closet_NN'
p5110
aa(lp5111
S'money_NN'
p5112
aS'wallet_NN'
p5113
aS'detergent_NN'
p5114
aS'cupboard_NN'
p5115
aa(lp5116
S'money_NN'
p5117
aS'wallet_NN'
p5118
aS'butter_NN'
p5119
aS'refrigerator_NN'
p5120
aa(lp5121
S'money_NN'
p5122
aS'wallet_NN'
p5123
aS'toaster_NN'
p5124
aS'counter_NN'
p5125
aa(lp5126
S'money_NN'
p5127
aS'wallet_NN'
p5128
aS'water_NN'
p5129
aS'sink_VB'
p5130
aa(lp5131
S'money_NN'
p5132
aS'wallet_NN'
p5133
aS'computer_NN'
p5134
aS'desk_NN'
p5135
aa(lp5136
S'money_NN'
p5137
aS'wallet_NN'
p5138
aS'keyboard_NN'
p5139
aS'desk_NN'
p5140
aa(lp5141
S'money_NN'
p5142
aS'wallet_NN'
p5143
aS'tomato_NN'
p5144
aS'refrigerator_NN'
p5145
aa(lp5146
S'money_NN'
p5147
aS'wallet_NN'
p5148
aS'bread_NN'
p5149
aS'counter_NN'
p5150
aa(lp5151
S'money_NN'
p5152
aS'wallet_NN'
p5153
aS'sponge_NN'
p5154
aS'closet_NN'
p5155
aa(lp5156
S'money_NN'
p5157
aS'wallet_NN'
p5158
aS'book_NN'
p5159
aS'bookshelf_NN'
p5160
aa(lp5161
S'money_NN'
p5162
aS'wallet_NN'
p5163
aS'cushion_NN'
p5164
aS'sofa_NN'
p5165
aa(lp5166
S'money_NN'
p5167
aS'wallet_NN'
p5168
aS'pillow_NN'
p5169
aS'bed_NN'
p5170
aa(lp5171
S'money_NN'
p5172
aS'wallet_NN'
p5173
aS'cups_NNS'
p5174
aS'cupboard_NN'
p5175
aa(lp5176
S'money_NN'
p5177
aS'wallet_NN'
p5178
aS'clothes_NNS'
p5179
aS'dresser_NN'
p5180
aa(lp5181
S'money_NN'
p5182
aS'wallet_NN'
p5183
aS'coats_NNS'
p5184
aS'wardrobe_NN'
p5185
aa(lp5186
S'money_NN'
p5187
aS'wallet_NN'
p5188
aS'silverware_NN'
p5189
aS'drawer_NN'
p5190
aa(lp5191
S'money_NN'
p5192
aS'wallet_NN'
p5193
aS'knives_NNS'
p5194
aS'drawer_NN'
p5195
aa(lp5196
S'money_NN'
p5197
aS'wallet_NN'
p5198
aS'cereal_NN'
p5199
aS'cupboard_NN'
p5200
aa(lp5201
S'money_NN'
p5202
aS'wallet_NN'
p5203
aS'milk_NN'
p5204
aS'fridge_NN'
p5205
aa(lp5206
S'money_NN'
p5207
aS'wallet_NN'
p5208
aS'soda_NN'
p5209
aS'fridge_NN'
p5210
aa(lp5211
S'money_NN'
p5212
aS'wallet_NN'
p5213
aS'crackers_NNS'
p5214
aS'cupboard_NN'
p5215
aa(lp5216
S'money_NN'
p5217
aS'wallet_NN'
p5218
aS'car_NN'
p5219
aS'garage_NN'
p5220
aa(lp5221
S'money_NN'
p5222
aS'wallet_NN'
p5223
aS'laundry_NN'
p5224
aS'hamper_VB'
p5225
aa(lp5226
S'money_NN'
p5227
aS'wallet_NN'
p5228
aS'screwdriver_NN'
p5229
aS'toolbox_NN'
p5230
aa(lp5231
S'money_NN'
p5232
aS'wallet_NN'
p5233
aS'hammer_NN'
p5234
aS'toolbox_NN'
p5235
aa(lp5236
S'money_NN'
p5237
aS'wallet_NN'
p5238
aS'chainsaw_NN'
p5239
aS'garage_NN'
p5240
aa(lp5241
S'money_NN'
p5242
aS'wallet_NN'
p5243
aS'shovel_NN'
p5244
aS'shed_NN'
p5245
aa(lp5246
S'money_NN'
p5247
aS'wallet_NN'
p5248
aS'rake_NN'
p5249
aS'shed_NN'
p5250
aa(lp5251
S'money_NN'
p5252
aS'wallet_NN'
p5253
aS'plates_NNS'
p5254
aS'cupboard_NN'
p5255
aa(lp5256
S'money_NN'
p5257
aS'wallet_NN'
p5258
aS'flowers_NNS'
p5259
aS'table_NN'
p5260
aa(lp5261
S'money_NN'
p5262
aS'wallet_NN'
p5263
aS'popsicle_NN'
p5264
aS'freezer_NN'
p5265
aa(lp5266
S'money_NN'
p5267
aS'wallet_NN'
p5268
aS'ice_NN'
p5269
aS'freezer_NN'
p5270
aa(lp5271
S'plates_NNS'
p5272
aS'cupboard_NN'
p5273
aS'mayonnaise_NN'
p5274
aS'refrigerator_NN'
p5275
aa(lp5276
S'plates_NNS'
p5277
aS'cupboard_NN'
p5278
aS'broom_NN'
p5279
aS'closet_NN'
p5280
aa(lp5281
S'plates_NNS'
p5282
aS'cupboard_NN'
p5283
aS'detergent_NN'
p5284
aS'cupboard_NN'
p5285
aa(lp5286
S'plates_NNS'
p5287
aS'cupboard_NN'
p5288
aS'butter_NN'
p5289
aS'refrigerator_NN'
p5290
aa(lp5291
S'plates_NNS'
p5292
aS'cupboard_NN'
p5293
aS'toaster_NN'
p5294
aS'counter_NN'
p5295
aa(lp5296
S'plates_NNS'
p5297
aS'cupboard_NN'
p5298
aS'water_NN'
p5299
aS'sink_VB'
p5300
aa(lp5301
S'plates_NNS'
p5302
aS'cupboard_NN'
p5303
aS'computer_NN'
p5304
aS'desk_NN'
p5305
aa(lp5306
S'plates_NNS'
p5307
aS'cupboard_NN'
p5308
aS'keyboard_NN'
p5309
aS'desk_NN'
p5310
aa(lp5311
S'plates_NNS'
p5312
aS'cupboard_NN'
p5313
aS'tomato_NN'
p5314
aS'refrigerator_NN'
p5315
aa(lp5316
S'plates_NNS'
p5317
aS'cupboard_NN'
p5318
aS'bread_NN'
p5319
aS'counter_NN'
p5320
aa(lp5321
S'plates_NNS'
p5322
aS'cupboard_NN'
p5323
aS'sponge_NN'
p5324
aS'closet_NN'
p5325
aa(lp5326
S'plates_NNS'
p5327
aS'cupboard_NN'
p5328
aS'book_NN'
p5329
aS'bookshelf_NN'
p5330
aa(lp5331
S'plates_NNS'
p5332
aS'cupboard_NN'
p5333
aS'cushion_NN'
p5334
aS'sofa_NN'
p5335
aa(lp5336
S'plates_NNS'
p5337
aS'cupboard_NN'
p5338
aS'pillow_NN'
p5339
aS'bed_NN'
p5340
aa(lp5341
S'plates_NNS'
p5342
aS'cupboard_NN'
p5343
aS'cups_NNS'
p5344
aS'cupboard_NN'
p5345
aa(lp5346
S'plates_NNS'
p5347
aS'cupboard_NN'
p5348
aS'clothes_NNS'
p5349
aS'dresser_NN'
p5350
aa(lp5351
S'plates_NNS'
p5352
aS'cupboard_NN'
p5353
aS'coats_NNS'
p5354
aS'wardrobe_NN'
p5355
aa(lp5356
S'plates_NNS'
p5357
aS'cupboard_NN'
p5358
aS'silverware_NN'
p5359
aS'drawer_NN'
p5360
aa(lp5361
S'plates_NNS'
p5362
aS'cupboard_NN'
p5363
aS'knives_NNS'
p5364
aS'drawer_NN'
p5365
aa(lp5366
S'plates_NNS'
p5367
aS'cupboard_NN'
p5368
aS'cereal_NN'
p5369
aS'cupboard_NN'
p5370
aa(lp5371
S'plates_NNS'
p5372
aS'cupboard_NN'
p5373
aS'milk_NN'
p5374
aS'fridge_NN'
p5375
aa(lp5376
S'plates_NNS'
p5377
aS'cupboard_NN'
p5378
aS'soda_NN'
p5379
aS'fridge_NN'
p5380
aa(lp5381
S'plates_NNS'
p5382
aS'cupboard_NN'
p5383
aS'crackers_NNS'
p5384
aS'cupboard_NN'
p5385
aa(lp5386
S'plates_NNS'
p5387
aS'cupboard_NN'
p5388
aS'car_NN'
p5389
aS'garage_NN'
p5390
aa(lp5391
S'plates_NNS'
p5392
aS'cupboard_NN'
p5393
aS'laundry_NN'
p5394
aS'hamper_VB'
p5395
aa(lp5396
S'plates_NNS'
p5397
aS'cupboard_NN'
p5398
aS'screwdriver_NN'
p5399
aS'toolbox_NN'
p5400
aa(lp5401
S'plates_NNS'
p5402
aS'cupboard_NN'
p5403
aS'hammer_NN'
p5404
aS'toolbox_NN'
p5405
aa(lp5406
S'plates_NNS'
p5407
aS'cupboard_NN'
p5408
aS'chainsaw_NN'
p5409
aS'garage_NN'
p5410
aa(lp5411
S'plates_NNS'
p5412
aS'cupboard_NN'
p5413
aS'shovel_NN'
p5414
aS'shed_NN'
p5415
aa(lp5416
S'plates_NNS'
p5417
aS'cupboard_NN'
p5418
aS'rake_NN'
p5419
aS'shed_NN'
p5420
aa(lp5421
S'plates_NNS'
p5422
aS'cupboard_NN'
p5423
aS'money_NN'
p5424
aS'wallet_NN'
p5425
aa(lp5426
S'plates_NNS'
p5427
aS'cupboard_NN'
p5428
aS'flowers_NNS'
p5429
aS'table_NN'
p5430
aa(lp5431
S'plates_NNS'
p5432
aS'cupboard_NN'
p5433
aS'popsicle_NN'
p5434
aS'freezer_NN'
p5435
aa(lp5436
S'plates_NNS'
p5437
aS'cupboard_NN'
p5438
aS'ice_NN'
p5439
aS'freezer_NN'
p5440
aa(lp5441
S'flowers_NNS'
p5442
aS'table_NN'
p5443
aS'mayonnaise_NN'
p5444
aS'refrigerator_NN'
p5445
aa(lp5446
S'flowers_NNS'
p5447
aS'table_NN'
p5448
aS'broom_NN'
p5449
aS'closet_NN'
p5450
aa(lp5451
S'flowers_NNS'
p5452
aS'table_NN'
p5453
aS'detergent_NN'
p5454
aS'cupboard_NN'
p5455
aa(lp5456
S'flowers_NNS'
p5457
aS'table_NN'
p5458
aS'butter_NN'
p5459
aS'refrigerator_NN'
p5460
aa(lp5461
S'flowers_NNS'
p5462
aS'table_NN'
p5463
aS'toaster_NN'
p5464
aS'counter_NN'
p5465
aa(lp5466
S'flowers_NNS'
p5467
aS'table_NN'
p5468
aS'water_NN'
p5469
aS'sink_VB'
p5470
aa(lp5471
S'flowers_NNS'
p5472
aS'table_NN'
p5473
aS'computer_NN'
p5474
aS'desk_NN'
p5475
aa(lp5476
S'flowers_NNS'
p5477
aS'table_NN'
p5478
aS'keyboard_NN'
p5479
aS'desk_NN'
p5480
aa(lp5481
S'flowers_NNS'
p5482
aS'table_NN'
p5483
aS'tomato_NN'
p5484
aS'refrigerator_NN'
p5485
aa(lp5486
S'flowers_NNS'
p5487
aS'table_NN'
p5488
aS'bread_NN'
p5489
aS'counter_NN'
p5490
aa(lp5491
S'flowers_NNS'
p5492
aS'table_NN'
p5493
aS'sponge_NN'
p5494
aS'closet_NN'
p5495
aa(lp5496
S'flowers_NNS'
p5497
aS'table_NN'
p5498
aS'book_NN'
p5499
aS'bookshelf_NN'
p5500
aa(lp5501
S'flowers_NNS'
p5502
aS'table_NN'
p5503
aS'cushion_NN'
p5504
aS'sofa_NN'
p5505
aa(lp5506
S'flowers_NNS'
p5507
aS'table_NN'
p5508
aS'pillow_NN'
p5509
aS'bed_NN'
p5510
aa(lp5511
S'flowers_NNS'
p5512
aS'table_NN'
p5513
aS'cups_NNS'
p5514
aS'cupboard_NN'
p5515
aa(lp5516
S'flowers_NNS'
p5517
aS'table_NN'
p5518
aS'clothes_NNS'
p5519
aS'dresser_NN'
p5520
aa(lp5521
S'flowers_NNS'
p5522
aS'table_NN'
p5523
aS'coats_NNS'
p5524
aS'wardrobe_NN'
p5525
aa(lp5526
S'flowers_NNS'
p5527
aS'table_NN'
p5528
aS'silverware_NN'
p5529
aS'drawer_NN'
p5530
aa(lp5531
S'flowers_NNS'
p5532
aS'table_NN'
p5533
aS'knives_NNS'
p5534
aS'drawer_NN'
p5535
aa(lp5536
S'flowers_NNS'
p5537
aS'table_NN'
p5538
aS'cereal_NN'
p5539
aS'cupboard_NN'
p5540
aa(lp5541
S'flowers_NNS'
p5542
aS'table_NN'
p5543
aS'milk_NN'
p5544
aS'fridge_NN'
p5545
aa(lp5546
S'flowers_NNS'
p5547
aS'table_NN'
p5548
aS'soda_NN'
p5549
aS'fridge_NN'
p5550
aa(lp5551
S'flowers_NNS'
p5552
aS'table_NN'
p5553
aS'crackers_NNS'
p5554
aS'cupboard_NN'
p5555
aa(lp5556
S'flowers_NNS'
p5557
aS'table_NN'
p5558
aS'car_NN'
p5559
aS'garage_NN'
p5560
aa(lp5561
S'flowers_NNS'
p5562
aS'table_NN'
p5563
aS'laundry_NN'
p5564
aS'hamper_VB'
p5565
aa(lp5566
S'flowers_NNS'
p5567
aS'table_NN'
p5568
aS'screwdriver_NN'
p5569
aS'toolbox_NN'
p5570
aa(lp5571
S'flowers_NNS'
p5572
aS'table_NN'
p5573
aS'hammer_NN'
p5574
aS'toolbox_NN'
p5575
aa(lp5576
S'flowers_NNS'
p5577
aS'table_NN'
p5578
aS'chainsaw_NN'
p5579
aS'garage_NN'
p5580
aa(lp5581
S'flowers_NNS'
p5582
aS'table_NN'
p5583
aS'shovel_NN'
p5584
aS'shed_NN'
p5585
aa(lp5586
S'flowers_NNS'
p5587
aS'table_NN'
p5588
aS'rake_NN'
p5589
aS'shed_NN'
p5590
aa(lp5591
S'flowers_NNS'
p5592
aS'table_NN'
p5593
aS'money_NN'
p5594
aS'wallet_NN'
p5595
aa(lp5596
S'flowers_NNS'
p5597
aS'table_NN'
p5598
aS'plates_NNS'
p5599
aS'cupboard_NN'
p5600
aa(lp5601
S'flowers_NNS'
p5602
aS'table_NN'
p5603
aS'popsicle_NN'
p5604
aS'freezer_NN'
p5605
aa(lp5606
S'flowers_NNS'
p5607
aS'table_NN'
p5608
aS'ice_NN'
p5609
aS'freezer_NN'
p5610
aa(lp5611
S'popsicle_NN'
p5612
aS'freezer_NN'
p5613
aS'mayonnaise_NN'
p5614
aS'refrigerator_NN'
p5615
aa(lp5616
S'popsicle_NN'
p5617
aS'freezer_NN'
p5618
aS'broom_NN'
p5619
aS'closet_NN'
p5620
aa(lp5621
S'popsicle_NN'
p5622
aS'freezer_NN'
p5623
aS'detergent_NN'
p5624
aS'cupboard_NN'
p5625
aa(lp5626
S'popsicle_NN'
p5627
aS'freezer_NN'
p5628
aS'butter_NN'
p5629
aS'refrigerator_NN'
p5630
aa(lp5631
S'popsicle_NN'
p5632
aS'freezer_NN'
p5633
aS'toaster_NN'
p5634
aS'counter_NN'
p5635
aa(lp5636
S'popsicle_NN'
p5637
aS'freezer_NN'
p5638
aS'water_NN'
p5639
aS'sink_VB'
p5640
aa(lp5641
S'popsicle_NN'
p5642
aS'freezer_NN'
p5643
aS'computer_NN'
p5644
aS'desk_NN'
p5645
aa(lp5646
S'popsicle_NN'
p5647
aS'freezer_NN'
p5648
aS'keyboard_NN'
p5649
aS'desk_NN'
p5650
aa(lp5651
S'popsicle_NN'
p5652
aS'freezer_NN'
p5653
aS'tomato_NN'
p5654
aS'refrigerator_NN'
p5655
aa(lp5656
S'popsicle_NN'
p5657
aS'freezer_NN'
p5658
aS'bread_NN'
p5659
aS'counter_NN'
p5660
aa(lp5661
S'popsicle_NN'
p5662
aS'freezer_NN'
p5663
aS'sponge_NN'
p5664
aS'closet_NN'
p5665
aa(lp5666
S'popsicle_NN'
p5667
aS'freezer_NN'
p5668
aS'book_NN'
p5669
aS'bookshelf_NN'
p5670
aa(lp5671
S'popsicle_NN'
p5672
aS'freezer_NN'
p5673
aS'cushion_NN'
p5674
aS'sofa_NN'
p5675
aa(lp5676
S'popsicle_NN'
p5677
aS'freezer_NN'
p5678
aS'pillow_NN'
p5679
aS'bed_NN'
p5680
aa(lp5681
S'popsicle_NN'
p5682
aS'freezer_NN'
p5683
aS'cups_NNS'
p5684
aS'cupboard_NN'
p5685
aa(lp5686
S'popsicle_NN'
p5687
aS'freezer_NN'
p5688
aS'clothes_NNS'
p5689
aS'dresser_NN'
p5690
aa(lp5691
S'popsicle_NN'
p5692
aS'freezer_NN'
p5693
aS'coats_NNS'
p5694
aS'wardrobe_NN'
p5695
aa(lp5696
S'popsicle_NN'
p5697
aS'freezer_NN'
p5698
aS'silverware_NN'
p5699
aS'drawer_NN'
p5700
aa(lp5701
S'popsicle_NN'
p5702
aS'freezer_NN'
p5703
aS'knives_NNS'
p5704
aS'drawer_NN'
p5705
aa(lp5706
S'popsicle_NN'
p5707
aS'freezer_NN'
p5708
aS'cereal_NN'
p5709
aS'cupboard_NN'
p5710
aa(lp5711
S'popsicle_NN'
p5712
aS'freezer_NN'
p5713
aS'milk_NN'
p5714
aS'fridge_NN'
p5715
aa(lp5716
S'popsicle_NN'
p5717
aS'freezer_NN'
p5718
aS'soda_NN'
p5719
aS'fridge_NN'
p5720
aa(lp5721
S'popsicle_NN'
p5722
aS'freezer_NN'
p5723
aS'crackers_NNS'
p5724
aS'cupboard_NN'
p5725
aa(lp5726
S'popsicle_NN'
p5727
aS'freezer_NN'
p5728
aS'car_NN'
p5729
aS'garage_NN'
p5730
aa(lp5731
S'popsicle_NN'
p5732
aS'freezer_NN'
p5733
aS'laundry_NN'
p5734
aS'hamper_VB'
p5735
aa(lp5736
S'popsicle_NN'
p5737
aS'freezer_NN'
p5738
aS'screwdriver_NN'
p5739
aS'toolbox_NN'
p5740
aa(lp5741
S'popsicle_NN'
p5742
aS'freezer_NN'
p5743
aS'hammer_NN'
p5744
aS'toolbox_NN'
p5745
aa(lp5746
S'popsicle_NN'
p5747
aS'freezer_NN'
p5748
aS'chainsaw_NN'
p5749
aS'garage_NN'
p5750
aa(lp5751
S'popsicle_NN'
p5752
aS'freezer_NN'
p5753
aS'shovel_NN'
p5754
aS'shed_NN'
p5755
aa(lp5756
S'popsicle_NN'
p5757
aS'freezer_NN'
p5758
aS'rake_NN'
p5759
aS'shed_NN'
p5760
aa(lp5761
S'popsicle_NN'
p5762
aS'freezer_NN'
p5763
aS'money_NN'
p5764
aS'wallet_NN'
p5765
aa(lp5766
S'popsicle_NN'
p5767
aS'freezer_NN'
p5768
aS'plates_NNS'
p5769
aS'cupboard_NN'
p5770
aa(lp5771
S'popsicle_NN'
p5772
aS'freezer_NN'
p5773
aS'flowers_NNS'
p5774
aS'table_NN'
p5775
aa(lp5776
S'popsicle_NN'
p5777
aS'freezer_NN'
p5778
aS'ice_NN'
p5779
aS'freezer_NN'
p5780
aa(lp5781
S'ice_NN'
p5782
aS'freezer_NN'
p5783
aS'mayonnaise_NN'
p5784
aS'refrigerator_NN'
p5785
aa(lp5786
S'ice_NN'
p5787
aS'freezer_NN'
p5788
aS'broom_NN'
p5789
aS'closet_NN'
p5790
aa(lp5791
S'ice_NN'
p5792
aS'freezer_NN'
p5793
aS'detergent_NN'
p5794
aS'cupboard_NN'
p5795
aa(lp5796
S'ice_NN'
p5797
aS'freezer_NN'
p5798
aS'butter_NN'
p5799
aS'refrigerator_NN'
p5800
aa(lp5801
S'ice_NN'
p5802
aS'freezer_NN'
p5803
aS'toaster_NN'
p5804
aS'counter_NN'
p5805
aa(lp5806
S'ice_NN'
p5807
aS'freezer_NN'
p5808
aS'water_NN'
p5809
aS'sink_VB'
p5810
aa(lp5811
S'ice_NN'
p5812
aS'freezer_NN'
p5813
aS'computer_NN'
p5814
aS'desk_NN'
p5815
aa(lp5816
S'ice_NN'
p5817
aS'freezer_NN'
p5818
aS'keyboard_NN'
p5819
aS'desk_NN'
p5820
aa(lp5821
S'ice_NN'
p5822
aS'freezer_NN'
p5823
aS'tomato_NN'
p5824
aS'refrigerator_NN'
p5825
aa(lp5826
S'ice_NN'
p5827
aS'freezer_NN'
p5828
aS'bread_NN'
p5829
aS'counter_NN'
p5830
aa(lp5831
S'ice_NN'
p5832
aS'freezer_NN'
p5833
aS'sponge_NN'
p5834
aS'closet_NN'
p5835
aa(lp5836
S'ice_NN'
p5837
aS'freezer_NN'
p5838
aS'book_NN'
p5839
aS'bookshelf_NN'
p5840
aa(lp5841
S'ice_NN'
p5842
aS'freezer_NN'
p5843
aS'cushion_NN'
p5844
aS'sofa_NN'
p5845
aa(lp5846
S'ice_NN'
p5847
aS'freezer_NN'
p5848
aS'pillow_NN'
p5849
aS'bed_NN'
p5850
aa(lp5851
S'ice_NN'
p5852
aS'freezer_NN'
p5853
aS'cups_NNS'
p5854
aS'cupboard_NN'
p5855
aa(lp5856
S'ice_NN'
p5857
aS'freezer_NN'
p5858
aS'clothes_NNS'
p5859
aS'dresser_NN'
p5860
aa(lp5861
S'ice_NN'
p5862
aS'freezer_NN'
p5863
aS'coats_NNS'
p5864
aS'wardrobe_NN'
p5865
aa(lp5866
S'ice_NN'
p5867
aS'freezer_NN'
p5868
aS'silverware_NN'
p5869
aS'drawer_NN'
p5870
aa(lp5871
S'ice_NN'
p5872
aS'freezer_NN'
p5873
aS'knives_NNS'
p5874
aS'drawer_NN'
p5875
aa(lp5876
S'ice_NN'
p5877
aS'freezer_NN'
p5878
aS'cereal_NN'
p5879
aS'cupboard_NN'
p5880
aa(lp5881
S'ice_NN'
p5882
aS'freezer_NN'
p5883
aS'milk_NN'
p5884
aS'fridge_NN'
p5885
aa(lp5886
S'ice_NN'
p5887
aS'freezer_NN'
p5888
aS'soda_NN'
p5889
aS'fridge_NN'
p5890
aa(lp5891
S'ice_NN'
p5892
aS'freezer_NN'
p5893
aS'crackers_NNS'
p5894
aS'cupboard_NN'
p5895
aa(lp5896
S'ice_NN'
p5897
aS'freezer_NN'
p5898
aS'car_NN'
p5899
aS'garage_NN'
p5900
aa(lp5901
S'ice_NN'
p5902
aS'freezer_NN'
p5903
aS'laundry_NN'
p5904
aS'hamper_VB'
p5905
aa(lp5906
S'ice_NN'
p5907
aS'freezer_NN'
p5908
aS'screwdriver_NN'
p5909
aS'toolbox_NN'
p5910
aa(lp5911
S'ice_NN'
p5912
aS'freezer_NN'
p5913
aS'hammer_NN'
p5914
aS'toolbox_NN'
p5915
aa(lp5916
S'ice_NN'
p5917
aS'freezer_NN'
p5918
aS'chainsaw_NN'
p5919
aS'garage_NN'
p5920
aa(lp5921
S'ice_NN'
p5922
aS'freezer_NN'
p5923
aS'shovel_NN'
p5924
aS'shed_NN'
p5925
aa(lp5926
S'ice_NN'
p5927
aS'freezer_NN'
p5928
aS'rake_NN'
p5929
aS'shed_NN'
p5930
aa(lp5931
S'ice_NN'
p5932
aS'freezer_NN'
p5933
aS'money_NN'
p5934
aS'wallet_NN'
p5935
aa(lp5936
S'ice_NN'
p5937
aS'freezer_NN'
p5938
aS'plates_NNS'
p5939
aS'cupboard_NN'
p5940
aa(lp5941
S'ice_NN'
p5942
aS'freezer_NN'
p5943
aS'flowers_NNS'
p5944
aS'table_NN'
p5945
aa(lp5946
S'ice_NN'
p5947
aS'freezer_NN'
p5948
aS'popsicle_NN'
p5949
aS'freezer_NN'
p5950
aa.