(lp0
(lp1
S'refrigerator_NN'
p2
aS'kitchen_NN'
p3
aS'bed_NN'
p4
aS'bedroom_NN'
p5
aa(lp6
S'refrigerator_NN'
p7
aS'kitchen_NN'
p8
aS'toilet_NN'
p9
aS'bathroom_NN'
p10
aa(lp11
S'refrigerator_NN'
p12
aS'kitchen_NN'
p13
aS'toys_NNS'
p14
aS'playroom_NN'
p15
aa(lp16
S'refrigerator_NN'
p17
aS'kitchen_NN'
p18
aS'crib_NN'
p19
aS'nursery_NN'
p20
aa(lp21
S'refrigerator_NN'
p22
aS'kitchen_NN'
p23
aS'diapers_NNS'
p24
aS'nursery_NN'
p25
aa(lp26
S'refrigerator_NN'
p27
aS'kitchen_NN'
p28
aS'cupboard_NN'
p29
aS'kitchen_NN'
p30
aa(lp31
S'refrigerator_NN'
p32
aS'kitchen_NN'
p33
aS'table_NN'
p34
aS'kitchen_NN'
p35
aa(lp36
S'refrigerator_NN'
p37
aS'kitchen_NN'
p38
aS'desk_NN'
p39
aS'office_NN'
p40
aa(lp41
S'refrigerator_NN'
p42
aS'kitchen_NN'
p43
aS'couch_NN'
p44
aS'parlor_NN'
p45
aa(lp46
S'refrigerator_NN'
p47
aS'kitchen_NN'
p48
aS'closet_NN'
p49
aS'hallway_NN'
p50
aa(lp51
S'refrigerator_NN'
p52
aS'kitchen_NN'
p53
aS'bookshelf_NN'
p54
aS'library_NN'
p55
aa(lp56
S'refrigerator_NN'
p57
aS'kitchen_NN'
p58
aS'chandelier_NN'
p59
aS'ballroom_NN'
p60
aa(lp61
S'refrigerator_NN'
p62
aS'kitchen_NN'
p63
aS'shed_NN'
p64
aS'garden_NN'
p65
aa(lp66
S'refrigerator_NN'
p67
aS'kitchen_NN'
p68
aS'recliner_NN'
p69
aS'den_NN'
p70
aa(lp71
S'refrigerator_NN'
p72
aS'kitchen_NN'
p73
aS'shower_NN'
p74
aS'bathroom_NN'
p75
aa(lp76
S'refrigerator_NN'
p77
aS'kitchen_NN'
p78
aS'boxes_NNS'
p79
aS'attic_NN'
p80
aa(lp81
S'refrigerator_NN'
p82
aS'kitchen_NN'
p83
aS'sink_VB'
p84
aS'bathroom_NN'
p85
aa(lp86
S'bed_NN'
p87
aS'bedroom_NN'
p88
aS'refrigerator_NN'
p89
aS'kitchen_NN'
p90
aa(lp91
S'bed_NN'
p92
aS'bedroom_NN'
p93
aS'toilet_NN'
p94
aS'bathroom_NN'
p95
aa(lp96
S'bed_NN'
p97
aS'bedroom_NN'
p98
aS'toys_NNS'
p99
aS'playroom_NN'
p100
aa(lp101
S'bed_NN'
p102
aS'bedroom_NN'
p103
aS'crib_NN'
p104
aS'nursery_NN'
p105
aa(lp106
S'bed_NN'
p107
aS'bedroom_NN'
p108
aS'diapers_NNS'
p109
aS'nursery_NN'
p110
aa(lp111
S'bed_NN'
p112
aS'bedroom_NN'
p113
aS'cupboard_NN'
p114
aS'kitchen_NN'
p115
aa(lp116
S'bed_NN'
p117
aS'bedroom_NN'
p118
aS'table_NN'
p119
aS'kitchen_NN'
p120
aa(lp121
S'bed_NN'
p122
aS'bedroom_NN'
p123
aS'desk_NN'
p124
aS'office_NN'
p125
aa(lp126
S'bed_NN'
p127
aS'bedroom_NN'
p128
aS'couch_NN'
p129
aS'parlor_NN'
p130
aa(lp131
S'bed_NN'
p132
aS'bedroom_NN'
p133
aS'closet_NN'
p134
aS'hallway_NN'
p135
aa(lp136
S'bed_NN'
p137
aS'bedroom_NN'
p138
aS'bookshelf_NN'
p139
aS'library_NN'
p140
aa(lp141
S'bed_NN'
p142
aS'bedroom_NN'
p143
aS'chandelier_NN'
p144
aS'ballroom_NN'
p145
aa(lp146
S'bed_NN'
p147
aS'bedroom_NN'
p148
aS'shed_NN'
p149
aS'garden_NN'
p150
aa(lp151
S'bed_NN'
p152
aS'bedroom_NN'
p153
aS'recliner_NN'
p154
aS'den_NN'
p155
aa(lp156
S'bed_NN'
p157
aS'bedroom_NN'
p158
aS'shower_NN'
p159
aS'bathroom_NN'
p160
aa(lp161
S'bed_NN'
p162
aS'bedroom_NN'
p163
aS'boxes_NNS'
p164
aS'attic_NN'
p165
aa(lp166
S'bed_NN'
p167
aS'bedroom_NN'
p168
aS'sink_VB'
p169
aS'bathroom_NN'
p170
aa(lp171
S'toilet_NN'
p172
aS'bathroom_NN'
p173
aS'refrigerator_NN'
p174
aS'kitchen_NN'
p175
aa(lp176
S'toilet_NN'
p177
aS'bathroom_NN'
p178
aS'bed_NN'
p179
aS'bedroom_NN'
p180
aa(lp181
S'toilet_NN'
p182
aS'bathroom_NN'
p183
aS'toys_NNS'
p184
aS'playroom_NN'
p185
aa(lp186
S'toilet_NN'
p187
aS'bathroom_NN'
p188
aS'crib_NN'
p189
aS'nursery_NN'
p190
aa(lp191
S'toilet_NN'
p192
aS'bathroom_NN'
p193
aS'diapers_NNS'
p194
aS'nursery_NN'
p195
aa(lp196
S'toilet_NN'
p197
aS'bathroom_NN'
p198
aS'cupboard_NN'
p199
aS'kitchen_NN'
p200
aa(lp201
S'toilet_NN'
p202
aS'bathroom_NN'
p203
aS'table_NN'
p204
aS'kitchen_NN'
p205
aa(lp206
S'toilet_NN'
p207
aS'bathroom_NN'
p208
aS'desk_NN'
p209
aS'office_NN'
p210
aa(lp211
S'toilet_NN'
p212
aS'bathroom_NN'
p213
aS'couch_NN'
p214
aS'parlor_NN'
p215
aa(lp216
S'toilet_NN'
p217
aS'bathroom_NN'
p218
aS'closet_NN'
p219
aS'hallway_NN'
p220
aa(lp221
S'toilet_NN'
p222
aS'bathroom_NN'
p223
aS'bookshelf_NN'
p224
aS'library_NN'
p225
aa(lp226
S'toilet_NN'
p227
aS'bathroom_NN'
p228
aS'chandelier_NN'
p229
aS'ballroom_NN'
p230
aa(lp231
S'toilet_NN'
p232
aS'bathroom_NN'
p233
aS'shed_NN'
p234
aS'garden_NN'
p235
aa(lp236
S'toilet_NN'
p237
aS'bathroom_NN'
p238
aS'recliner_NN'
p239
aS'den_NN'
p240
aa(lp241
S'toilet_NN'
p242
aS'bathroom_NN'
p243
aS'shower_NN'
p244
aS'bathroom_NN'
p245
aa(lp246
S'toilet_NN'
p247
aS'bathroom_NN'
p248
aS'boxes_NNS'
p249
aS'attic_NN'
p250
aa(lp251
S'toilet_NN'
p252
aS'bathroom_NN'
p253
aS'sink_VB'
p254
aS'bathroom_NN'
p255
aa(lp256
S'toys_NNS'
p257
aS'playroom_NN'
p258
aS'refrigerator_NN'
p259
aS'kitchen_NN'
p260
aa(lp261
S'toys_NNS'
p262
aS'playroom_NN'
p263
aS'bed_NN'
p264
aS'bedroom_NN'
p265
aa(lp266
S'toys_NNS'
p267
aS'playroom_NN'
p268
aS'toilet_NN'
p269
aS'bathroom_NN'
p270
aa(lp271
S'toys_NNS'
p272
aS'playroom_NN'
p273
aS'crib_NN'
p274
aS'nursery_NN'
p275
aa(lp276
S'toys_NNS'
p277
aS'playroom_NN'
p278
aS'diapers_NNS'
p279
aS'nursery_NN'
p280
aa(lp281
S'toys_NNS'
p282
aS'playroom_NN'
p283
aS'cupboard_NN'
p284
aS'kitchen_NN'
p285
aa(lp286
S'toys_NNS'
p287
aS'playroom_NN'
p288
aS'table_NN'
p289
aS'kitchen_NN'
p290
aa(lp291
S'toys_NNS'
p292
aS'playroom_NN'
p293
aS'desk_NN'
p294
aS'office_NN'
p295
aa(lp296
S'toys_NNS'
p297
aS'playroom_NN'
p298
aS'couch_NN'
p299
aS'parlor_NN'
p300
aa(lp301
S'toys_NNS'
p302
aS'playroom_NN'
p303
aS'closet_NN'
p304
aS'hallway_NN'
p305
aa(lp306
S'toys_NNS'
p307
aS'playroom_NN'
p308
aS'bookshelf_NN'
p309
aS'library_NN'
p310
aa(lp311
S'toys_NNS'
p312
aS'playroom_NN'
p313
aS'chandelier_NN'
p314
aS'ballroom_NN'
p315
aa(lp316
S'toys_NNS'
p317
aS'playroom_NN'
p318
aS'shed_NN'
p319
aS'garden_NN'
p320
aa(lp321
S'toys_NNS'
p322
aS'playroom_NN'
p323
aS'recliner_NN'
p324
aS'den_NN'
p325
aa(lp326
S'toys_NNS'
p327
aS'playroom_NN'
p328
aS'shower_NN'
p329
aS'bathroom_NN'
p330
aa(lp331
S'toys_NNS'
p332
aS'playroom_NN'
p333
aS'boxes_NNS'
p334
aS'attic_NN'
p335
aa(lp336
S'toys_NNS'
p337
aS'playroom_NN'
p338
aS'sink_VB'
p339
aS'bathroom_NN'
p340
aa(lp341
S'crib_NN'
p342
aS'nursery_NN'
p343
aS'refrigerator_NN'
p344
aS'kitchen_NN'
p345
aa(lp346
S'crib_NN'
p347
aS'nursery_NN'
p348
aS'bed_NN'
p349
aS'bedroom_NN'
p350
aa(lp351
S'crib_NN'
p352
aS'nursery_NN'
p353
aS'toilet_NN'
p354
aS'bathroom_NN'
p355
aa(lp356
S'crib_NN'
p357
aS'nursery_NN'
p358
aS'toys_NNS'
p359
aS'playroom_NN'
p360
aa(lp361
S'crib_NN'
p362
aS'nursery_NN'
p363
aS'diapers_NNS'
p364
aS'nursery_NN'
p365
aa(lp366
S'crib_NN'
p367
aS'nursery_NN'
p368
aS'cupboard_NN'
p369
aS'kitchen_NN'
p370
aa(lp371
S'crib_NN'
p372
aS'nursery_NN'
p373
aS'table_NN'
p374
aS'kitchen_NN'
p375
aa(lp376
S'crib_NN'
p377
aS'nursery_NN'
p378
aS'desk_NN'
p379
aS'office_NN'
p380
aa(lp381
S'crib_NN'
p382
aS'nursery_NN'
p383
aS'couch_NN'
p384
aS'parlor_NN'
p385
aa(lp386
S'crib_NN'
p387
aS'nursery_NN'
p388
aS'closet_NN'
p389
aS'hallway_NN'
p390
aa(lp391
S'crib_NN'
p392
aS'nursery_NN'
p393
aS'bookshelf_NN'
p394
aS'library_NN'
p395
aa(lp396
S'crib_NN'
p397
aS'nursery_NN'
p398
aS'chandelier_NN'
p399
aS'ballroom_NN'
p400
aa(lp401
S'crib_NN'
p402
aS'nursery_NN'
p403
aS'shed_NN'
p404
aS'garden_NN'
p405
aa(lp406
S'crib_NN'
p407
aS'nursery_NN'
p408
aS'recliner_NN'
p409
aS'den_NN'
p410
aa(lp411
S'crib_NN'
p412
aS'nursery_NN'
p413
aS'shower_NN'
p414
aS'bathroom_NN'
p415
aa(lp416
S'crib_NN'
p417
aS'nursery_NN'
p418
aS'boxes_NNS'
p419
aS'attic_NN'
p420
aa(lp421
S'crib_NN'
p422
aS'nursery_NN'
p423
aS'sink_VB'
p424
aS'bathroom_NN'
p425
aa(lp426
S'diapers_NNS'
p427
aS'nursery_NN'
p428
aS'refrigerator_NN'
p429
aS'kitchen_NN'
p430
aa(lp431
S'diapers_NNS'
p432
aS'nursery_NN'
p433
aS'bed_NN'
p434
aS'bedroom_NN'
p435
aa(lp436
S'diapers_NNS'
p437
aS'nursery_NN'
p438
aS'toilet_NN'
p439
aS'bathroom_NN'
p440
aa(lp441
S'diapers_NNS'
p442
aS'nursery_NN'
p443
aS'toys_NNS'
p444
aS'playroom_NN'
p445
aa(lp446
S'diapers_NNS'
p447
aS'nursery_NN'
p448
aS'crib_NN'
p449
aS'nursery_NN'
p450
aa(lp451
S'diapers_NNS'
p452
aS'nursery_NN'
p453
aS'cupboard_NN'
p454
aS'kitchen_NN'
p455
aa(lp456
S'diapers_NNS'
p457
aS'nursery_NN'
p458
aS'table_NN'
p459
aS'kitchen_NN'
p460
aa(lp461
S'diapers_NNS'
p462
aS'nursery_NN'
p463
aS'desk_NN'
p464
aS'office_NN'
p465
aa(lp466
S'diapers_NNS'
p467
aS'nursery_NN'
p468
aS'couch_NN'
p469
aS'parlor_NN'
p470
aa(lp471
S'diapers_NNS'
p472
aS'nursery_NN'
p473
aS'closet_NN'
p474
aS'hallway_NN'
p475
aa(lp476
S'diapers_NNS'
p477
aS'nursery_NN'
p478
aS'bookshelf_NN'
p479
aS'library_NN'
p480
aa(lp481
S'diapers_NNS'
p482
aS'nursery_NN'
p483
aS'chandelier_NN'
p484
aS'ballroom_NN'
p485
aa(lp486
S'diapers_NNS'
p487
aS'nursery_NN'
p488
aS'shed_NN'
p489
aS'garden_NN'
p490
aa(lp491
S'diapers_NNS'
p492
aS'nursery_NN'
p493
aS'recliner_NN'
p494
aS'den_NN'
p495
aa(lp496
S'diapers_NNS'
p497
aS'nursery_NN'
p498
aS'shower_NN'
p499
aS'bathroom_NN'
p500
aa(lp501
S'diapers_NNS'
p502
aS'nursery_NN'
p503
aS'boxes_NNS'
p504
aS'attic_NN'
p505
aa(lp506
S'diapers_NNS'
p507
aS'nursery_NN'
p508
aS'sink_VB'
p509
aS'bathroom_NN'
p510
aa(lp511
S'cupboard_NN'
p512
aS'kitchen_NN'
p513
aS'refrigerator_NN'
p514
aS'kitchen_NN'
p515
aa(lp516
S'cupboard_NN'
p517
aS'kitchen_NN'
p518
aS'bed_NN'
p519
aS'bedroom_NN'
p520
aa(lp521
S'cupboard_NN'
p522
aS'kitchen_NN'
p523
aS'toilet_NN'
p524
aS'bathroom_NN'
p525
aa(lp526
S'cupboard_NN'
p527
aS'kitchen_NN'
p528
aS'toys_NNS'
p529
aS'playroom_NN'
p530
aa(lp531
S'cupboard_NN'
p532
aS'kitchen_NN'
p533
aS'crib_NN'
p534
aS'nursery_NN'
p535
aa(lp536
S'cupboard_NN'
p537
aS'kitchen_NN'
p538
aS'diapers_NNS'
p539
aS'nursery_NN'
p540
aa(lp541
S'cupboard_NN'
p542
aS'kitchen_NN'
p543
aS'table_NN'
p544
aS'kitchen_NN'
p545
aa(lp546
S'cupboard_NN'
p547
aS'kitchen_NN'
p548
aS'desk_NN'
p549
aS'office_NN'
p550
aa(lp551
S'cupboard_NN'
p552
aS'kitchen_NN'
p553
aS'couch_NN'
p554
aS'parlor_NN'
p555
aa(lp556
S'cupboard_NN'
p557
aS'kitchen_NN'
p558
aS'closet_NN'
p559
aS'hallway_NN'
p560
aa(lp561
S'cupboard_NN'
p562
aS'kitchen_NN'
p563
aS'bookshelf_NN'
p564
aS'library_NN'
p565
aa(lp566
S'cupboard_NN'
p567
aS'kitchen_NN'
p568
aS'chandelier_NN'
p569
aS'ballroom_NN'
p570
aa(lp571
S'cupboard_NN'
p572
aS'kitchen_NN'
p573
aS'shed_NN'
p574
aS'garden_NN'
p575
aa(lp576
S'cupboard_NN'
p577
aS'kitchen_NN'
p578
aS'recliner_NN'
p579
aS'den_NN'
p580
aa(lp581
S'cupboard_NN'
p582
aS'kitchen_NN'
p583
aS'shower_NN'
p584
aS'bathroom_NN'
p585
aa(lp586
S'cupboard_NN'
p587
aS'kitchen_NN'
p588
aS'boxes_NNS'
p589
aS'attic_NN'
p590
aa(lp591
S'cupboard_NN'
p592
aS'kitchen_NN'
p593
aS'sink_VB'
p594
aS'bathroom_NN'
p595
aa(lp596
S'table_NN'
p597
aS'kitchen_NN'
p598
aS'refrigerator_NN'
p599
aS'kitchen_NN'
p600
aa(lp601
S'table_NN'
p602
aS'kitchen_NN'
p603
aS'bed_NN'
p604
aS'bedroom_NN'
p605
aa(lp606
S'table_NN'
p607
aS'kitchen_NN'
p608
aS'toilet_NN'
p609
aS'bathroom_NN'
p610
aa(lp611
S'table_NN'
p612
aS'kitchen_NN'
p613
aS'toys_NNS'
p614
aS'playroom_NN'
p615
aa(lp616
S'table_NN'
p617
aS'kitchen_NN'
p618
aS'crib_NN'
p619
aS'nursery_NN'
p620
aa(lp621
S'table_NN'
p622
aS'kitchen_NN'
p623
aS'diapers_NNS'
p624
aS'nursery_NN'
p625
aa(lp626
S'table_NN'
p627
aS'kitchen_NN'
p628
aS'cupboard_NN'
p629
aS'kitchen_NN'
p630
aa(lp631
S'table_NN'
p632
aS'kitchen_NN'
p633
aS'desk_NN'
p634
aS'office_NN'
p635
aa(lp636
S'table_NN'
p637
aS'kitchen_NN'
p638
aS'couch_NN'
p639
aS'parlor_NN'
p640
aa(lp641
S'table_NN'
p642
aS'kitchen_NN'
p643
aS'closet_NN'
p644
aS'hallway_NN'
p645
aa(lp646
S'table_NN'
p647
aS'kitchen_NN'
p648
aS'bookshelf_NN'
p649
aS'library_NN'
p650
aa(lp651
S'table_NN'
p652
aS'kitchen_NN'
p653
aS'chandelier_NN'
p654
aS'ballroom_NN'
p655
aa(lp656
S'table_NN'
p657
aS'kitchen_NN'
p658
aS'shed_NN'
p659
aS'garden_NN'
p660
aa(lp661
S'table_NN'
p662
aS'kitchen_NN'
p663
aS'recliner_NN'
p664
aS'den_NN'
p665
aa(lp666
S'table_NN'
p667
aS'kitchen_NN'
p668
aS'shower_NN'
p669
aS'bathroom_NN'
p670
aa(lp671
S'table_NN'
p672
aS'kitchen_NN'
p673
aS'boxes_NNS'
p674
aS'attic_NN'
p675
aa(lp676
S'table_NN'
p677
aS'kitchen_NN'
p678
aS'sink_VB'
p679
aS'bathroom_NN'
p680
aa(lp681
S'desk_NN'
p682
aS'office_NN'
p683
aS'refrigerator_NN'
p684
aS'kitchen_NN'
p685
aa(lp686
S'desk_NN'
p687
aS'office_NN'
p688
aS'bed_NN'
p689
aS'bedroom_NN'
p690
aa(lp691
S'desk_NN'
p692
aS'office_NN'
p693
aS'toilet_NN'
p694
aS'bathroom_NN'
p695
aa(lp696
S'desk_NN'
p697
aS'office_NN'
p698
aS'toys_NNS'
p699
aS'playroom_NN'
p700
aa(lp701
S'desk_NN'
p702
aS'office_NN'
p703
aS'crib_NN'
p704
aS'nursery_NN'
p705
aa(lp706
S'desk_NN'
p707
aS'office_NN'
p708
aS'diapers_NNS'
p709
aS'nursery_NN'
p710
aa(lp711
S'desk_NN'
p712
aS'office_NN'
p713
aS'cupboard_NN'
p714
aS'kitchen_NN'
p715
aa(lp716
S'desk_NN'
p717
aS'office_NN'
p718
aS'table_NN'
p719
aS'kitchen_NN'
p720
aa(lp721
S'desk_NN'
p722
aS'office_NN'
p723
aS'couch_NN'
p724
aS'parlor_NN'
p725
aa(lp726
S'desk_NN'
p727
aS'office_NN'
p728
aS'closet_NN'
p729
aS'hallway_NN'
p730
aa(lp731
S'desk_NN'
p732
aS'office_NN'
p733
aS'bookshelf_NN'
p734
aS'library_NN'
p735
aa(lp736
S'desk_NN'
p737
aS'office_NN'
p738
aS'chandelier_NN'
p739
aS'ballroom_NN'
p740
aa(lp741
S'desk_NN'
p742
aS'office_NN'
p743
aS'shed_NN'
p744
aS'garden_NN'
p745
aa(lp746
S'desk_NN'
p747
aS'office_NN'
p748
aS'recliner_NN'
p749
aS'den_NN'
p750
aa(lp751
S'desk_NN'
p752
aS'office_NN'
p753
aS'shower_NN'
p754
aS'bathroom_NN'
p755
aa(lp756
S'desk_NN'
p757
aS'office_NN'
p758
aS'boxes_NNS'
p759
aS'attic_NN'
p760
aa(lp761
S'desk_NN'
p762
aS'office_NN'
p763
aS'sink_VB'
p764
aS'bathroom_NN'
p765
aa(lp766
S'couch_NN'
p767
aS'parlor_NN'
p768
aS'refrigerator_NN'
p769
aS'kitchen_NN'
p770
aa(lp771
S'couch_NN'
p772
aS'parlor_NN'
p773
aS'bed_NN'
p774
aS'bedroom_NN'
p775
aa(lp776
S'couch_NN'
p777
aS'parlor_NN'
p778
aS'toilet_NN'
p779
aS'bathroom_NN'
p780
aa(lp781
S'couch_NN'
p782
aS'parlor_NN'
p783
aS'toys_NNS'
p784
aS'playroom_NN'
p785
aa(lp786
S'couch_NN'
p787
aS'parlor_NN'
p788
aS'crib_NN'
p789
aS'nursery_NN'
p790
aa(lp791
S'couch_NN'
p792
aS'parlor_NN'
p793
aS'diapers_NNS'
p794
aS'nursery_NN'
p795
aa(lp796
S'couch_NN'
p797
aS'parlor_NN'
p798
aS'cupboard_NN'
p799
aS'kitchen_NN'
p800
aa(lp801
S'couch_NN'
p802
aS'parlor_NN'
p803
aS'table_NN'
p804
aS'kitchen_NN'
p805
aa(lp806
S'couch_NN'
p807
aS'parlor_NN'
p808
aS'desk_NN'
p809
aS'office_NN'
p810
aa(lp811
S'couch_NN'
p812
aS'parlor_NN'
p813
aS'closet_NN'
p814
aS'hallway_NN'
p815
aa(lp816
S'couch_NN'
p817
aS'parlor_NN'
p818
aS'bookshelf_NN'
p819
aS'library_NN'
p820
aa(lp821
S'couch_NN'
p822
aS'parlor_NN'
p823
aS'chandelier_NN'
p824
aS'ballroom_NN'
p825
aa(lp826
S'couch_NN'
p827
aS'parlor_NN'
p828
aS'shed_NN'
p829
aS'garden_NN'
p830
aa(lp831
S'couch_NN'
p832
aS'parlor_NN'
p833
aS'recliner_NN'
p834
aS'den_NN'
p835
aa(lp836
S'couch_NN'
p837
aS'parlor_NN'
p838
aS'shower_NN'
p839
aS'bathroom_NN'
p840
aa(lp841
S'couch_NN'
p842
aS'parlor_NN'
p843
aS'boxes_NNS'
p844
aS'attic_NN'
p845
aa(lp846
S'couch_NN'
p847
aS'parlor_NN'
p848
aS'sink_VB'
p849
aS'bathroom_NN'
p850
aa(lp851
S'closet_NN'
p852
aS'hallway_NN'
p853
aS'refrigerator_NN'
p854
aS'kitchen_NN'
p855
aa(lp856
S'closet_NN'
p857
aS'hallway_NN'
p858
aS'bed_NN'
p859
aS'bedroom_NN'
p860
aa(lp861
S'closet_NN'
p862
aS'hallway_NN'
p863
aS'toilet_NN'
p864
aS'bathroom_NN'
p865
aa(lp866
S'closet_NN'
p867
aS'hallway_NN'
p868
aS'toys_NNS'
p869
aS'playroom_NN'
p870
aa(lp871
S'closet_NN'
p872
aS'hallway_NN'
p873
aS'crib_NN'
p874
aS'nursery_NN'
p875
aa(lp876
S'closet_NN'
p877
aS'hallway_NN'
p878
aS'diapers_NNS'
p879
aS'nursery_NN'
p880
aa(lp881
S'closet_NN'
p882
aS'hallway_NN'
p883
aS'cupboard_NN'
p884
aS'kitchen_NN'
p885
aa(lp886
S'closet_NN'
p887
aS'hallway_NN'
p888
aS'table_NN'
p889
aS'kitchen_NN'
p890
aa(lp891
S'closet_NN'
p892
aS'hallway_NN'
p893
aS'desk_NN'
p894
aS'office_NN'
p895
aa(lp896
S'closet_NN'
p897
aS'hallway_NN'
p898
aS'couch_NN'
p899
aS'parlor_NN'
p900
aa(lp901
S'closet_NN'
p902
aS'hallway_NN'
p903
aS'bookshelf_NN'
p904
aS'library_NN'
p905
aa(lp906
S'closet_NN'
p907
aS'hallway_NN'
p908
aS'chandelier_NN'
p909
aS'ballroom_NN'
p910
aa(lp911
S'closet_NN'
p912
aS'hallway_NN'
p913
aS'shed_NN'
p914
aS'garden_NN'
p915
aa(lp916
S'closet_NN'
p917
aS'hallway_NN'
p918
aS'recliner_NN'
p919
aS'den_NN'
p920
aa(lp921
S'closet_NN'
p922
aS'hallway_NN'
p923
aS'shower_NN'
p924
aS'bathroom_NN'
p925
aa(lp926
S'closet_NN'
p927
aS'hallway_NN'
p928
aS'boxes_NNS'
p929
aS'attic_NN'
p930
aa(lp931
S'closet_NN'
p932
aS'hallway_NN'
p933
aS'sink_VB'
p934
aS'bathroom_NN'
p935
aa(lp936
S'bookshelf_NN'
p937
aS'library_NN'
p938
aS'refrigerator_NN'
p939
aS'kitchen_NN'
p940
aa(lp941
S'bookshelf_NN'
p942
aS'library_NN'
p943
aS'bed_NN'
p944
aS'bedroom_NN'
p945
aa(lp946
S'bookshelf_NN'
p947
aS'library_NN'
p948
aS'toilet_NN'
p949
aS'bathroom_NN'
p950
aa(lp951
S'bookshelf_NN'
p952
aS'library_NN'
p953
aS'toys_NNS'
p954
aS'playroom_NN'
p955
aa(lp956
S'bookshelf_NN'
p957
aS'library_NN'
p958
aS'crib_NN'
p959
aS'nursery_NN'
p960
aa(lp961
S'bookshelf_NN'
p962
aS'library_NN'
p963
aS'diapers_NNS'
p964
aS'nursery_NN'
p965
aa(lp966
S'bookshelf_NN'
p967
aS'library_NN'
p968
aS'cupboard_NN'
p969
aS'kitchen_NN'
p970
aa(lp971
S'bookshelf_NN'
p972
aS'library_NN'
p973
aS'table_NN'
p974
aS'kitchen_NN'
p975
aa(lp976
S'bookshelf_NN'
p977
aS'library_NN'
p978
aS'desk_NN'
p979
aS'office_NN'
p980
aa(lp981
S'bookshelf_NN'
p982
aS'library_NN'
p983
aS'couch_NN'
p984
aS'parlor_NN'
p985
aa(lp986
S'bookshelf_NN'
p987
aS'library_NN'
p988
aS'closet_NN'
p989
aS'hallway_NN'
p990
aa(lp991
S'bookshelf_NN'
p992
aS'library_NN'
p993
aS'chandelier_NN'
p994
aS'ballroom_NN'
p995
aa(lp996
S'bookshelf_NN'
p997
aS'library_NN'
p998
aS'shed_NN'
p999
aS'garden_NN'
p1000
aa(lp1001
S'bookshelf_NN'
p1002
aS'library_NN'
p1003
aS'recliner_NN'
p1004
aS'den_NN'
p1005
aa(lp1006
S'bookshelf_NN'
p1007
aS'library_NN'
p1008
aS'shower_NN'
p1009
aS'bathroom_NN'
p1010
aa(lp1011
S'bookshelf_NN'
p1012
aS'library_NN'
p1013
aS'boxes_NNS'
p1014
aS'attic_NN'
p1015
aa(lp1016
S'bookshelf_NN'
p1017
aS'library_NN'
p1018
aS'sink_VB'
p1019
aS'bathroom_NN'
p1020
aa(lp1021
S'chandelier_NN'
p1022
aS'ballroom_NN'
p1023
aS'refrigerator_NN'
p1024
aS'kitchen_NN'
p1025
aa(lp1026
S'chandelier_NN'
p1027
aS'ballroom_NN'
p1028
aS'bed_NN'
p1029
aS'bedroom_NN'
p1030
aa(lp1031
S'chandelier_NN'
p1032
aS'ballroom_NN'
p1033
aS'toilet_NN'
p1034
aS'bathroom_NN'
p1035
aa(lp1036
S'chandelier_NN'
p1037
aS'ballroom_NN'
p1038
aS'toys_NNS'
p1039
aS'playroom_NN'
p1040
aa(lp1041
S'chandelier_NN'
p1042
aS'ballroom_NN'
p1043
aS'crib_NN'
p1044
aS'nursery_NN'
p1045
aa(lp1046
S'chandelier_NN'
p1047
aS'ballroom_NN'
p1048
aS'diapers_NNS'
p1049
aS'nursery_NN'
p1050
aa(lp1051
S'chandelier_NN'
p1052
aS'ballroom_NN'
p1053
aS'cupboard_NN'
p1054
aS'kitchen_NN'
p1055
aa(lp1056
S'chandelier_NN'
p1057
aS'ballroom_NN'
p1058
aS'table_NN'
p1059
aS'kitchen_NN'
p1060
aa(lp1061
S'chandelier_NN'
p1062
aS'ballroom_NN'
p1063
aS'desk_NN'
p1064
aS'office_NN'
p1065
aa(lp1066
S'chandelier_NN'
p1067
aS'ballroom_NN'
p1068
aS'couch_NN'
p1069
aS'parlor_NN'
p1070
aa(lp1071
S'chandelier_NN'
p1072
aS'ballroom_NN'
p1073
aS'closet_NN'
p1074
aS'hallway_NN'
p1075
aa(lp1076
S'chandelier_NN'
p1077
aS'ballroom_NN'
p1078
aS'bookshelf_NN'
p1079
aS'library_NN'
p1080
aa(lp1081
S'chandelier_NN'
p1082
aS'ballroom_NN'
p1083
aS'shed_NN'
p1084
aS'garden_NN'
p1085
aa(lp1086
S'chandelier_NN'
p1087
aS'ballroom_NN'
p1088
aS'recliner_NN'
p1089
aS'den_NN'
p1090
aa(lp1091
S'chandelier_NN'
p1092
aS'ballroom_NN'
p1093
aS'shower_NN'
p1094
aS'bathroom_NN'
p1095
aa(lp1096
S'chandelier_NN'
p1097
aS'ballroom_NN'
p1098
aS'boxes_NNS'
p1099
aS'attic_NN'
p1100
aa(lp1101
S'chandelier_NN'
p1102
aS'ballroom_NN'
p1103
aS'sink_VB'
p1104
aS'bathroom_NN'
p1105
aa(lp1106
S'shed_NN'
p1107
aS'garden_NN'
p1108
aS'refrigerator_NN'
p1109
aS'kitchen_NN'
p1110
aa(lp1111
S'shed_NN'
p1112
aS'garden_NN'
p1113
aS'bed_NN'
p1114
aS'bedroom_NN'
p1115
aa(lp1116
S'shed_NN'
p1117
aS'garden_NN'
p1118
aS'toilet_NN'
p1119
aS'bathroom_NN'
p1120
aa(lp1121
S'shed_NN'
p1122
aS'garden_NN'
p1123
aS'toys_NNS'
p1124
aS'playroom_NN'
p1125
aa(lp1126
S'shed_NN'
p1127
aS'garden_NN'
p1128
aS'crib_NN'
p1129
aS'nursery_NN'
p1130
aa(lp1131
S'shed_NN'
p1132
aS'garden_NN'
p1133
aS'diapers_NNS'
p1134
aS'nursery_NN'
p1135
aa(lp1136
S'shed_NN'
p1137
aS'garden_NN'
p1138
aS'cupboard_NN'
p1139
aS'kitchen_NN'
p1140
aa(lp1141
S'shed_NN'
p1142
aS'garden_NN'
p1143
aS'table_NN'
p1144
aS'kitchen_NN'
p1145
aa(lp1146
S'shed_NN'
p1147
aS'garden_NN'
p1148
aS'desk_NN'
p1149
aS'office_NN'
p1150
aa(lp1151
S'shed_NN'
p1152
aS'garden_NN'
p1153
aS'couch_NN'
p1154
aS'parlor_NN'
p1155
aa(lp1156
S'shed_NN'
p1157
aS'garden_NN'
p1158
aS'closet_NN'
p1159
aS'hallway_NN'
p1160
aa(lp1161
S'shed_NN'
p1162
aS'garden_NN'
p1163
aS'bookshelf_NN'
p1164
aS'library_NN'
p1165
aa(lp1166
S'shed_NN'
p1167
aS'garden_NN'
p1168
aS'chandelier_NN'
p1169
aS'ballroom_NN'
p1170
aa(lp1171
S'shed_NN'
p1172
aS'garden_NN'
p1173
aS'recliner_NN'
p1174
aS'den_NN'
p1175
aa(lp1176
S'shed_NN'
p1177
aS'garden_NN'
p1178
aS'shower_NN'
p1179
aS'bathroom_NN'
p1180
aa(lp1181
S'shed_NN'
p1182
aS'garden_NN'
p1183
aS'boxes_NNS'
p1184
aS'attic_NN'
p1185
aa(lp1186
S'shed_NN'
p1187
aS'garden_NN'
p1188
aS'sink_VB'
p1189
aS'bathroom_NN'
p1190
aa(lp1191
S'recliner_NN'
p1192
aS'den_NN'
p1193
aS'refrigerator_NN'
p1194
aS'kitchen_NN'
p1195
aa(lp1196
S'recliner_NN'
p1197
aS'den_NN'
p1198
aS'bed_NN'
p1199
aS'bedroom_NN'
p1200
aa(lp1201
S'recliner_NN'
p1202
aS'den_NN'
p1203
aS'toilet_NN'
p1204
aS'bathroom_NN'
p1205
aa(lp1206
S'recliner_NN'
p1207
aS'den_NN'
p1208
aS'toys_NNS'
p1209
aS'playroom_NN'
p1210
aa(lp1211
S'recliner_NN'
p1212
aS'den_NN'
p1213
aS'crib_NN'
p1214
aS'nursery_NN'
p1215
aa(lp1216
S'recliner_NN'
p1217
aS'den_NN'
p1218
aS'diapers_NNS'
p1219
aS'nursery_NN'
p1220
aa(lp1221
S'recliner_NN'
p1222
aS'den_NN'
p1223
aS'cupboard_NN'
p1224
aS'kitchen_NN'
p1225
aa(lp1226
S'recliner_NN'
p1227
aS'den_NN'
p1228
aS'table_NN'
p1229
aS'kitchen_NN'
p1230
aa(lp1231
S'recliner_NN'
p1232
aS'den_NN'
p1233
aS'desk_NN'
p1234
aS'office_NN'
p1235
aa(lp1236
S'recliner_NN'
p1237
aS'den_NN'
p1238
aS'couch_NN'
p1239
aS'parlor_NN'
p1240
aa(lp1241
S'recliner_NN'
p1242
aS'den_NN'
p1243
aS'closet_NN'
p1244
aS'hallway_NN'
p1245
aa(lp1246
S'recliner_NN'
p1247
aS'den_NN'
p1248
aS'bookshelf_NN'
p1249
aS'library_NN'
p1250
aa(lp1251
S'recliner_NN'
p1252
aS'den_NN'
p1253
aS'chandelier_NN'
p1254
aS'ballroom_NN'
p1255
aa(lp1256
S'recliner_NN'
p1257
aS'den_NN'
p1258
aS'shed_NN'
p1259
aS'garden_NN'
p1260
aa(lp1261
S'recliner_NN'
p1262
aS'den_NN'
p1263
aS'shower_NN'
p1264
aS'bathroom_NN'
p1265
aa(lp1266
S'recliner_NN'
p1267
aS'den_NN'
p1268
aS'boxes_NNS'
p1269
aS'attic_NN'
p1270
aa(lp1271
S'recliner_NN'
p1272
aS'den_NN'
p1273
aS'sink_VB'
p1274
aS'bathroom_NN'
p1275
aa(lp1276
S'shower_NN'
p1277
aS'bathroom_NN'
p1278
aS'refrigerator_NN'
p1279
aS'kitchen_NN'
p1280
aa(lp1281
S'shower_NN'
p1282
aS'bathroom_NN'
p1283
aS'bed_NN'
p1284
aS'bedroom_NN'
p1285
aa(lp1286
S'shower_NN'
p1287
aS'bathroom_NN'
p1288
aS'toilet_NN'
p1289
aS'bathroom_NN'
p1290
aa(lp1291
S'shower_NN'
p1292
aS'bathroom_NN'
p1293
aS'toys_NNS'
p1294
aS'playroom_NN'
p1295
aa(lp1296
S'shower_NN'
p1297
aS'bathroom_NN'
p1298
aS'crib_NN'
p1299
aS'nursery_NN'
p1300
aa(lp1301
S'shower_NN'
p1302
aS'bathroom_NN'
p1303
aS'diapers_NNS'
p1304
aS'nursery_NN'
p1305
aa(lp1306
S'shower_NN'
p1307
aS'bathroom_NN'
p1308
aS'cupboard_NN'
p1309
aS'kitchen_NN'
p1310
aa(lp1311
S'shower_NN'
p1312
aS'bathroom_NN'
p1313
aS'table_NN'
p1314
aS'kitchen_NN'
p1315
aa(lp1316
S'shower_NN'
p1317
aS'bathroom_NN'
p1318
aS'desk_NN'
p1319
aS'office_NN'
p1320
aa(lp1321
S'shower_NN'
p1322
aS'bathroom_NN'
p1323
aS'couch_NN'
p1324
aS'parlor_NN'
p1325
aa(lp1326
S'shower_NN'
p1327
aS'bathroom_NN'
p1328
aS'closet_NN'
p1329
aS'hallway_NN'
p1330
aa(lp1331
S'shower_NN'
p1332
aS'bathroom_NN'
p1333
aS'bookshelf_NN'
p1334
aS'library_NN'
p1335
aa(lp1336
S'shower_NN'
p1337
aS'bathroom_NN'
p1338
aS'chandelier_NN'
p1339
aS'ballroom_NN'
p1340
aa(lp1341
S'shower_NN'
p1342
aS'bathroom_NN'
p1343
aS'shed_NN'
p1344
aS'garden_NN'
p1345
aa(lp1346
S'shower_NN'
p1347
aS'bathroom_NN'
p1348
aS'recliner_NN'
p1349
aS'den_NN'
p1350
aa(lp1351
S'shower_NN'
p1352
aS'bathroom_NN'
p1353
aS'boxes_NNS'
p1354
aS'attic_NN'
p1355
aa(lp1356
S'shower_NN'
p1357
aS'bathroom_NN'
p1358
aS'sink_VB'
p1359
aS'bathroom_NN'
p1360
aa(lp1361
S'boxes_NNS'
p1362
aS'attic_NN'
p1363
aS'refrigerator_NN'
p1364
aS'kitchen_NN'
p1365
aa(lp1366
S'boxes_NNS'
p1367
aS'attic_NN'
p1368
aS'bed_NN'
p1369
aS'bedroom_NN'
p1370
aa(lp1371
S'boxes_NNS'
p1372
aS'attic_NN'
p1373
aS'toilet_NN'
p1374
aS'bathroom_NN'
p1375
aa(lp1376
S'boxes_NNS'
p1377
aS'attic_NN'
p1378
aS'toys_NNS'
p1379
aS'playroom_NN'
p1380
aa(lp1381
S'boxes_NNS'
p1382
aS'attic_NN'
p1383
aS'crib_NN'
p1384
aS'nursery_NN'
p1385
aa(lp1386
S'boxes_NNS'
p1387
aS'attic_NN'
p1388
aS'diapers_NNS'
p1389
aS'nursery_NN'
p1390
aa(lp1391
S'boxes_NNS'
p1392
aS'attic_NN'
p1393
aS'cupboard_NN'
p1394
aS'kitchen_NN'
p1395
aa(lp1396
S'boxes_NNS'
p1397
aS'attic_NN'
p1398
aS'table_NN'
p1399
aS'kitchen_NN'
p1400
aa(lp1401
S'boxes_NNS'
p1402
aS'attic_NN'
p1403
aS'desk_NN'
p1404
aS'office_NN'
p1405
aa(lp1406
S'boxes_NNS'
p1407
aS'attic_NN'
p1408
aS'couch_NN'
p1409
aS'parlor_NN'
p1410
aa(lp1411
S'boxes_NNS'
p1412
aS'attic_NN'
p1413
aS'closet_NN'
p1414
aS'hallway_NN'
p1415
aa(lp1416
S'boxes_NNS'
p1417
aS'attic_NN'
p1418
aS'bookshelf_NN'
p1419
aS'library_NN'
p1420
aa(lp1421
S'boxes_NNS'
p1422
aS'attic_NN'
p1423
aS'chandelier_NN'
p1424
aS'ballroom_NN'
p1425
aa(lp1426
S'boxes_NNS'
p1427
aS'attic_NN'
p1428
aS'shed_NN'
p1429
aS'garden_NN'
p1430
aa(lp1431
S'boxes_NNS'
p1432
aS'attic_NN'
p1433
aS'recliner_NN'
p1434
aS'den_NN'
p1435
aa(lp1436
S'boxes_NNS'
p1437
aS'attic_NN'
p1438
aS'shower_NN'
p1439
aS'bathroom_NN'
p1440
aa(lp1441
S'boxes_NNS'
p1442
aS'attic_NN'
p1443
aS'sink_VB'
p1444
aS'bathroom_NN'
p1445
aa(lp1446
S'sink_VB'
p1447
aS'bathroom_NN'
p1448
aS'refrigerator_NN'
p1449
aS'kitchen_NN'
p1450
aa(lp1451
S'sink_VB'
p1452
aS'bathroom_NN'
p1453
aS'bed_NN'
p1454
aS'bedroom_NN'
p1455
aa(lp1456
S'sink_VB'
p1457
aS'bathroom_NN'
p1458
aS'toilet_NN'
p1459
aS'bathroom_NN'
p1460
aa(lp1461
S'sink_VB'
p1462
aS'bathroom_NN'
p1463
aS'toys_NNS'
p1464
aS'playroom_NN'
p1465
aa(lp1466
S'sink_VB'
p1467
aS'bathroom_NN'
p1468
aS'crib_NN'
p1469
aS'nursery_NN'
p1470
aa(lp1471
S'sink_VB'
p1472
aS'bathroom_NN'
p1473
aS'diapers_NNS'
p1474
aS'nursery_NN'
p1475
aa(lp1476
S'sink_VB'
p1477
aS'bathroom_NN'
p1478
aS'cupboard_NN'
p1479
aS'kitchen_NN'
p1480
aa(lp1481
S'sink_VB'
p1482
aS'bathroom_NN'
p1483
aS'table_NN'
p1484
aS'kitchen_NN'
p1485
aa(lp1486
S'sink_VB'
p1487
aS'bathroom_NN'
p1488
aS'desk_NN'
p1489
aS'office_NN'
p1490
aa(lp1491
S'sink_VB'
p1492
aS'bathroom_NN'
p1493
aS'couch_NN'
p1494
aS'parlor_NN'
p1495
aa(lp1496
S'sink_VB'
p1497
aS'bathroom_NN'
p1498
aS'closet_NN'
p1499
aS'hallway_NN'
p1500
aa(lp1501
S'sink_VB'
p1502
aS'bathroom_NN'
p1503
aS'bookshelf_NN'
p1504
aS'library_NN'
p1505
aa(lp1506
S'sink_VB'
p1507
aS'bathroom_NN'
p1508
aS'chandelier_NN'
p1509
aS'ballroom_NN'
p1510
aa(lp1511
S'sink_VB'
p1512
aS'bathroom_NN'
p1513
aS'shed_NN'
p1514
aS'garden_NN'
p1515
aa(lp1516
S'sink_VB'
p1517
aS'bathroom_NN'
p1518
aS'recliner_NN'
p1519
aS'den_NN'
p1520
aa(lp1521
S'sink_VB'
p1522
aS'bathroom_NN'
p1523
aS'shower_NN'
p1524
aS'bathroom_NN'
p1525
aa(lp1526
S'sink_VB'
p1527
aS'bathroom_NN'
p1528
aS'boxes_NNS'
p1529
aS'attic_NN'
p1530
aa.