(lp0
(lp1
S'cut_VB'
p2
aS'knife_NN'
p3
aS'cut_VB'
p4
aS'scissors_NNS'
p5
aa(lp6
g2
ag3
aS'dig_VB'
p7
aS'shovel_NN'
p8
aa(lp9
g2
ag3
aS'sweep_VB'
p10
aS'broom_NN'
p11
aa(lp12
g2
ag3
aS'unlock_VB'
p13
aS'key_NN'
p14
aa(lp15
g2
ag3
aS'stir_VB'
p16
aS'spoon_NN'
p17
aa(lp18
g2
ag3
aS'wash_VB'
p19
aS'soap_NN'
p20
aa(lp21
g2
ag3
aS'wash_VB'
p22
aS'washcloth_NN'
p23
aa(lp24
g2
ag3
aS'vacuum_VB'
p25
aS'vacuum_NN'
p26
aa(lp27
g2
ag3
aS'spread_VB'
p28
aS'knife_NN'
p29
aa(lp30
g2
ag3
aS'hit_VB'
p31
aS'hammer_NN'
p32
aa(lp33
g2
ag3
aS'mop_VB'
p34
aS'mop_NN'
p35
aa(lp36
g2
ag3
aS'iron_VB'
p37
aS'iron_NN'
p38
aa(lp39
g2
ag3
aS'cook_VB'
p40
aS'pan_NN'
p41
aa(lp42
g2
ag3
aS'cook_VB'
p43
aS'stove_NN'
p44
aa(lp45
g2
ag3
aS'bake_VB'
p46
aS'oven_NN'
p47
aa(lp48
g2
ag3
aS'toast_VB'
p49
aS'toaster_NN'
p50
aa(lp51
g2
ag3
aS'crack_VB'
p52
aS'nutcracker_NN'
p53
aa(lp54
g2
ag3
aS'drill_VB'
p55
aS'drill_NN'
p56
aa(lp57
g2
ag3
aS'pull_VB'
p58
aS'pliers_NNS'
p59
aa(lp60
g2
ag3
aS'clamp_VB'
p61
aS'clamp_NN'
p62
aa(lp63
g2
ag3
aS'type_VB'
p64
aS'keyboard_NN'
p65
aa(lp66
g2
ag3
aS'eat_VB'
p67
aS'fork_NN'
p68
aa(lp69
g2
ag3
aS'eat_VB'
p70
aS'spoon_NN'
p71
aa(lp72
g2
ag3
aS'cut_VB'
p73
aS'sword_NN'
p74
aa(lp75
g2
ag3
aS'cut_VB'
p76
aS'glass_NN'
p77
aa(lp78
g2
ag3
aS'wash_VB'
p79
aS'detergent_NN'
p80
aa(lp81
g2
ag3
aS'scrub_VB'
p82
aS'brush_NN'
p83
aa(lp84
g2
ag3
aS'wash_VB'
p85
aS'rag_NN'
p86
aa(lp87
g2
ag3
aS'dry_VB'
p88
aS'cloth_NN'
p89
aa(lp90
g2
ag3
aS'dry_VB'
p91
aS'blowdryer_NN'
p92
aa(lp93
g4
ag5
ag2
ag3
aa(lp94
g4
ag5
ag7
ag8
aa(lp95
g4
ag5
ag10
ag11
aa(lp96
g4
ag5
ag13
ag14
aa(lp97
g4
ag5
ag16
ag17
aa(lp98
g4
ag5
ag19
ag20
aa(lp99
g4
ag5
ag22
ag23
aa(lp100
g4
ag5
ag25
ag26
aa(lp101
g4
ag5
ag28
ag29
aa(lp102
g4
ag5
ag31
ag32
aa(lp103
g4
ag5
ag34
ag35
aa(lp104
g4
ag5
ag37
ag38
aa(lp105
g4
ag5
ag40
ag41
aa(lp106
g4
ag5
ag43
ag44
aa(lp107
g4
ag5
ag46
ag47
aa(lp108
g4
ag5
ag49
ag50
aa(lp109
g4
ag5
ag52
ag53
aa(lp110
g4
ag5
ag55
ag56
aa(lp111
g4
ag5
ag58
ag59
aa(lp112
g4
ag5
ag61
ag62
aa(lp113
g4
ag5
ag64
ag65
aa(lp114
g4
ag5
ag67
ag68
aa(lp115
g4
ag5
ag70
ag71
aa(lp116
g4
ag5
ag73
ag74
aa(lp117
g4
ag5
ag76
ag77
aa(lp118
g4
ag5
ag79
ag80
aa(lp119
g4
ag5
ag82
ag83
aa(lp120
g4
ag5
ag85
ag86
aa(lp121
g4
ag5
ag88
ag89
aa(lp122
g4
ag5
ag91
ag92
aa(lp123
g7
ag8
ag2
ag3
aa(lp124
g7
ag8
ag4
ag5
aa(lp125
g7
ag8
ag10
ag11
aa(lp126
g7
ag8
ag13
ag14
aa(lp127
g7
ag8
ag16
ag17
aa(lp128
g7
ag8
ag19
ag20
aa(lp129
g7
ag8
ag22
ag23
aa(lp130
g7
ag8
ag25
ag26
aa(lp131
g7
ag8
ag28
ag29
aa(lp132
g7
ag8
ag31
ag32
aa(lp133
g7
ag8
ag34
ag35
aa(lp134
g7
ag8
ag37
ag38
aa(lp135
g7
ag8
ag40
ag41
aa(lp136
g7
ag8
ag43
ag44
aa(lp137
g7
ag8
ag46
ag47
aa(lp138
g7
ag8
ag49
ag50
aa(lp139
g7
ag8
ag52
ag53
aa(lp140
g7
ag8
ag55
ag56
aa(lp141
g7
ag8
ag58
ag59
aa(lp142
g7
ag8
ag61
ag62
aa(lp143
g7
ag8
ag64
ag65
aa(lp144
g7
ag8
ag67
ag68
aa(lp145
g7
ag8
ag70
ag71
aa(lp146
g7
ag8
ag73
ag74
aa(lp147
g7
ag8
ag76
ag77
aa(lp148
g7
ag8
ag79
ag80
aa(lp149
g7
ag8
ag82
ag83
aa(lp150
g7
ag8
ag85
ag86
aa(lp151
g7
ag8
ag88
ag89
aa(lp152
g7
ag8
ag91
ag92
aa(lp153
g10
ag11
ag2
ag3
aa(lp154
g10
ag11
ag4
ag5
aa(lp155
g10
ag11
ag7
ag8
aa(lp156
g10
ag11
ag13
ag14
aa(lp157
g10
ag11
ag16
ag17
aa(lp158
g10
ag11
ag19
ag20
aa(lp159
g10
ag11
ag22
ag23
aa(lp160
g10
ag11
ag25
ag26
aa(lp161
g10
ag11
ag28
ag29
aa(lp162
g10
ag11
ag31
ag32
aa(lp163
g10
ag11
ag34
ag35
aa(lp164
g10
ag11
ag37
ag38
aa(lp165
g10
ag11
ag40
ag41
aa(lp166
g10
ag11
ag43
ag44
aa(lp167
g10
ag11
ag46
ag47
aa(lp168
g10
ag11
ag49
ag50
aa(lp169
g10
ag11
ag52
ag53
aa(lp170
g10
ag11
ag55
ag56
aa(lp171
g10
ag11
ag58
ag59
aa(lp172
g10
ag11
ag61
ag62
aa(lp173
g10
ag11
ag64
ag65
aa(lp174
g10
ag11
ag67
ag68
aa(lp175
g10
ag11
ag70
ag71
aa(lp176
g10
ag11
ag73
ag74
aa(lp177
g10
ag11
ag76
ag77
aa(lp178
g10
ag11
ag79
ag80
aa(lp179
g10
ag11
ag82
ag83
aa(lp180
g10
ag11
ag85
ag86
aa(lp181
g10
ag11
ag88
ag89
aa(lp182
g10
ag11
ag91
ag92
aa(lp183
g13
ag14
ag2
ag3
aa(lp184
g13
ag14
ag4
ag5
aa(lp185
g13
ag14
ag7
ag8
aa(lp186
g13
ag14
ag10
ag11
aa(lp187
g13
ag14
ag16
ag17
aa(lp188
g13
ag14
ag19
ag20
aa(lp189
g13
ag14
ag22
ag23
aa(lp190
g13
ag14
ag25
ag26
aa(lp191
g13
ag14
ag28
ag29
aa(lp192
g13
ag14
ag31
ag32
aa(lp193
g13
ag14
ag34
ag35
aa(lp194
g13
ag14
ag37
ag38
aa(lp195
g13
ag14
ag40
ag41
aa(lp196
g13
ag14
ag43
ag44
aa(lp197
g13
ag14
ag46
ag47
aa(lp198
g13
ag14
ag49
ag50
aa(lp199
g13
ag14
ag52
ag53
aa(lp200
g13
ag14
ag55
ag56
aa(lp201
g13
ag14
ag58
ag59
aa(lp202
g13
ag14
ag61
ag62
aa(lp203
g13
ag14
ag64
ag65
aa(lp204
g13
ag14
ag67
ag68
aa(lp205
g13
ag14
ag70
ag71
aa(lp206
g13
ag14
ag73
ag74
aa(lp207
g13
ag14
ag76
ag77
aa(lp208
g13
ag14
ag79
ag80
aa(lp209
g13
ag14
ag82
ag83
aa(lp210
g13
ag14
ag85
ag86
aa(lp211
g13
ag14
ag88
ag89
aa(lp212
g13
ag14
ag91
ag92
aa(lp213
g16
ag17
ag2
ag3
aa(lp214
g16
ag17
ag4
ag5
aa(lp215
g16
ag17
ag7
ag8
aa(lp216
g16
ag17
ag10
ag11
aa(lp217
g16
ag17
ag13
ag14
aa(lp218
g16
ag17
ag19
ag20
aa(lp219
g16
ag17
ag22
ag23
aa(lp220
g16
ag17
ag25
ag26
aa(lp221
g16
ag17
ag28
ag29
aa(lp222
g16
ag17
ag31
ag32
aa(lp223
g16
ag17
ag34
ag35
aa(lp224
g16
ag17
ag37
ag38
aa(lp225
g16
ag17
ag40
ag41
aa(lp226
g16
ag17
ag43
ag44
aa(lp227
g16
ag17
ag46
ag47
aa(lp228
g16
ag17
ag49
ag50
aa(lp229
g16
ag17
ag52
ag53
aa(lp230
g16
ag17
ag55
ag56
aa(lp231
g16
ag17
ag58
ag59
aa(lp232
g16
ag17
ag61
ag62
aa(lp233
g16
ag17
ag64
ag65
aa(lp234
g16
ag17
ag67
ag68
aa(lp235
g16
ag17
ag70
ag71
aa(lp236
g16
ag17
ag73
ag74
aa(lp237
g16
ag17
ag76
ag77
aa(lp238
g16
ag17
ag79
ag80
aa(lp239
g16
ag17
ag82
ag83
aa(lp240
g16
ag17
ag85
ag86
aa(lp241
g16
ag17
ag88
ag89
aa(lp242
g16
ag17
ag91
ag92
aa(lp243
g19
ag20
ag2
ag3
aa(lp244
g19
ag20
ag4
ag5
aa(lp245
g19
ag20
ag7
ag8
aa(lp246
g19
ag20
ag10
ag11
aa(lp247
g19
ag20
ag13
ag14
aa(lp248
g19
ag20
ag16
ag17
aa(lp249
g19
ag20
ag22
ag23
aa(lp250
g19
ag20
ag25
ag26
aa(lp251
g19
ag20
ag28
ag29
aa(lp252
g19
ag20
ag31
ag32
aa(lp253
g19
ag20
ag34
ag35
aa(lp254
g19
ag20
ag37
ag38
aa(lp255
g19
ag20
ag40
ag41
aa(lp256
g19
ag20
ag43
ag44
aa(lp257
g19
ag20
ag46
ag47
aa(lp258
g19
ag20
ag49
ag50
aa(lp259
g19
ag20
ag52
ag53
aa(lp260
g19
ag20
ag55
ag56
aa(lp261
g19
ag20
ag58
ag59
aa(lp262
g19
ag20
ag61
ag62
aa(lp263
g19
ag20
ag64
ag65
aa(lp264
g19
ag20
ag67
ag68
aa(lp265
g19
ag20
ag70
ag71
aa(lp266
g19
ag20
ag73
ag74
aa(lp267
g19
ag20
ag76
ag77
aa(lp268
g19
ag20
ag79
ag80
aa(lp269
g19
ag20
ag82
ag83
aa(lp270
g19
ag20
ag85
ag86
aa(lp271
g19
ag20
ag88
ag89
aa(lp272
g19
ag20
ag91
ag92
aa(lp273
g22
ag23
ag2
ag3
aa(lp274
g22
ag23
ag4
ag5
aa(lp275
g22
ag23
ag7
ag8
aa(lp276
g22
ag23
ag10
ag11
aa(lp277
g22
ag23
ag13
ag14
aa(lp278
g22
ag23
ag16
ag17
aa(lp279
g22
ag23
ag19
ag20
aa(lp280
g22
ag23
ag25
ag26
aa(lp281
g22
ag23
ag28
ag29
aa(lp282
g22
ag23
ag31
ag32
aa(lp283
g22
ag23
ag34
ag35
aa(lp284
g22
ag23
ag37
ag38
aa(lp285
g22
ag23
ag40
ag41
aa(lp286
g22
ag23
ag43
ag44
aa(lp287
g22
ag23
ag46
ag47
aa(lp288
g22
ag23
ag49
ag50
aa(lp289
g22
ag23
ag52
ag53
aa(lp290
g22
ag23
ag55
ag56
aa(lp291
g22
ag23
ag58
ag59
aa(lp292
g22
ag23
ag61
ag62
aa(lp293
g22
ag23
ag64
ag65
aa(lp294
g22
ag23
ag67
ag68
aa(lp295
g22
ag23
ag70
ag71
aa(lp296
g22
ag23
ag73
ag74
aa(lp297
g22
ag23
ag76
ag77
aa(lp298
g22
ag23
ag79
ag80
aa(lp299
g22
ag23
ag82
ag83
aa(lp300
g22
ag23
ag85
ag86
aa(lp301
g22
ag23
ag88
ag89
aa(lp302
g22
ag23
ag91
ag92
aa(lp303
g25
ag26
ag2
ag3
aa(lp304
g25
ag26
ag4
ag5
aa(lp305
g25
ag26
ag7
ag8
aa(lp306
g25
ag26
ag10
ag11
aa(lp307
g25
ag26
ag13
ag14
aa(lp308
g25
ag26
ag16
ag17
aa(lp309
g25
ag26
ag19
ag20
aa(lp310
g25
ag26
ag22
ag23
aa(lp311
g25
ag26
ag28
ag29
aa(lp312
g25
ag26
ag31
ag32
aa(lp313
g25
ag26
ag34
ag35
aa(lp314
g25
ag26
ag37
ag38
aa(lp315
g25
ag26
ag40
ag41
aa(lp316
g25
ag26
ag43
ag44
aa(lp317
g25
ag26
ag46
ag47
aa(lp318
g25
ag26
ag49
ag50
aa(lp319
g25
ag26
ag52
ag53
aa(lp320
g25
ag26
ag55
ag56
aa(lp321
g25
ag26
ag58
ag59
aa(lp322
g25
ag26
ag61
ag62
aa(lp323
g25
ag26
ag64
ag65
aa(lp324
g25
ag26
ag67
ag68
aa(lp325
g25
ag26
ag70
ag71
aa(lp326
g25
ag26
ag73
ag74
aa(lp327
g25
ag26
ag76
ag77
aa(lp328
g25
ag26
ag79
ag80
aa(lp329
g25
ag26
ag82
ag83
aa(lp330
g25
ag26
ag85
ag86
aa(lp331
g25
ag26
ag88
ag89
aa(lp332
g25
ag26
ag91
ag92
aa(lp333
g28
ag29
ag2
ag3
aa(lp334
g28
ag29
ag4
ag5
aa(lp335
g28
ag29
ag7
ag8
aa(lp336
g28
ag29
ag10
ag11
aa(lp337
g28
ag29
ag13
ag14
aa(lp338
g28
ag29
ag16
ag17
aa(lp339
g28
ag29
ag19
ag20
aa(lp340
g28
ag29
ag22
ag23
aa(lp341
g28
ag29
ag25
ag26
aa(lp342
g28
ag29
ag31
ag32
aa(lp343
g28
ag29
ag34
ag35
aa(lp344
g28
ag29
ag37
ag38
aa(lp345
g28
ag29
ag40
ag41
aa(lp346
g28
ag29
ag43
ag44
aa(lp347
g28
ag29
ag46
ag47
aa(lp348
g28
ag29
ag49
ag50
aa(lp349
g28
ag29
ag52
ag53
aa(lp350
g28
ag29
ag55
ag56
aa(lp351
g28
ag29
ag58
ag59
aa(lp352
g28
ag29
ag61
ag62
aa(lp353
g28
ag29
ag64
ag65
aa(lp354
g28
ag29
ag67
ag68
aa(lp355
g28
ag29
ag70
ag71
aa(lp356
g28
ag29
ag73
ag74
aa(lp357
g28
ag29
ag76
ag77
aa(lp358
g28
ag29
ag79
ag80
aa(lp359
g28
ag29
ag82
ag83
aa(lp360
g28
ag29
ag85
ag86
aa(lp361
g28
ag29
ag88
ag89
aa(lp362
g28
ag29
ag91
ag92
aa(lp363
g31
ag32
ag2
ag3
aa(lp364
g31
ag32
ag4
ag5
aa(lp365
g31
ag32
ag7
ag8
aa(lp366
g31
ag32
ag10
ag11
aa(lp367
g31
ag32
ag13
ag14
aa(lp368
g31
ag32
ag16
ag17
aa(lp369
g31
ag32
ag19
ag20
aa(lp370
g31
ag32
ag22
ag23
aa(lp371
g31
ag32
ag25
ag26
aa(lp372
g31
ag32
ag28
ag29
aa(lp373
g31
ag32
ag34
ag35
aa(lp374
g31
ag32
ag37
ag38
aa(lp375
g31
ag32
ag40
ag41
aa(lp376
g31
ag32
ag43
ag44
aa(lp377
g31
ag32
ag46
ag47
aa(lp378
g31
ag32
ag49
ag50
aa(lp379
g31
ag32
ag52
ag53
aa(lp380
g31
ag32
ag55
ag56
aa(lp381
g31
ag32
ag58
ag59
aa(lp382
g31
ag32
ag61
ag62
aa(lp383
g31
ag32
ag64
ag65
aa(lp384
g31
ag32
ag67
ag68
aa(lp385
g31
ag32
ag70
ag71
aa(lp386
g31
ag32
ag73
ag74
aa(lp387
g31
ag32
ag76
ag77
aa(lp388
g31
ag32
ag79
ag80
aa(lp389
g31
ag32
ag82
ag83
aa(lp390
g31
ag32
ag85
ag86
aa(lp391
g31
ag32
ag88
ag89
aa(lp392
g31
ag32
ag91
ag92
aa(lp393
g34
ag35
ag2
ag3
aa(lp394
g34
ag35
ag4
ag5
aa(lp395
g34
ag35
ag7
ag8
aa(lp396
g34
ag35
ag10
ag11
aa(lp397
g34
ag35
ag13
ag14
aa(lp398
g34
ag35
ag16
ag17
aa(lp399
g34
ag35
ag19
ag20
aa(lp400
g34
ag35
ag22
ag23
aa(lp401
g34
ag35
ag25
ag26
aa(lp402
g34
ag35
ag28
ag29
aa(lp403
g34
ag35
ag31
ag32
aa(lp404
g34
ag35
ag37
ag38
aa(lp405
g34
ag35
ag40
ag41
aa(lp406
g34
ag35
ag43
ag44
aa(lp407
g34
ag35
ag46
ag47
aa(lp408
g34
ag35
ag49
ag50
aa(lp409
g34
ag35
ag52
ag53
aa(lp410
g34
ag35
ag55
ag56
aa(lp411
g34
ag35
ag58
ag59
aa(lp412
g34
ag35
ag61
ag62
aa(lp413
g34
ag35
ag64
ag65
aa(lp414
g34
ag35
ag67
ag68
aa(lp415
g34
ag35
ag70
ag71
aa(lp416
g34
ag35
ag73
ag74
aa(lp417
g34
ag35
ag76
ag77
aa(lp418
g34
ag35
ag79
ag80
aa(lp419
g34
ag35
ag82
ag83
aa(lp420
g34
ag35
ag85
ag86
aa(lp421
g34
ag35
ag88
ag89
aa(lp422
g34
ag35
ag91
ag92
aa(lp423
g37
ag38
ag2
ag3
aa(lp424
g37
ag38
ag4
ag5
aa(lp425
g37
ag38
ag7
ag8
aa(lp426
g37
ag38
ag10
ag11
aa(lp427
g37
ag38
ag13
ag14
aa(lp428
g37
ag38
ag16
ag17
aa(lp429
g37
ag38
ag19
ag20
aa(lp430
g37
ag38
ag22
ag23
aa(lp431
g37
ag38
ag25
ag26
aa(lp432
g37
ag38
ag28
ag29
aa(lp433
g37
ag38
ag31
ag32
aa(lp434
g37
ag38
ag34
ag35
aa(lp435
g37
ag38
ag40
ag41
aa(lp436
g37
ag38
ag43
ag44
aa(lp437
g37
ag38
ag46
ag47
aa(lp438
g37
ag38
ag49
ag50
aa(lp439
g37
ag38
ag52
ag53
aa(lp440
g37
ag38
ag55
ag56
aa(lp441
g37
ag38
ag58
ag59
aa(lp442
g37
ag38
ag61
ag62
aa(lp443
g37
ag38
ag64
ag65
aa(lp444
g37
ag38
ag67
ag68
aa(lp445
g37
ag38
ag70
ag71
aa(lp446
g37
ag38
ag73
ag74
aa(lp447
g37
ag38
ag76
ag77
aa(lp448
g37
ag38
ag79
ag80
aa(lp449
g37
ag38
ag82
ag83
aa(lp450
g37
ag38
ag85
ag86
aa(lp451
g37
ag38
ag88
ag89
aa(lp452
g37
ag38
ag91
ag92
aa(lp453
g40
ag41
ag2
ag3
aa(lp454
g40
ag41
ag4
ag5
aa(lp455
g40
ag41
ag7
ag8
aa(lp456
g40
ag41
ag10
ag11
aa(lp457
g40
ag41
ag13
ag14
aa(lp458
g40
ag41
ag16
ag17
aa(lp459
g40
ag41
ag19
ag20
aa(lp460
g40
ag41
ag22
ag23
aa(lp461
g40
ag41
ag25
ag26
aa(lp462
g40
ag41
ag28
ag29
aa(lp463
g40
ag41
ag31
ag32
aa(lp464
g40
ag41
ag34
ag35
aa(lp465
g40
ag41
ag37
ag38
aa(lp466
g40
ag41
ag43
ag44
aa(lp467
g40
ag41
ag46
ag47
aa(lp468
g40
ag41
ag49
ag50
aa(lp469
g40
ag41
ag52
ag53
aa(lp470
g40
ag41
ag55
ag56
aa(lp471
g40
ag41
ag58
ag59
aa(lp472
g40
ag41
ag61
ag62
aa(lp473
g40
ag41
ag64
ag65
aa(lp474
g40
ag41
ag67
ag68
aa(lp475
g40
ag41
ag70
ag71
aa(lp476
g40
ag41
ag73
ag74
aa(lp477
g40
ag41
ag76
ag77
aa(lp478
g40
ag41
ag79
ag80
aa(lp479
g40
ag41
ag82
ag83
aa(lp480
g40
ag41
ag85
ag86
aa(lp481
g40
ag41
ag88
ag89
aa(lp482
g40
ag41
ag91
ag92
aa(lp483
g43
ag44
ag2
ag3
aa(lp484
g43
ag44
ag4
ag5
aa(lp485
g43
ag44
ag7
ag8
aa(lp486
g43
ag44
ag10
ag11
aa(lp487
g43
ag44
ag13
ag14
aa(lp488
g43
ag44
ag16
ag17
aa(lp489
g43
ag44
ag19
ag20
aa(lp490
g43
ag44
ag22
ag23
aa(lp491
g43
ag44
ag25
ag26
aa(lp492
g43
ag44
ag28
ag29
aa(lp493
g43
ag44
ag31
ag32
aa(lp494
g43
ag44
ag34
ag35
aa(lp495
g43
ag44
ag37
ag38
aa(lp496
g43
ag44
ag40
ag41
aa(lp497
g43
ag44
ag46
ag47
aa(lp498
g43
ag44
ag49
ag50
aa(lp499
g43
ag44
ag52
ag53
aa(lp500
g43
ag44
ag55
ag56
aa(lp501
g43
ag44
ag58
ag59
aa(lp502
g43
ag44
ag61
ag62
aa(lp503
g43
ag44
ag64
ag65
aa(lp504
g43
ag44
ag67
ag68
aa(lp505
g43
ag44
ag70
ag71
aa(lp506
g43
ag44
ag73
ag74
aa(lp507
g43
ag44
ag76
ag77
aa(lp508
g43
ag44
ag79
ag80
aa(lp509
g43
ag44
ag82
ag83
aa(lp510
g43
ag44
ag85
ag86
aa(lp511
g43
ag44
ag88
ag89
aa(lp512
g43
ag44
ag91
ag92
aa(lp513
g46
ag47
ag2
ag3
aa(lp514
g46
ag47
ag4
ag5
aa(lp515
g46
ag47
ag7
ag8
aa(lp516
g46
ag47
ag10
ag11
aa(lp517
g46
ag47
ag13
ag14
aa(lp518
g46
ag47
ag16
ag17
aa(lp519
g46
ag47
ag19
ag20
aa(lp520
g46
ag47
ag22
ag23
aa(lp521
g46
ag47
ag25
ag26
aa(lp522
g46
ag47
ag28
ag29
aa(lp523
g46
ag47
ag31
ag32
aa(lp524
g46
ag47
ag34
ag35
aa(lp525
g46
ag47
ag37
ag38
aa(lp526
g46
ag47
ag40
ag41
aa(lp527
g46
ag47
ag43
ag44
aa(lp528
g46
ag47
ag49
ag50
aa(lp529
g46
ag47
ag52
ag53
aa(lp530
g46
ag47
ag55
ag56
aa(lp531
g46
ag47
ag58
ag59
aa(lp532
g46
ag47
ag61
ag62
aa(lp533
g46
ag47
ag64
ag65
aa(lp534
g46
ag47
ag67
ag68
aa(lp535
g46
ag47
ag70
ag71
aa(lp536
g46
ag47
ag73
ag74
aa(lp537
g46
ag47
ag76
ag77
aa(lp538
g46
ag47
ag79
ag80
aa(lp539
g46
ag47
ag82
ag83
aa(lp540
g46
ag47
ag85
ag86
aa(lp541
g46
ag47
ag88
ag89
aa(lp542
g46
ag47
ag91
ag92
aa(lp543
g49
ag50
ag2
ag3
aa(lp544
g49
ag50
ag4
ag5
aa(lp545
g49
ag50
ag7
ag8
aa(lp546
g49
ag50
ag10
ag11
aa(lp547
g49
ag50
ag13
ag14
aa(lp548
g49
ag50
ag16
ag17
aa(lp549
g49
ag50
ag19
ag20
aa(lp550
g49
ag50
ag22
ag23
aa(lp551
g49
ag50
ag25
ag26
aa(lp552
g49
ag50
ag28
ag29
aa(lp553
g49
ag50
ag31
ag32
aa(lp554
g49
ag50
ag34
ag35
aa(lp555
g49
ag50
ag37
ag38
aa(lp556
g49
ag50
ag40
ag41
aa(lp557
g49
ag50
ag43
ag44
aa(lp558
g49
ag50
ag46
ag47
aa(lp559
g49
ag50
ag52
ag53
aa(lp560
g49
ag50
ag55
ag56
aa(lp561
g49
ag50
ag58
ag59
aa(lp562
g49
ag50
ag61
ag62
aa(lp563
g49
ag50
ag64
ag65
aa(lp564
g49
ag50
ag67
ag68
aa(lp565
g49
ag50
ag70
ag71
aa(lp566
g49
ag50
ag73
ag74
aa(lp567
g49
ag50
ag76
ag77
aa(lp568
g49
ag50
ag79
ag80
aa(lp569
g49
ag50
ag82
ag83
aa(lp570
g49
ag50
ag85
ag86
aa(lp571
g49
ag50
ag88
ag89
aa(lp572
g49
ag50
ag91
ag92
aa(lp573
g52
ag53
ag2
ag3
aa(lp574
g52
ag53
ag4
ag5
aa(lp575
g52
ag53
ag7
ag8
aa(lp576
g52
ag53
ag10
ag11
aa(lp577
g52
ag53
ag13
ag14
aa(lp578
g52
ag53
ag16
ag17
aa(lp579
g52
ag53
ag19
ag20
aa(lp580
g52
ag53
ag22
ag23
aa(lp581
g52
ag53
ag25
ag26
aa(lp582
g52
ag53
ag28
ag29
aa(lp583
g52
ag53
ag31
ag32
aa(lp584
g52
ag53
ag34
ag35
aa(lp585
g52
ag53
ag37
ag38
aa(lp586
g52
ag53
ag40
ag41
aa(lp587
g52
ag53
ag43
ag44
aa(lp588
g52
ag53
ag46
ag47
aa(lp589
g52
ag53
ag49
ag50
aa(lp590
g52
ag53
ag55
ag56
aa(lp591
g52
ag53
ag58
ag59
aa(lp592
g52
ag53
ag61
ag62
aa(lp593
g52
ag53
ag64
ag65
aa(lp594
g52
ag53
ag67
ag68
aa(lp595
g52
ag53
ag70
ag71
aa(lp596
g52
ag53
ag73
ag74
aa(lp597
g52
ag53
ag76
ag77
aa(lp598
g52
ag53
ag79
ag80
aa(lp599
g52
ag53
ag82
ag83
aa(lp600
g52
ag53
ag85
ag86
aa(lp601
g52
ag53
ag88
ag89
aa(lp602
g52
ag53
ag91
ag92
aa(lp603
g55
ag56
ag2
ag3
aa(lp604
g55
ag56
ag4
ag5
aa(lp605
g55
ag56
ag7
ag8
aa(lp606
g55
ag56
ag10
ag11
aa(lp607
g55
ag56
ag13
ag14
aa(lp608
g55
ag56
ag16
ag17
aa(lp609
g55
ag56
ag19
ag20
aa(lp610
g55
ag56
ag22
ag23
aa(lp611
g55
ag56
ag25
ag26
aa(lp612
g55
ag56
ag28
ag29
aa(lp613
g55
ag56
ag31
ag32
aa(lp614
g55
ag56
ag34
ag35
aa(lp615
g55
ag56
ag37
ag38
aa(lp616
g55
ag56
ag40
ag41
aa(lp617
g55
ag56
ag43
ag44
aa(lp618
g55
ag56
ag46
ag47
aa(lp619
g55
ag56
ag49
ag50
aa(lp620
g55
ag56
ag52
ag53
aa(lp621
g55
ag56
ag58
ag59
aa(lp622
g55
ag56
ag61
ag62
aa(lp623
g55
ag56
ag64
ag65
aa(lp624
g55
ag56
ag67
ag68
aa(lp625
g55
ag56
ag70
ag71
aa(lp626
g55
ag56
ag73
ag74
aa(lp627
g55
ag56
ag76
ag77
aa(lp628
g55
ag56
ag79
ag80
aa(lp629
g55
ag56
ag82
ag83
aa(lp630
g55
ag56
ag85
ag86
aa(lp631
g55
ag56
ag88
ag89
aa(lp632
g55
ag56
ag91
ag92
aa(lp633
g58
ag59
ag2
ag3
aa(lp634
g58
ag59
ag4
ag5
aa(lp635
g58
ag59
ag7
ag8
aa(lp636
g58
ag59
ag10
ag11
aa(lp637
g58
ag59
ag13
ag14
aa(lp638
g58
ag59
ag16
ag17
aa(lp639
g58
ag59
ag19
ag20
aa(lp640
g58
ag59
ag22
ag23
aa(lp641
g58
ag59
ag25
ag26
aa(lp642
g58
ag59
ag28
ag29
aa(lp643
g58
ag59
ag31
ag32
aa(lp644
g58
ag59
ag34
ag35
aa(lp645
g58
ag59
ag37
ag38
aa(lp646
g58
ag59
ag40
ag41
aa(lp647
g58
ag59
ag43
ag44
aa(lp648
g58
ag59
ag46
ag47
aa(lp649
g58
ag59
ag49
ag50
aa(lp650
g58
ag59
ag52
ag53
aa(lp651
g58
ag59
ag55
ag56
aa(lp652
g58
ag59
ag61
ag62
aa(lp653
g58
ag59
ag64
ag65
aa(lp654
g58
ag59
ag67
ag68
aa(lp655
g58
ag59
ag70
ag71
aa(lp656
g58
ag59
ag73
ag74
aa(lp657
g58
ag59
ag76
ag77
aa(lp658
g58
ag59
ag79
ag80
aa(lp659
g58
ag59
ag82
ag83
aa(lp660
g58
ag59
ag85
ag86
aa(lp661
g58
ag59
ag88
ag89
aa(lp662
g58
ag59
ag91
ag92
aa(lp663
g61
ag62
ag2
ag3
aa(lp664
g61
ag62
ag4
ag5
aa(lp665
g61
ag62
ag7
ag8
aa(lp666
g61
ag62
ag10
ag11
aa(lp667
g61
ag62
ag13
ag14
aa(lp668
g61
ag62
ag16
ag17
aa(lp669
g61
ag62
ag19
ag20
aa(lp670
g61
ag62
ag22
ag23
aa(lp671
g61
ag62
ag25
ag26
aa(lp672
g61
ag62
ag28
ag29
aa(lp673
g61
ag62
ag31
ag32
aa(lp674
g61
ag62
ag34
ag35
aa(lp675
g61
ag62
ag37
ag38
aa(lp676
g61
ag62
ag40
ag41
aa(lp677
g61
ag62
ag43
ag44
aa(lp678
g61
ag62
ag46
ag47
aa(lp679
g61
ag62
ag49
ag50
aa(lp680
g61
ag62
ag52
ag53
aa(lp681
g61
ag62
ag55
ag56
aa(lp682
g61
ag62
ag58
ag59
aa(lp683
g61
ag62
ag64
ag65
aa(lp684
g61
ag62
ag67
ag68
aa(lp685
g61
ag62
ag70
ag71
aa(lp686
g61
ag62
ag73
ag74
aa(lp687
g61
ag62
ag76
ag77
aa(lp688
g61
ag62
ag79
ag80
aa(lp689
g61
ag62
ag82
ag83
aa(lp690
g61
ag62
ag85
ag86
aa(lp691
g61
ag62
ag88
ag89
aa(lp692
g61
ag62
ag91
ag92
aa(lp693
g64
ag65
ag2
ag3
aa(lp694
g64
ag65
ag4
ag5
aa(lp695
g64
ag65
ag7
ag8
aa(lp696
g64
ag65
ag10
ag11
aa(lp697
g64
ag65
ag13
ag14
aa(lp698
g64
ag65
ag16
ag17
aa(lp699
g64
ag65
ag19
ag20
aa(lp700
g64
ag65
ag22
ag23
aa(lp701
g64
ag65
ag25
ag26
aa(lp702
g64
ag65
ag28
ag29
aa(lp703
g64
ag65
ag31
ag32
aa(lp704
g64
ag65
ag34
ag35
aa(lp705
g64
ag65
ag37
ag38
aa(lp706
g64
ag65
ag40
ag41
aa(lp707
g64
ag65
ag43
ag44
aa(lp708
g64
ag65
ag46
ag47
aa(lp709
g64
ag65
ag49
ag50
aa(lp710
g64
ag65
ag52
ag53
aa(lp711
g64
ag65
ag55
ag56
aa(lp712
g64
ag65
ag58
ag59
aa(lp713
g64
ag65
ag61
ag62
aa(lp714
g64
ag65
ag67
ag68
aa(lp715
g64
ag65
ag70
ag71
aa(lp716
g64
ag65
ag73
ag74
aa(lp717
g64
ag65
ag76
ag77
aa(lp718
g64
ag65
ag79
ag80
aa(lp719
g64
ag65
ag82
ag83
aa(lp720
g64
ag65
ag85
ag86
aa(lp721
g64
ag65
ag88
ag89
aa(lp722
g64
ag65
ag91
ag92
aa(lp723
g67
ag68
ag2
ag3
aa(lp724
g67
ag68
ag4
ag5
aa(lp725
g67
ag68
ag7
ag8
aa(lp726
g67
ag68
ag10
ag11
aa(lp727
g67
ag68
ag13
ag14
aa(lp728
g67
ag68
ag16
ag17
aa(lp729
g67
ag68
ag19
ag20
aa(lp730
g67
ag68
ag22
ag23
aa(lp731
g67
ag68
ag25
ag26
aa(lp732
g67
ag68
ag28
ag29
aa(lp733
g67
ag68
ag31
ag32
aa(lp734
g67
ag68
ag34
ag35
aa(lp735
g67
ag68
ag37
ag38
aa(lp736
g67
ag68
ag40
ag41
aa(lp737
g67
ag68
ag43
ag44
aa(lp738
g67
ag68
ag46
ag47
aa(lp739
g67
ag68
ag49
ag50
aa(lp740
g67
ag68
ag52
ag53
aa(lp741
g67
ag68
ag55
ag56
aa(lp742
g67
ag68
ag58
ag59
aa(lp743
g67
ag68
ag61
ag62
aa(lp744
g67
ag68
ag64
ag65
aa(lp745
g67
ag68
ag70
ag71
aa(lp746
g67
ag68
ag73
ag74
aa(lp747
g67
ag68
ag76
ag77
aa(lp748
g67
ag68
ag79
ag80
aa(lp749
g67
ag68
ag82
ag83
aa(lp750
g67
ag68
ag85
ag86
aa(lp751
g67
ag68
ag88
ag89
aa(lp752
g67
ag68
ag91
ag92
aa(lp753
g70
ag71
ag2
ag3
aa(lp754
g70
ag71
ag4
ag5
aa(lp755
g70
ag71
ag7
ag8
aa(lp756
g70
ag71
ag10
ag11
aa(lp757
g70
ag71
ag13
ag14
aa(lp758
g70
ag71
ag16
ag17
aa(lp759
g70
ag71
ag19
ag20
aa(lp760
g70
ag71
ag22
ag23
aa(lp761
g70
ag71
ag25
ag26
aa(lp762
g70
ag71
ag28
ag29
aa(lp763
g70
ag71
ag31
ag32
aa(lp764
g70
ag71
ag34
ag35
aa(lp765
g70
ag71
ag37
ag38
aa(lp766
g70
ag71
ag40
ag41
aa(lp767
g70
ag71
ag43
ag44
aa(lp768
g70
ag71
ag46
ag47
aa(lp769
g70
ag71
ag49
ag50
aa(lp770
g70
ag71
ag52
ag53
aa(lp771
g70
ag71
ag55
ag56
aa(lp772
g70
ag71
ag58
ag59
aa(lp773
g70
ag71
ag61
ag62
aa(lp774
g70
ag71
ag64
ag65
aa(lp775
g70
ag71
ag67
ag68
aa(lp776
g70
ag71
ag73
ag74
aa(lp777
g70
ag71
ag76
ag77
aa(lp778
g70
ag71
ag79
ag80
aa(lp779
g70
ag71
ag82
ag83
aa(lp780
g70
ag71
ag85
ag86
aa(lp781
g70
ag71
ag88
ag89
aa(lp782
g70
ag71
ag91
ag92
aa(lp783
g73
ag74
ag2
ag3
aa(lp784
g73
ag74
ag4
ag5
aa(lp785
g73
ag74
ag7
ag8
aa(lp786
g73
ag74
ag10
ag11
aa(lp787
g73
ag74
ag13
ag14
aa(lp788
g73
ag74
ag16
ag17
aa(lp789
g73
ag74
ag19
ag20
aa(lp790
g73
ag74
ag22
ag23
aa(lp791
g73
ag74
ag25
ag26
aa(lp792
g73
ag74
ag28
ag29
aa(lp793
g73
ag74
ag31
ag32
aa(lp794
g73
ag74
ag34
ag35
aa(lp795
g73
ag74
ag37
ag38
aa(lp796
g73
ag74
ag40
ag41
aa(lp797
g73
ag74
ag43
ag44
aa(lp798
g73
ag74
ag46
ag47
aa(lp799
g73
ag74
ag49
ag50
aa(lp800
g73
ag74
ag52
ag53
aa(lp801
g73
ag74
ag55
ag56
aa(lp802
g73
ag74
ag58
ag59
aa(lp803
g73
ag74
ag61
ag62
aa(lp804
g73
ag74
ag64
ag65
aa(lp805
g73
ag74
ag67
ag68
aa(lp806
g73
ag74
ag70
ag71
aa(lp807
g73
ag74
ag76
ag77
aa(lp808
g73
ag74
ag79
ag80
aa(lp809
g73
ag74
ag82
ag83
aa(lp810
g73
ag74
ag85
ag86
aa(lp811
g73
ag74
ag88
ag89
aa(lp812
g73
ag74
ag91
ag92
aa(lp813
g76
ag77
ag2
ag3
aa(lp814
g76
ag77
ag4
ag5
aa(lp815
g76
ag77
ag7
ag8
aa(lp816
g76
ag77
ag10
ag11
aa(lp817
g76
ag77
ag13
ag14
aa(lp818
g76
ag77
ag16
ag17
aa(lp819
g76
ag77
ag19
ag20
aa(lp820
g76
ag77
ag22
ag23
aa(lp821
g76
ag77
ag25
ag26
aa(lp822
g76
ag77
ag28
ag29
aa(lp823
g76
ag77
ag31
ag32
aa(lp824
g76
ag77
ag34
ag35
aa(lp825
g76
ag77
ag37
ag38
aa(lp826
g76
ag77
ag40
ag41
aa(lp827
g76
ag77
ag43
ag44
aa(lp828
g76
ag77
ag46
ag47
aa(lp829
g76
ag77
ag49
ag50
aa(lp830
g76
ag77
ag52
ag53
aa(lp831
g76
ag77
ag55
ag56
aa(lp832
g76
ag77
ag58
ag59
aa(lp833
g76
ag77
ag61
ag62
aa(lp834
g76
ag77
ag64
ag65
aa(lp835
g76
ag77
ag67
ag68
aa(lp836
g76
ag77
ag70
ag71
aa(lp837
g76
ag77
ag73
ag74
aa(lp838
g76
ag77
ag79
ag80
aa(lp839
g76
ag77
ag82
ag83
aa(lp840
g76
ag77
ag85
ag86
aa(lp841
g76
ag77
ag88
ag89
aa(lp842
g76
ag77
ag91
ag92
aa(lp843
g79
ag80
ag2
ag3
aa(lp844
g79
ag80
ag4
ag5
aa(lp845
g79
ag80
ag7
ag8
aa(lp846
g79
ag80
ag10
ag11
aa(lp847
g79
ag80
ag13
ag14
aa(lp848
g79
ag80
ag16
ag17
aa(lp849
g79
ag80
ag19
ag20
aa(lp850
g79
ag80
ag22
ag23
aa(lp851
g79
ag80
ag25
ag26
aa(lp852
g79
ag80
ag28
ag29
aa(lp853
g79
ag80
ag31
ag32
aa(lp854
g79
ag80
ag34
ag35
aa(lp855
g79
ag80
ag37
ag38
aa(lp856
g79
ag80
ag40
ag41
aa(lp857
g79
ag80
ag43
ag44
aa(lp858
g79
ag80
ag46
ag47
aa(lp859
g79
ag80
ag49
ag50
aa(lp860
g79
ag80
ag52
ag53
aa(lp861
g79
ag80
ag55
ag56
aa(lp862
g79
ag80
ag58
ag59
aa(lp863
g79
ag80
ag61
ag62
aa(lp864
g79
ag80
ag64
ag65
aa(lp865
g79
ag80
ag67
ag68
aa(lp866
g79
ag80
ag70
ag71
aa(lp867
g79
ag80
ag73
ag74
aa(lp868
g79
ag80
ag76
ag77
aa(lp869
g79
ag80
ag82
ag83
aa(lp870
g79
ag80
ag85
ag86
aa(lp871
g79
ag80
ag88
ag89
aa(lp872
g79
ag80
ag91
ag92
aa(lp873
g82
ag83
ag2
ag3
aa(lp874
g82
ag83
ag4
ag5
aa(lp875
g82
ag83
ag7
ag8
aa(lp876
g82
ag83
ag10
ag11
aa(lp877
g82
ag83
ag13
ag14
aa(lp878
g82
ag83
ag16
ag17
aa(lp879
g82
ag83
ag19
ag20
aa(lp880
g82
ag83
ag22
ag23
aa(lp881
g82
ag83
ag25
ag26
aa(lp882
g82
ag83
ag28
ag29
aa(lp883
g82
ag83
ag31
ag32
aa(lp884
g82
ag83
ag34
ag35
aa(lp885
g82
ag83
ag37
ag38
aa(lp886
g82
ag83
ag40
ag41
aa(lp887
g82
ag83
ag43
ag44
aa(lp888
g82
ag83
ag46
ag47
aa(lp889
g82
ag83
ag49
ag50
aa(lp890
g82
ag83
ag52
ag53
aa(lp891
g82
ag83
ag55
ag56
aa(lp892
g82
ag83
ag58
ag59
aa(lp893
g82
ag83
ag61
ag62
aa(lp894
g82
ag83
ag64
ag65
aa(lp895
g82
ag83
ag67
ag68
aa(lp896
g82
ag83
ag70
ag71
aa(lp897
g82
ag83
ag73
ag74
aa(lp898
g82
ag83
ag76
ag77
aa(lp899
g82
ag83
ag79
ag80
aa(lp900
g82
ag83
ag85
ag86
aa(lp901
g82
ag83
ag88
ag89
aa(lp902
g82
ag83
ag91
ag92
aa(lp903
g85
ag86
ag2
ag3
aa(lp904
g85
ag86
ag4
ag5
aa(lp905
g85
ag86
ag7
ag8
aa(lp906
g85
ag86
ag10
ag11
aa(lp907
g85
ag86
ag13
ag14
aa(lp908
g85
ag86
ag16
ag17
aa(lp909
g85
ag86
ag19
ag20
aa(lp910
g85
ag86
ag22
ag23
aa(lp911
g85
ag86
ag25
ag26
aa(lp912
g85
ag86
ag28
ag29
aa(lp913
g85
ag86
ag31
ag32
aa(lp914
g85
ag86
ag34
ag35
aa(lp915
g85
ag86
ag37
ag38
aa(lp916
g85
ag86
ag40
ag41
aa(lp917
g85
ag86
ag43
ag44
aa(lp918
g85
ag86
ag46
ag47
aa(lp919
g85
ag86
ag49
ag50
aa(lp920
g85
ag86
ag52
ag53
aa(lp921
g85
ag86
ag55
ag56
aa(lp922
g85
ag86
ag58
ag59
aa(lp923
g85
ag86
ag61
ag62
aa(lp924
g85
ag86
ag64
ag65
aa(lp925
g85
ag86
ag67
ag68
aa(lp926
g85
ag86
ag70
ag71
aa(lp927
g85
ag86
ag73
ag74
aa(lp928
g85
ag86
ag76
ag77
aa(lp929
g85
ag86
ag79
ag80
aa(lp930
g85
ag86
ag82
ag83
aa(lp931
g85
ag86
ag88
ag89
aa(lp932
g85
ag86
ag91
ag92
aa(lp933
g88
ag89
ag2
ag3
aa(lp934
g88
ag89
ag4
ag5
aa(lp935
g88
ag89
ag7
ag8
aa(lp936
g88
ag89
ag10
ag11
aa(lp937
g88
ag89
ag13
ag14
aa(lp938
g88
ag89
ag16
ag17
aa(lp939
g88
ag89
ag19
ag20
aa(lp940
g88
ag89
ag22
ag23
aa(lp941
g88
ag89
ag25
ag26
aa(lp942
g88
ag89
ag28
ag29
aa(lp943
g88
ag89
ag31
ag32
aa(lp944
g88
ag89
ag34
ag35
aa(lp945
g88
ag89
ag37
ag38
aa(lp946
g88
ag89
ag40
ag41
aa(lp947
g88
ag89
ag43
ag44
aa(lp948
g88
ag89
ag46
ag47
aa(lp949
g88
ag89
ag49
ag50
aa(lp950
g88
ag89
ag52
ag53
aa(lp951
g88
ag89
ag55
ag56
aa(lp952
g88
ag89
ag58
ag59
aa(lp953
g88
ag89
ag61
ag62
aa(lp954
g88
ag89
ag64
ag65
aa(lp955
g88
ag89
ag67
ag68
aa(lp956
g88
ag89
ag70
ag71
aa(lp957
g88
ag89
ag73
ag74
aa(lp958
g88
ag89
ag76
ag77
aa(lp959
g88
ag89
ag79
ag80
aa(lp960
g88
ag89
ag82
ag83
aa(lp961
g88
ag89
ag85
ag86
aa(lp962
g88
ag89
ag91
ag92
aa(lp963
g91
ag92
ag2
ag3
aa(lp964
g91
ag92
ag4
ag5
aa(lp965
g91
ag92
ag7
ag8
aa(lp966
g91
ag92
ag10
ag11
aa(lp967
g91
ag92
ag13
ag14
aa(lp968
g91
ag92
ag16
ag17
aa(lp969
g91
ag92
ag19
ag20
aa(lp970
g91
ag92
ag22
ag23
aa(lp971
g91
ag92
ag25
ag26
aa(lp972
g91
ag92
ag28
ag29
aa(lp973
g91
ag92
ag31
ag32
aa(lp974
g91
ag92
ag34
ag35
aa(lp975
g91
ag92
ag37
ag38
aa(lp976
g91
ag92
ag40
ag41
aa(lp977
g91
ag92
ag43
ag44
aa(lp978
g91
ag92
ag46
ag47
aa(lp979
g91
ag92
ag49
ag50
aa(lp980
g91
ag92
ag52
ag53
aa(lp981
g91
ag92
ag55
ag56
aa(lp982
g91
ag92
ag58
ag59
aa(lp983
g91
ag92
ag61
ag62
aa(lp984
g91
ag92
ag64
ag65
aa(lp985
g91
ag92
ag67
ag68
aa(lp986
g91
ag92
ag70
ag71
aa(lp987
g91
ag92
ag73
ag74
aa(lp988
g91
ag92
ag76
ag77
aa(lp989
g91
ag92
ag79
ag80
aa(lp990
g91
ag92
ag82
ag83
aa(lp991
g91
ag92
ag85
ag86
aa(lp992
g91
ag92
ag88
ag89
aa.