(lp0
(lp1
S'wrapper_NN'
p2
aS'trash_NN'
p3
aS'pillow_NN'
p4
aS'treasure_NN'
p5
aa(lp6
g2
ag3
aS'peel_NN'
p7
aS'trash_NN'
p8
aa(lp9
g2
ag3
aS'toy_NN'
p10
aS'treasure_NN'
p11
aa(lp12
g2
ag3
aS'mold_NN'
p13
aS'trash_NN'
p14
aa(lp15
g2
ag3
aS'ring_NN'
p16
aS'treasure_NN'
p17
aa(lp18
g2
ag3
aS'cookie_NN'
p19
aS'treasure_NN'
p20
aa(lp21
g2
ag3
aS'remote_NN'
p22
aS'treasure_NN'
p23
aa(lp24
g2
ag3
aS'dirt_NN'
p25
aS'trash_NN'
p26
aa(lp27
g2
ag3
aS'crumbs_NN'
p28
aS'trash_NN'
p29
aa(lp30
g2
ag3
aS'rind_NN'
p31
aS'trash_NN'
p32
aa(lp33
g2
ag3
aS'cup_NN'
p34
aS'treasure_NN'
p35
aa(lp36
g2
ag3
aS'cushion_NN'
p37
aS'treasure_NN'
p38
aa(lp39
g2
ag3
aS'wallet_NN'
p40
aS'treasure_NN'
p41
aa(lp42
g2
ag3
aS'sand_NN'
p43
aS'trash_NN'
p44
aa(lp45
g2
ag3
aS'book_NN'
p46
aS'treasure_NN'
p47
aa(lp48
g2
ag3
aS'leaf_NN'
p49
aS'trash_NN'
p50
aa(lp51
g2
ag3
aS'bug_NN'
p52
aS'trash_NN'
p53
aa(lp54
g2
ag3
aS'baby_NN'
p55
aS'treasure_NN'
p56
aa(lp57
g2
ag3
aS'slime_NN'
p58
aS'trash_NN'
p59
aa(lp60
g2
ag3
aS'mud_NN'
p61
aS'trash_NN'
p62
aa(lp63
g2
ag3
aS'computer_NN'
p64
aS'treasure_NN'
p65
aa(lp66
g2
ag3
aS'apple_NN'
p67
aS'treasure_NN'
p68
aa(lp69
g2
ag3
aS'dust_NN'
p70
aS'trash_NN'
p71
aa(lp72
g4
ag5
ag2
ag3
aa(lp73
g4
ag5
ag7
ag8
aa(lp74
g4
ag5
ag10
ag11
aa(lp75
g4
ag5
ag13
ag14
aa(lp76
g4
ag5
ag16
ag17
aa(lp77
g4
ag5
ag19
ag20
aa(lp78
g4
ag5
ag22
ag23
aa(lp79
g4
ag5
ag25
ag26
aa(lp80
g4
ag5
ag28
ag29
aa(lp81
g4
ag5
ag31
ag32
aa(lp82
g4
ag5
ag34
ag35
aa(lp83
g4
ag5
ag37
ag38
aa(lp84
g4
ag5
ag40
ag41
aa(lp85
g4
ag5
ag43
ag44
aa(lp86
g4
ag5
ag46
ag47
aa(lp87
g4
ag5
ag49
ag50
aa(lp88
g4
ag5
ag52
ag53
aa(lp89
g4
ag5
ag55
ag56
aa(lp90
g4
ag5
ag58
ag59
aa(lp91
g4
ag5
ag61
ag62
aa(lp92
g4
ag5
ag64
ag65
aa(lp93
g4
ag5
ag67
ag68
aa(lp94
g4
ag5
ag70
ag71
aa(lp95
g7
ag8
ag2
ag3
aa(lp96
g7
ag8
ag4
ag5
aa(lp97
g7
ag8
ag10
ag11
aa(lp98
g7
ag8
ag13
ag14
aa(lp99
g7
ag8
ag16
ag17
aa(lp100
g7
ag8
ag19
ag20
aa(lp101
g7
ag8
ag22
ag23
aa(lp102
g7
ag8
ag25
ag26
aa(lp103
g7
ag8
ag28
ag29
aa(lp104
g7
ag8
ag31
ag32
aa(lp105
g7
ag8
ag34
ag35
aa(lp106
g7
ag8
ag37
ag38
aa(lp107
g7
ag8
ag40
ag41
aa(lp108
g7
ag8
ag43
ag44
aa(lp109
g7
ag8
ag46
ag47
aa(lp110
g7
ag8
ag49
ag50
aa(lp111
g7
ag8
ag52
ag53
aa(lp112
g7
ag8
ag55
ag56
aa(lp113
g7
ag8
ag58
ag59
aa(lp114
g7
ag8
ag61
ag62
aa(lp115
g7
ag8
ag64
ag65
aa(lp116
g7
ag8
ag67
ag68
aa(lp117
g7
ag8
ag70
ag71
aa(lp118
g10
ag11
ag2
ag3
aa(lp119
g10
ag11
ag4
ag5
aa(lp120
g10
ag11
ag7
ag8
aa(lp121
g10
ag11
ag13
ag14
aa(lp122
g10
ag11
ag16
ag17
aa(lp123
g10
ag11
ag19
ag20
aa(lp124
g10
ag11
ag22
ag23
aa(lp125
g10
ag11
ag25
ag26
aa(lp126
g10
ag11
ag28
ag29
aa(lp127
g10
ag11
ag31
ag32
aa(lp128
g10
ag11
ag34
ag35
aa(lp129
g10
ag11
ag37
ag38
aa(lp130
g10
ag11
ag40
ag41
aa(lp131
g10
ag11
ag43
ag44
aa(lp132
g10
ag11
ag46
ag47
aa(lp133
g10
ag11
ag49
ag50
aa(lp134
g10
ag11
ag52
ag53
aa(lp135
g10
ag11
ag55
ag56
aa(lp136
g10
ag11
ag58
ag59
aa(lp137
g10
ag11
ag61
ag62
aa(lp138
g10
ag11
ag64
ag65
aa(lp139
g10
ag11
ag67
ag68
aa(lp140
g10
ag11
ag70
ag71
aa(lp141
g13
ag14
ag2
ag3
aa(lp142
g13
ag14
ag4
ag5
aa(lp143
g13
ag14
ag7
ag8
aa(lp144
g13
ag14
ag10
ag11
aa(lp145
g13
ag14
ag16
ag17
aa(lp146
g13
ag14
ag19
ag20
aa(lp147
g13
ag14
ag22
ag23
aa(lp148
g13
ag14
ag25
ag26
aa(lp149
g13
ag14
ag28
ag29
aa(lp150
g13
ag14
ag31
ag32
aa(lp151
g13
ag14
ag34
ag35
aa(lp152
g13
ag14
ag37
ag38
aa(lp153
g13
ag14
ag40
ag41
aa(lp154
g13
ag14
ag43
ag44
aa(lp155
g13
ag14
ag46
ag47
aa(lp156
g13
ag14
ag49
ag50
aa(lp157
g13
ag14
ag52
ag53
aa(lp158
g13
ag14
ag55
ag56
aa(lp159
g13
ag14
ag58
ag59
aa(lp160
g13
ag14
ag61
ag62
aa(lp161
g13
ag14
ag64
ag65
aa(lp162
g13
ag14
ag67
ag68
aa(lp163
g13
ag14
ag70
ag71
aa(lp164
g16
ag17
ag2
ag3
aa(lp165
g16
ag17
ag4
ag5
aa(lp166
g16
ag17
ag7
ag8
aa(lp167
g16
ag17
ag10
ag11
aa(lp168
g16
ag17
ag13
ag14
aa(lp169
g16
ag17
ag19
ag20
aa(lp170
g16
ag17
ag22
ag23
aa(lp171
g16
ag17
ag25
ag26
aa(lp172
g16
ag17
ag28
ag29
aa(lp173
g16
ag17
ag31
ag32
aa(lp174
g16
ag17
ag34
ag35
aa(lp175
g16
ag17
ag37
ag38
aa(lp176
g16
ag17
ag40
ag41
aa(lp177
g16
ag17
ag43
ag44
aa(lp178
g16
ag17
ag46
ag47
aa(lp179
g16
ag17
ag49
ag50
aa(lp180
g16
ag17
ag52
ag53
aa(lp181
g16
ag17
ag55
ag56
aa(lp182
g16
ag17
ag58
ag59
aa(lp183
g16
ag17
ag61
ag62
aa(lp184
g16
ag17
ag64
ag65
aa(lp185
g16
ag17
ag67
ag68
aa(lp186
g16
ag17
ag70
ag71
aa(lp187
g19
ag20
ag2
ag3
aa(lp188
g19
ag20
ag4
ag5
aa(lp189
g19
ag20
ag7
ag8
aa(lp190
g19
ag20
ag10
ag11
aa(lp191
g19
ag20
ag13
ag14
aa(lp192
g19
ag20
ag16
ag17
aa(lp193
g19
ag20
ag22
ag23
aa(lp194
g19
ag20
ag25
ag26
aa(lp195
g19
ag20
ag28
ag29
aa(lp196
g19
ag20
ag31
ag32
aa(lp197
g19
ag20
ag34
ag35
aa(lp198
g19
ag20
ag37
ag38
aa(lp199
g19
ag20
ag40
ag41
aa(lp200
g19
ag20
ag43
ag44
aa(lp201
g19
ag20
ag46
ag47
aa(lp202
g19
ag20
ag49
ag50
aa(lp203
g19
ag20
ag52
ag53
aa(lp204
g19
ag20
ag55
ag56
aa(lp205
g19
ag20
ag58
ag59
aa(lp206
g19
ag20
ag61
ag62
aa(lp207
g19
ag20
ag64
ag65
aa(lp208
g19
ag20
ag67
ag68
aa(lp209
g19
ag20
ag70
ag71
aa(lp210
g22
ag23
ag2
ag3
aa(lp211
g22
ag23
ag4
ag5
aa(lp212
g22
ag23
ag7
ag8
aa(lp213
g22
ag23
ag10
ag11
aa(lp214
g22
ag23
ag13
ag14
aa(lp215
g22
ag23
ag16
ag17
aa(lp216
g22
ag23
ag19
ag20
aa(lp217
g22
ag23
ag25
ag26
aa(lp218
g22
ag23
ag28
ag29
aa(lp219
g22
ag23
ag31
ag32
aa(lp220
g22
ag23
ag34
ag35
aa(lp221
g22
ag23
ag37
ag38
aa(lp222
g22
ag23
ag40
ag41
aa(lp223
g22
ag23
ag43
ag44
aa(lp224
g22
ag23
ag46
ag47
aa(lp225
g22
ag23
ag49
ag50
aa(lp226
g22
ag23
ag52
ag53
aa(lp227
g22
ag23
ag55
ag56
aa(lp228
g22
ag23
ag58
ag59
aa(lp229
g22
ag23
ag61
ag62
aa(lp230
g22
ag23
ag64
ag65
aa(lp231
g22
ag23
ag67
ag68
aa(lp232
g22
ag23
ag70
ag71
aa(lp233
g25
ag26
ag2
ag3
aa(lp234
g25
ag26
ag4
ag5
aa(lp235
g25
ag26
ag7
ag8
aa(lp236
g25
ag26
ag10
ag11
aa(lp237
g25
ag26
ag13
ag14
aa(lp238
g25
ag26
ag16
ag17
aa(lp239
g25
ag26
ag19
ag20
aa(lp240
g25
ag26
ag22
ag23
aa(lp241
g25
ag26
ag28
ag29
aa(lp242
g25
ag26
ag31
ag32
aa(lp243
g25
ag26
ag34
ag35
aa(lp244
g25
ag26
ag37
ag38
aa(lp245
g25
ag26
ag40
ag41
aa(lp246
g25
ag26
ag43
ag44
aa(lp247
g25
ag26
ag46
ag47
aa(lp248
g25
ag26
ag49
ag50
aa(lp249
g25
ag26
ag52
ag53
aa(lp250
g25
ag26
ag55
ag56
aa(lp251
g25
ag26
ag58
ag59
aa(lp252
g25
ag26
ag61
ag62
aa(lp253
g25
ag26
ag64
ag65
aa(lp254
g25
ag26
ag67
ag68
aa(lp255
g25
ag26
ag70
ag71
aa(lp256
g28
ag29
ag2
ag3
aa(lp257
g28
ag29
ag4
ag5
aa(lp258
g28
ag29
ag7
ag8
aa(lp259
g28
ag29
ag10
ag11
aa(lp260
g28
ag29
ag13
ag14
aa(lp261
g28
ag29
ag16
ag17
aa(lp262
g28
ag29
ag19
ag20
aa(lp263
g28
ag29
ag22
ag23
aa(lp264
g28
ag29
ag25
ag26
aa(lp265
g28
ag29
ag31
ag32
aa(lp266
g28
ag29
ag34
ag35
aa(lp267
g28
ag29
ag37
ag38
aa(lp268
g28
ag29
ag40
ag41
aa(lp269
g28
ag29
ag43
ag44
aa(lp270
g28
ag29
ag46
ag47
aa(lp271
g28
ag29
ag49
ag50
aa(lp272
g28
ag29
ag52
ag53
aa(lp273
g28
ag29
ag55
ag56
aa(lp274
g28
ag29
ag58
ag59
aa(lp275
g28
ag29
ag61
ag62
aa(lp276
g28
ag29
ag64
ag65
aa(lp277
g28
ag29
ag67
ag68
aa(lp278
g28
ag29
ag70
ag71
aa(lp279
g31
ag32
ag2
ag3
aa(lp280
g31
ag32
ag4
ag5
aa(lp281
g31
ag32
ag7
ag8
aa(lp282
g31
ag32
ag10
ag11
aa(lp283
g31
ag32
ag13
ag14
aa(lp284
g31
ag32
ag16
ag17
aa(lp285
g31
ag32
ag19
ag20
aa(lp286
g31
ag32
ag22
ag23
aa(lp287
g31
ag32
ag25
ag26
aa(lp288
g31
ag32
ag28
ag29
aa(lp289
g31
ag32
ag34
ag35
aa(lp290
g31
ag32
ag37
ag38
aa(lp291
g31
ag32
ag40
ag41
aa(lp292
g31
ag32
ag43
ag44
aa(lp293
g31
ag32
ag46
ag47
aa(lp294
g31
ag32
ag49
ag50
aa(lp295
g31
ag32
ag52
ag53
aa(lp296
g31
ag32
ag55
ag56
aa(lp297
g31
ag32
ag58
ag59
aa(lp298
g31
ag32
ag61
ag62
aa(lp299
g31
ag32
ag64
ag65
aa(lp300
g31
ag32
ag67
ag68
aa(lp301
g31
ag32
ag70
ag71
aa(lp302
g34
ag35
ag2
ag3
aa(lp303
g34
ag35
ag4
ag5
aa(lp304
g34
ag35
ag7
ag8
aa(lp305
g34
ag35
ag10
ag11
aa(lp306
g34
ag35
ag13
ag14
aa(lp307
g34
ag35
ag16
ag17
aa(lp308
g34
ag35
ag19
ag20
aa(lp309
g34
ag35
ag22
ag23
aa(lp310
g34
ag35
ag25
ag26
aa(lp311
g34
ag35
ag28
ag29
aa(lp312
g34
ag35
ag31
ag32
aa(lp313
g34
ag35
ag37
ag38
aa(lp314
g34
ag35
ag40
ag41
aa(lp315
g34
ag35
ag43
ag44
aa(lp316
g34
ag35
ag46
ag47
aa(lp317
g34
ag35
ag49
ag50
aa(lp318
g34
ag35
ag52
ag53
aa(lp319
g34
ag35
ag55
ag56
aa(lp320
g34
ag35
ag58
ag59
aa(lp321
g34
ag35
ag61
ag62
aa(lp322
g34
ag35
ag64
ag65
aa(lp323
g34
ag35
ag67
ag68
aa(lp324
g34
ag35
ag70
ag71
aa(lp325
g37
ag38
ag2
ag3
aa(lp326
g37
ag38
ag4
ag5
aa(lp327
g37
ag38
ag7
ag8
aa(lp328
g37
ag38
ag10
ag11
aa(lp329
g37
ag38
ag13
ag14
aa(lp330
g37
ag38
ag16
ag17
aa(lp331
g37
ag38
ag19
ag20
aa(lp332
g37
ag38
ag22
ag23
aa(lp333
g37
ag38
ag25
ag26
aa(lp334
g37
ag38
ag28
ag29
aa(lp335
g37
ag38
ag31
ag32
aa(lp336
g37
ag38
ag34
ag35
aa(lp337
g37
ag38
ag40
ag41
aa(lp338
g37
ag38
ag43
ag44
aa(lp339
g37
ag38
ag46
ag47
aa(lp340
g37
ag38
ag49
ag50
aa(lp341
g37
ag38
ag52
ag53
aa(lp342
g37
ag38
ag55
ag56
aa(lp343
g37
ag38
ag58
ag59
aa(lp344
g37
ag38
ag61
ag62
aa(lp345
g37
ag38
ag64
ag65
aa(lp346
g37
ag38
ag67
ag68
aa(lp347
g37
ag38
ag70
ag71
aa(lp348
g40
ag41
ag2
ag3
aa(lp349
g40
ag41
ag4
ag5
aa(lp350
g40
ag41
ag7
ag8
aa(lp351
g40
ag41
ag10
ag11
aa(lp352
g40
ag41
ag13
ag14
aa(lp353
g40
ag41
ag16
ag17
aa(lp354
g40
ag41
ag19
ag20
aa(lp355
g40
ag41
ag22
ag23
aa(lp356
g40
ag41
ag25
ag26
aa(lp357
g40
ag41
ag28
ag29
aa(lp358
g40
ag41
ag31
ag32
aa(lp359
g40
ag41
ag34
ag35
aa(lp360
g40
ag41
ag37
ag38
aa(lp361
g40
ag41
ag43
ag44
aa(lp362
g40
ag41
ag46
ag47
aa(lp363
g40
ag41
ag49
ag50
aa(lp364
g40
ag41
ag52
ag53
aa(lp365
g40
ag41
ag55
ag56
aa(lp366
g40
ag41
ag58
ag59
aa(lp367
g40
ag41
ag61
ag62
aa(lp368
g40
ag41
ag64
ag65
aa(lp369
g40
ag41
ag67
ag68
aa(lp370
g40
ag41
ag70
ag71
aa(lp371
g43
ag44
ag2
ag3
aa(lp372
g43
ag44
ag4
ag5
aa(lp373
g43
ag44
ag7
ag8
aa(lp374
g43
ag44
ag10
ag11
aa(lp375
g43
ag44
ag13
ag14
aa(lp376
g43
ag44
ag16
ag17
aa(lp377
g43
ag44
ag19
ag20
aa(lp378
g43
ag44
ag22
ag23
aa(lp379
g43
ag44
ag25
ag26
aa(lp380
g43
ag44
ag28
ag29
aa(lp381
g43
ag44
ag31
ag32
aa(lp382
g43
ag44
ag34
ag35
aa(lp383
g43
ag44
ag37
ag38
aa(lp384
g43
ag44
ag40
ag41
aa(lp385
g43
ag44
ag46
ag47
aa(lp386
g43
ag44
ag49
ag50
aa(lp387
g43
ag44
ag52
ag53
aa(lp388
g43
ag44
ag55
ag56
aa(lp389
g43
ag44
ag58
ag59
aa(lp390
g43
ag44
ag61
ag62
aa(lp391
g43
ag44
ag64
ag65
aa(lp392
g43
ag44
ag67
ag68
aa(lp393
g43
ag44
ag70
ag71
aa(lp394
g46
ag47
ag2
ag3
aa(lp395
g46
ag47
ag4
ag5
aa(lp396
g46
ag47
ag7
ag8
aa(lp397
g46
ag47
ag10
ag11
aa(lp398
g46
ag47
ag13
ag14
aa(lp399
g46
ag47
ag16
ag17
aa(lp400
g46
ag47
ag19
ag20
aa(lp401
g46
ag47
ag22
ag23
aa(lp402
g46
ag47
ag25
ag26
aa(lp403
g46
ag47
ag28
ag29
aa(lp404
g46
ag47
ag31
ag32
aa(lp405
g46
ag47
ag34
ag35
aa(lp406
g46
ag47
ag37
ag38
aa(lp407
g46
ag47
ag40
ag41
aa(lp408
g46
ag47
ag43
ag44
aa(lp409
g46
ag47
ag49
ag50
aa(lp410
g46
ag47
ag52
ag53
aa(lp411
g46
ag47
ag55
ag56
aa(lp412
g46
ag47
ag58
ag59
aa(lp413
g46
ag47
ag61
ag62
aa(lp414
g46
ag47
ag64
ag65
aa(lp415
g46
ag47
ag67
ag68
aa(lp416
g46
ag47
ag70
ag71
aa(lp417
g49
ag50
ag2
ag3
aa(lp418
g49
ag50
ag4
ag5
aa(lp419
g49
ag50
ag7
ag8
aa(lp420
g49
ag50
ag10
ag11
aa(lp421
g49
ag50
ag13
ag14
aa(lp422
g49
ag50
ag16
ag17
aa(lp423
g49
ag50
ag19
ag20
aa(lp424
g49
ag50
ag22
ag23
aa(lp425
g49
ag50
ag25
ag26
aa(lp426
g49
ag50
ag28
ag29
aa(lp427
g49
ag50
ag31
ag32
aa(lp428
g49
ag50
ag34
ag35
aa(lp429
g49
ag50
ag37
ag38
aa(lp430
g49
ag50
ag40
ag41
aa(lp431
g49
ag50
ag43
ag44
aa(lp432
g49
ag50
ag46
ag47
aa(lp433
g49
ag50
ag52
ag53
aa(lp434
g49
ag50
ag55
ag56
aa(lp435
g49
ag50
ag58
ag59
aa(lp436
g49
ag50
ag61
ag62
aa(lp437
g49
ag50
ag64
ag65
aa(lp438
g49
ag50
ag67
ag68
aa(lp439
g49
ag50
ag70
ag71
aa(lp440
g52
ag53
ag2
ag3
aa(lp441
g52
ag53
ag4
ag5
aa(lp442
g52
ag53
ag7
ag8
aa(lp443
g52
ag53
ag10
ag11
aa(lp444
g52
ag53
ag13
ag14
aa(lp445
g52
ag53
ag16
ag17
aa(lp446
g52
ag53
ag19
ag20
aa(lp447
g52
ag53
ag22
ag23
aa(lp448
g52
ag53
ag25
ag26
aa(lp449
g52
ag53
ag28
ag29
aa(lp450
g52
ag53
ag31
ag32
aa(lp451
g52
ag53
ag34
ag35
aa(lp452
g52
ag53
ag37
ag38
aa(lp453
g52
ag53
ag40
ag41
aa(lp454
g52
ag53
ag43
ag44
aa(lp455
g52
ag53
ag46
ag47
aa(lp456
g52
ag53
ag49
ag50
aa(lp457
g52
ag53
ag55
ag56
aa(lp458
g52
ag53
ag58
ag59
aa(lp459
g52
ag53
ag61
ag62
aa(lp460
g52
ag53
ag64
ag65
aa(lp461
g52
ag53
ag67
ag68
aa(lp462
g52
ag53
ag70
ag71
aa(lp463
g55
ag56
ag2
ag3
aa(lp464
g55
ag56
ag4
ag5
aa(lp465
g55
ag56
ag7
ag8
aa(lp466
g55
ag56
ag10
ag11
aa(lp467
g55
ag56
ag13
ag14
aa(lp468
g55
ag56
ag16
ag17
aa(lp469
g55
ag56
ag19
ag20
aa(lp470
g55
ag56
ag22
ag23
aa(lp471
g55
ag56
ag25
ag26
aa(lp472
g55
ag56
ag28
ag29
aa(lp473
g55
ag56
ag31
ag32
aa(lp474
g55
ag56
ag34
ag35
aa(lp475
g55
ag56
ag37
ag38
aa(lp476
g55
ag56
ag40
ag41
aa(lp477
g55
ag56
ag43
ag44
aa(lp478
g55
ag56
ag46
ag47
aa(lp479
g55
ag56
ag49
ag50
aa(lp480
g55
ag56
ag52
ag53
aa(lp481
g55
ag56
ag58
ag59
aa(lp482
g55
ag56
ag61
ag62
aa(lp483
g55
ag56
ag64
ag65
aa(lp484
g55
ag56
ag67
ag68
aa(lp485
g55
ag56
ag70
ag71
aa(lp486
g58
ag59
ag2
ag3
aa(lp487
g58
ag59
ag4
ag5
aa(lp488
g58
ag59
ag7
ag8
aa(lp489
g58
ag59
ag10
ag11
aa(lp490
g58
ag59
ag13
ag14
aa(lp491
g58
ag59
ag16
ag17
aa(lp492
g58
ag59
ag19
ag20
aa(lp493
g58
ag59
ag22
ag23
aa(lp494
g58
ag59
ag25
ag26
aa(lp495
g58
ag59
ag28
ag29
aa(lp496
g58
ag59
ag31
ag32
aa(lp497
g58
ag59
ag34
ag35
aa(lp498
g58
ag59
ag37
ag38
aa(lp499
g58
ag59
ag40
ag41
aa(lp500
g58
ag59
ag43
ag44
aa(lp501
g58
ag59
ag46
ag47
aa(lp502
g58
ag59
ag49
ag50
aa(lp503
g58
ag59
ag52
ag53
aa(lp504
g58
ag59
ag55
ag56
aa(lp505
g58
ag59
ag61
ag62
aa(lp506
g58
ag59
ag64
ag65
aa(lp507
g58
ag59
ag67
ag68
aa(lp508
g58
ag59
ag70
ag71
aa(lp509
g61
ag62
ag2
ag3
aa(lp510
g61
ag62
ag4
ag5
aa(lp511
g61
ag62
ag7
ag8
aa(lp512
g61
ag62
ag10
ag11
aa(lp513
g61
ag62
ag13
ag14
aa(lp514
g61
ag62
ag16
ag17
aa(lp515
g61
ag62
ag19
ag20
aa(lp516
g61
ag62
ag22
ag23
aa(lp517
g61
ag62
ag25
ag26
aa(lp518
g61
ag62
ag28
ag29
aa(lp519
g61
ag62
ag31
ag32
aa(lp520
g61
ag62
ag34
ag35
aa(lp521
g61
ag62
ag37
ag38
aa(lp522
g61
ag62
ag40
ag41
aa(lp523
g61
ag62
ag43
ag44
aa(lp524
g61
ag62
ag46
ag47
aa(lp525
g61
ag62
ag49
ag50
aa(lp526
g61
ag62
ag52
ag53
aa(lp527
g61
ag62
ag55
ag56
aa(lp528
g61
ag62
ag58
ag59
aa(lp529
g61
ag62
ag64
ag65
aa(lp530
g61
ag62
ag67
ag68
aa(lp531
g61
ag62
ag70
ag71
aa(lp532
g64
ag65
ag2
ag3
aa(lp533
g64
ag65
ag4
ag5
aa(lp534
g64
ag65
ag7
ag8
aa(lp535
g64
ag65
ag10
ag11
aa(lp536
g64
ag65
ag13
ag14
aa(lp537
g64
ag65
ag16
ag17
aa(lp538
g64
ag65
ag19
ag20
aa(lp539
g64
ag65
ag22
ag23
aa(lp540
g64
ag65
ag25
ag26
aa(lp541
g64
ag65
ag28
ag29
aa(lp542
g64
ag65
ag31
ag32
aa(lp543
g64
ag65
ag34
ag35
aa(lp544
g64
ag65
ag37
ag38
aa(lp545
g64
ag65
ag40
ag41
aa(lp546
g64
ag65
ag43
ag44
aa(lp547
g64
ag65
ag46
ag47
aa(lp548
g64
ag65
ag49
ag50
aa(lp549
g64
ag65
ag52
ag53
aa(lp550
g64
ag65
ag55
ag56
aa(lp551
g64
ag65
ag58
ag59
aa(lp552
g64
ag65
ag61
ag62
aa(lp553
g64
ag65
ag67
ag68
aa(lp554
g64
ag65
ag70
ag71
aa(lp555
g67
ag68
ag2
ag3
aa(lp556
g67
ag68
ag4
ag5
aa(lp557
g67
ag68
ag7
ag8
aa(lp558
g67
ag68
ag10
ag11
aa(lp559
g67
ag68
ag13
ag14
aa(lp560
g67
ag68
ag16
ag17
aa(lp561
g67
ag68
ag19
ag20
aa(lp562
g67
ag68
ag22
ag23
aa(lp563
g67
ag68
ag25
ag26
aa(lp564
g67
ag68
ag28
ag29
aa(lp565
g67
ag68
ag31
ag32
aa(lp566
g67
ag68
ag34
ag35
aa(lp567
g67
ag68
ag37
ag38
aa(lp568
g67
ag68
ag40
ag41
aa(lp569
g67
ag68
ag43
ag44
aa(lp570
g67
ag68
ag46
ag47
aa(lp571
g67
ag68
ag49
ag50
aa(lp572
g67
ag68
ag52
ag53
aa(lp573
g67
ag68
ag55
ag56
aa(lp574
g67
ag68
ag58
ag59
aa(lp575
g67
ag68
ag61
ag62
aa(lp576
g67
ag68
ag64
ag65
aa(lp577
g67
ag68
ag70
ag71
aa(lp578
g70
ag71
ag2
ag3
aa(lp579
g70
ag71
ag4
ag5
aa(lp580
g70
ag71
ag7
ag8
aa(lp581
g70
ag71
ag10
ag11
aa(lp582
g70
ag71
ag13
ag14
aa(lp583
g70
ag71
ag16
ag17
aa(lp584
g70
ag71
ag19
ag20
aa(lp585
g70
ag71
ag22
ag23
aa(lp586
g70
ag71
ag25
ag26
aa(lp587
g70
ag71
ag28
ag29
aa(lp588
g70
ag71
ag31
ag32
aa(lp589
g70
ag71
ag34
ag35
aa(lp590
g70
ag71
ag37
ag38
aa(lp591
g70
ag71
ag40
ag41
aa(lp592
g70
ag71
ag43
ag44
aa(lp593
g70
ag71
ag46
ag47
aa(lp594
g70
ag71
ag49
ag50
aa(lp595
g70
ag71
ag52
ag53
aa(lp596
g70
ag71
ag55
ag56
aa(lp597
g70
ag71
ag58
ag59
aa(lp598
g70
ag71
ag61
ag62
aa(lp599
g70
ag71
ag64
ag65
aa(lp600
g70
ag71
ag67
ag68
aa.